10016593 Atlanta International Raceway ATL {{sort|Hampton|{{flagicon|USA}} [[Hampton, Georgia]]}}
{{coord|33|23|1|N|84|19|4|W|region:US-GA_type:landmark|name=Atlanta Motor Speedway}} Oval {{convert|1.522|mi|km|abbr=on}} {{sort|1979–04|1979, 1981–1983}} 7 Atlanta Brands Hatch BRH {{sort|Swanley|{{flagicon|UK}} [[Swanley]], [[Kent]]}}
{{coord|51|21|25|N|0|15|47|E|region:GB-KEN_type:landmark|name=Brands Hatch}} Road course {{convert|1.200|mi|km|abbr=on}} {{sort|2003–05|[[2003 London Champ Car Trophy|2003]]}} 1 Brands Hatch California Speedway CAL {{sort|Fontana|{{flagicon|USA}} [[Fontana, California]]}}
{{coord|34|5|19|N|117|30|0|W|region:US-CA_type:landmark|name=California Speedway}} Oval {{convert|2.029|mi|km|abbr=on}} {{sort|1997–09|1997–2002}} 6 California Chicago Motor Speedway CHI {{sort|Cicero|{{flagicon|USA}} [[Cicero, Illinois]]}}
{{coord|41|49|50|N|87|44|55|W|region:US-IL_type:landmark|name=Chicago Motor Speedway}} Oval {{convert|1.029|mi|km|abbr=on}} 1999–2002 4 Chicago Denver street circuit (Civic Center) DEN{{ref|D1|4}} {{sort|Denver|{{flagicon|USA}} [[Denver]], [[Colorado]]}}
{{coord|39|44|21|N|104|59|22|W|region:US-CO_type:landmark|name=Denver Street Circuit (Civic Center)}} Street circuit {{convert|1.901|mi|km|abbr=on}} {{sort|1990–08|1990–1991}} 2  
100385 1985 Best Film Shanghai Blues {{nom}} 1985 Best Director Shanghai Blues {{nom}} 1987 Best Film A Better Tomorrow {{won}} 1987 Best Action Choreography Righting Wrongs {{nom}} 1988 Best Film A Chinese Ghost Story {{nom}} 
10044056 Grampians (Vic) Edward Jolley ALP 00.3 Indi (Vic) Parker Moloney ALP 01.0 Corio (Vic) Alfred Ozanne ALP 01.2 Ballaarat (Vic) Charles McGrath ALP 01.2 Riverina (NSW) John Chanter ALP 02.1 
10069265 SV Waldhof Mannheim 3 – 2 VfL Bochum Alemannia Aachen 0 – 1 KFC Uerdingen 05 (AET) FV 09 Weinheim 1 – 0 FC Bayern Munich FC Kilia Kiel 1 – 4 FC St. Pauli Eintracht Trier 0 – 1 VfB Stuttgart 
1010713 1912–13 Wigan 21–5 Rochdale Hornets The Willows, Salford 1914–15 Rochdale Hornets 3–2 Wigan The Willows, Salford 1920–21 Broughton Rangers 6–3 Leigh The Willows, Salford 1922–23 Wigan 20–2 Leigh The Willows, Salford 1930–31 St Helens Recs 18–3 Wigan Station Road, Swinton 
101864 Anju {{large|{{lang|ko|안주시}}}} {{large|{{lang|ko|安州市}}}} South Pyongan 240,117 1987-08- 　 Chongjin {{large|{{lang|ko|청진시}}}} {{large|{{lang|ko|淸津市}}}} North Hamgyong 667,929 1985- 　 - 　 Chongju {{large|{{lang|ko|정주시}}}} {{large|{{lang|ko|定州市}}}} North Pyongan 189,742 1994- 　 - 　 Haeju {{large|{{lang|ko|해주시}}}} {{large|{{lang|ko|海州市}}}} South Hwanghae 273,300 1945-09-02 Hamhung {{large|{{lang|ko|함흥시}}}} {{large|{{lang|ko|咸興市}}}} South Hamgyong 768,551 1967- 　 - 　 
10288724 Alfa Romeo 1979 Alfasud ti Alfa Romeo Alfasud 1972–1989 1,017,387. American Motors AMC Hornet. AMC Hornet 1970–77 Approximately 860,000. Aston Martin Aston Martin DB7 Volante. Aston Martin DB7 1993–2003 7,000 Autobianchi 1973 Autobianchi A112 E. Autobianchi A112 1969–1986 1,254,178. BMW First generation BMW 3 Series coupé. BMW 3 Series 1975–present Over 14,000,000 to 2015. 
10290636 1974–75 Modo AIK SWE &nbsp; 30 4 8 12 20 &nbsp; — — — 1975–76 Modo AIK SEL &nbsp; 36 2 6 8 22 &nbsp; — — — 1976–77 Modo AIK SEL &nbsp; 35 6 6 12 36 &nbsp; 1 0 0 1977–78 Modo AIK SEL &nbsp; 33 1 9 10 50 &nbsp; 2 0 0 1978–79 Vancouver Canucks NHL &nbsp; 64 2 19 21 68 &nbsp; 3 0 0 
1029185 1992 Rosenborg Tippeligaen 1 0 0 0 – – 0 0 1 0 1993 Rosenborg Tippeligaen 10 2 2 3 – – 2 0 14 5 1994 Kongsvinger Tippeligaen 18 3 2 0 – – – – 20 3 1995 Kongsvinger Tippeligaen 24 12 4 3 – – – – 28 15 1996 Kongsvinger Tippeligaen 14 5 4 3 – – – – 18 8 
1036145 Alexander, Marc United Future - First Anderton, Jim Progressive Wigram Seventh Ardern, Shane National Taranaki-King Country Third Awatere Huata, Donna ACT - Third Baldock, Larry United Future - First 
10381260 {{bronze medal}} Milcah Chemos Cheywa {{GamesName|SOG|2012}} Image:Athletics pictogram.svg Athletics Women's 3000 m steeplechase {{bronze medal}} Pamela Jelimo {{GamesName|SOG|2012}} Image:Athletics pictogram.svg Athletics Women's 800 m {{gold medal}} David Rudisha {{GamesName|SOG|2016}} Image:Athletics pictogram.svg Athletics Men's 800 m {{gold medal}} Conseslus Kipruto {{GamesName|SOG|2016}} Image:Athletics pictogram.svg Athletics Men's 3000 m steeplechase {{gold medal}} Eliud Kipchoge {{GamesName|SOG|2016}} Image:Athletics pictogram.svg Athletics Men's Marathon 
10420966 2003 Celine Dion One Heart "Faith" Rami Yacoub 2003 Celine Dion One Heart "In His Touch" Rami Yacoub 2003 Celine Dion One Heart "Love Is All We Need" Rami Yacoub 2005 Backstreet Boys Never Gone "Climbing the Walls" Lukasz Gottwald 2005 Backstreet Boys Never Gone "I Still..." Rami Yacoub 
10485477 2013 Magpakailanman: Ang Pakawalang Anghel Adult Michelle Perez GMA Network 2012 Teen Gen West Ridge School Principal GMA Network 2012 Aso ni San Roque Lena GMA Network 2012 Tweets For My Sweet Mayumi GMA Network 2012 My Daddy Dearest Ivy GMA Network 
1049302  2 Charles Borlase File:Charles Borlase.jpg 1874 1875 -  3 William Sefton Moorhouse File:William Sefton Moorhouse1.jpg 1875 1875 1874  14 John Blair File:John Rutherford Blair.jpg 1897 1899 1897 • 1898  16 Thomas William Hislop File:Thomas William Hislop, 1908.jpg 1905 1909 1905 • 1906
1907 • 1908  18 Thomas Wilford File:Thomas Wilford, 1909.jpg 1910 1912 1910 • 1911 
10496881 Ames Oklahoma 16 470 ± 30 {{coord|36|15|N|98|12|W|name=Ames}} Avak Alaska 12 < 95 {{coord|71|15|N|156|30|W|name=Avak}} Barringer Arizona 1.19 0.049 ± 0.003 {{coord|35|2|N|111|1|W|name=Barringer}} Calvin Michigan 8.5 450 ± 10 {{coord|41|50|N|85|57|W|name=Calvin}} Chesapeake Bay Virginia 90 35.5 ± 0.3 {{coord|37|17|N|76|1|W|name=Chesapeake Bay}} 
10541352 2009 File:Landon Donovan warmup.jpg {{sortname|Landon|Donovan}} {{flag|USA}} LA Galaxy Forward Juan Pablo Ángel ({{flag|COL}}) – New York Red Bulls
Jon Busch ({{flag|USA}}) – Chicago Fire
Kenny Cooper ({{flag|USA}}) – FC Dallas
Guillermo Barros Schelotto ({{flag|ARG}}) – Columbus Crew  2010 File:WikiLando (cropped).jpg {{sortname|Landon|Donovan}} {{flag|USA}} LA Galaxy Forward Conor Casey ({{flag|USA}}) – Colorado Rapids
Jeff Cunningham ({{flag|USA}}) – FC Dallas
Shalrie Joseph ({{flag|GRD}}) – New England Revolution
Kasey Keller ({{flag|USA}}) – Seattle Sounders FC  2011 File:Sounders vs Galaxy 2011 (cropped).jpg {{sortname|Landon|Donovan}}† {{flag|USA}} LA Galaxy Forward Edson Buddle ({{flag|USA}}) – LA Galaxy
David Ferreira ({{flag|COL}}) – FC Dallas
Chris Wondolowski ({{flag|USA}}) – San Jose Earthquakes  2012 File:David Beckham at US Embassy in London (cropped).jpg {{sortname|David|Beckham}} {{flag|ENG}} LA Galaxy Right midfielder Dwayne De Rosario ({{flag|CAN}}) – D.C. United
Brad Davis ({{flag|USA}}) – Houston Dynamo
Chris Wondolowski ({{flag|USA}}) – San Jose Earthquakes  2013 File:Thierry Henry MLS All Star 2013.jpg {{sortname|Thierry|Henry}} {{flag|FRA}} New York Red Bulls Forward Chris Wondolowski ({{flag|USA}}) – San Jose Earthquakes
Graham Zusi ({{flag|USA}}) – Sporting Kansas City  
10566303 8 12 Ronnie Bremer Polestar Racing Group 22 +10.6 secs 14 15 13 36 J.R. Hildebrand Newman Wachs Racing 21 Contact 5 8 14 18 Giacomo Ricci Conquest Racing 21 Contact 10 7 15 2 Tom Sutherland Jensen MotorSport 21 Contact 13 6 16 22 Dominick Muermans Jensen MotorSport 21 Contact 24 5 
10637401 2 Dewsbury Rams 28–46 Sheffield Eagles 4 Widnes Vikings 24–34 Wigan Warriors 5 Swinton Lions 14–47 Barrow Raiders 6 London Skolars 4–52 Wakefield Trinity Wildcats 7 Rochdale Hornets 20–16 Celtic Crusaders 
10639084 Arminia Hannover 2 – 1 FC 08 Homburg FC St. Pauli 1 – 2 SV Werder Bremen Kickers Offenbach 2 – 1 Bayer Uerdingen Eintracht Frankfurt 0 – 1 FC Bayern Munich Hamburger SV 2 – 4 MSV Duisburg 
10645594 1986–87 Culver Military Academy HS-Prep  39 15 20 35   — — — 1987–88 Culver Military Academy HS-Prep  35 24 29 53 18  — — — 1988–89 Culver Military Academy HS-Prep  19 21 29 50 16  — — — 1993–94 Binghamton Rangers AHL  21 0 9 9 12  — — — 1994–95 Binghamton Rangers AHL  73 15 41 56 54  11 4 5 
10651885 1973–74 Hamilton Red Wings OHA-Jr. &nbsp; 63 3 19 22 105 &nbsp; — — — 1976–77 Vancouver Canucks NHL &nbsp; 2 0 0 0 0 &nbsp; — — — 1977–78 Vancouver Canucks NHL &nbsp; 49 5 14 19 29 &nbsp; — — — 1978–79 Vancouver Canucks NHL &nbsp; 52 5 16 21 42 &nbsp; 3 0 1 1978–79 Dallas Black Hawks CHL &nbsp; 23 8 9 17 18 &nbsp; — — — 
10660136 1 22 Todd Kelly Holden Racing Team 1:08.439   2 16 Garth Tander Toll HSV Dealer Team 1:08.529   3 2 Mark Skaife Holden Racing Team 1:08.544   4 33 Lee Holdsworth Garry Rogers Motorsport 1:08.606   5 1 Rick Kelly Toll HSV Dealer Team 1:08.640   
10660249 1 5 {{flagicon|Australia}} Mark Winterbottom
{{flagicon|New Zealand}} Matt Halliday Ford BF Falcon Ford Performance Racing 1:10.6405 1:10.5655  2 4 {{flagicon|Australia}} James Courtney
{{flagicon|Australia}} David Besnard Ford BF Falcon Stone Brothers Racing 1:10.7277 1:10.4430  3 22 {{flagicon|Australia}} Todd Kelly
{{flagicon|Australia}} Nathan Pretty Holden VE Commodore Holden Racing Team 1:10.7355 1:10.4918  4 16 {{flagicon|Australia}} Garth Tander
{{flagicon|New Zealand}} Craig Baird Holden VE Commodore Toll HSV Dealer Team 1:10.7895 1:10.4559  6 6 {{flagicon|New Zealand}} Steven Richards
{{flagicon|Australia}} Owen Kelly Ford BF Falcon Ford Performance Racing 1:10.8739 1:10.6281  
10660351 1 6 {{flagicon|Australia}} Mark Winterbottom
{{flagicon|New Zealand}} Steven Richards Ford BF Falcon Ford Performance Racing 2:07.1481  2 2 {{flagicon|Australia}} Mark Skaife
{{flagicon|Australia}} Todd Kelly Holden VE Commodore Holden Racing Team 2:07.4512  3 1 {{flagicon|Australia}} Garth Tander
{{flagicon|Australia}} Rick Kelly Holden VE Commodore Toll HSV Dealer Team 2:07.3856  5 4 {{flagicon|Australia}} James Courtney
{{flagicon|Australia}} David Besnard Ford BF Falcon Jeld-Wen Racing 2:07.9036  6 9 {{flagicon|Australia}} Russell Ingall
{{flagicon|Australia}} Luke Youlden Ford BF Falcon Caltex Havoline Racing 2:07.9066  
10660606 1 16 Garth Tander HSV Dealer Team 1:48.6322   2 4 James Courtney Stone Brothers Racing 1:48.6790   4 9 Russell Ingall Stone Brothers Racing 1:49.0001   9 22 Todd Kelly Holden Racing Team 1:49.4028   10 20 Paul Dumbrell Paul Weel Racing  1:49.5817  
10661025 1 1 Rick Kelly HSV Dealer Team 1:33.7596   2 200 Mark Skaife Holden Racing Team 1:33.9540   4 22 Todd Kelly Holden Racing Team 1:34.0783   7 16 Garth Tander HSV Dealer Team 1:34.3521   8 5 Mark Winterbottom Ford Performance Racing 1:34.3923   
10663518 1974–75 Leksands IF SWE &nbsp; 28 11 16 27 14 &nbsp; — — — 1975–76 Leksands IF SEL &nbsp; 36 21 14 35 16 &nbsp; 4 9 3 1976–77 Minnesota North Stars NHL &nbsp; 80 25 44 69 10 &nbsp; 2 1 0 1977–78 Minnesota North Stars NHL &nbsp; 78 21 39 60 12 &nbsp; — — — 1978–79 Vancouver Canucks NHL &nbsp; 35 2 12 14 4 &nbsp; — — — 
10697925 1994–95 Sparta Warriors NOR &nbsp; 17 3 0 3  &nbsp; — — — 1995–96 Lillehammer IK NOR &nbsp; 30 4 5 9  &nbsp; — — — 1996–97 Lillehammer IK NOR &nbsp; 35 25 29 54  &nbsp; — — — 1997–98 Sparta Warriors NOR &nbsp; 36 19 15 34 70 &nbsp; — — — 2000–01 HV71 SEL &nbsp; 13 5 6 11 6 &nbsp; — — — 
10712094 1994–95 Peja Ylli  1996–97 Drita Prishtina  2003–04 Dukagjini Prishtina 3–0 2007–08 Prishtina Peja 4–2 2008–09 Prishtina Bashkimi 3–2 
1073579 {{sortname|Jackie|Robinson}} {{sup|†}} Brooklyn Dodgers NL {{dts|April 15, 1947}} {{sortname|Larry|Doby}} {{sup|†}} Cleveland Indians AL {{dts|July 5, 1947}} {{sortname|Hank|Thompson|dab=baseball}} St. Louis Browns AL {{dts|July 17, 1947}} {{sortname|Willard|Brown}} {{sup|†}} St. Louis Browns AL {{dts|July 19, 1947}} {{sortname|Dan|Bankhead}} Brooklyn Dodgers NL {{dts|August 26, 1947}} 
10742875 92.3 WZPW Peoria Cumulus {{dts|1992}} 19,000 Power 92-3 CHR/Rhythmic {{yes}}{{ref|arti|[a&t]}} {{no}} 93.3 WPBG Peoria Midwest Communications {{dts|1947|4}} 41,000 93.3 The Drive Classic Hits {{yes}}{{ref|arti|[a&t]}} {{yes|4}} 95.5 WGLO Pekin Cumulus {{dts|1971|11|18}} 7,000 95-5 'GLO Classic rock {{yes}}{{ref|arti|[a&t]}} {{no}} 95.9 W240DM Peoria Midwest Communications {{dts|2017|5|15}} 250 {{ref|translator|[t]}}93.3 WPBG-HD3 Sports {{yes}} {{no}} 97.3 WFYR Elmwood Cumulus {{dts|1993}} 24,000 Nash FM 97.3 Country {{yes}}{{ref|arti|[a&t]}} {{no}} 
10750310 1986 Guy Forget Jan Gunnarsson 4–6, 6–3, 6–2 1987 Tim Mayotte Ricki Osterthun 6–2, 5–7, 6–4 1988 Jimmy Connors Andrei Chesnokov 6–2, 6–0 1989 Jimmy Connors John McEnroe 6–3, 6–3 1991 Guy Forget Amos Mansdorf 6–2, 7–6 
10782708 1984 Australian Endurance Championship NC BMW 635 CSi JPS Team BMW 1984 World Sportscar Championship NC BMW 320i JPS Team BMW 1985 Australian Touring Car Championship 16th BMW 323i JPS Team BMW 1985 AMSCAR Series 2nd BMW 323i JPS Team BMW 1986 AMSCAR Series 1st BMW 325i JPS Team BMW 
10813310 14 March 1997 Super League II 1 Image:Wolvescolours.svgWarrington Wolves H Odsal Stadium W 58–20 Paul (3), Spruce (2), Lowes, McDermott, McNamara, Peacock, Scales McNamara 9/10 15,070 21 March 1997 Super League II 2 Image:Oldhamcolours.svgOldham Bears A Boundary Park W 30–18 Bradley, Jowitt, McNamara, Nickle, Spruce McNamara 4/4, Cook 1/1 5,604 1 April 1997 Super League II 4 Image:Cascolours.pngCastleford Tigers A The Jungle W 38–12 Paul (2), Jowitt, Loughlin, Lowes, McDermott McNamara 3/3, Cook 4/4 7,882 6 April 1997 Super League II 5 {{leagueicon|Cronulla|12}}London Broncos H Odsal Stadium W 19–14 Cook, Loughlin, Nickle McNamara 3/3, McNamara 1 DG 15,556 23 April 1997 Super League II 3 {{leagueicon|Halifax|12}}Halifax Blue Sox H Odsal Stadium W 28–26 Knox (3), Calland, McNamara McNamara 4/5 13,285 
10814427 7 March 1999 Super League IV 1 {{leagueicon|Sheffield|12}}Sheffield Eagles H Odsal Stadium W 18–6 Lowes, McAvoy, Withers H.Paul 3/3 12,044 21 March 1999 Super League IV 2 Image:Hullcolours.svgHull Sharks A The Boulevard W 8–3 McAvoy McNamara 2/2 6,577 1 April 1999 Super League IV 3 Image:Rhinoscolours.svgLeeds Rhinos H Odsal Stadium W 18–14 Forshaw, H.Paul, R.Paul McNamara 1/1, H.Paul 2/2 16,049 5 April 1999 Super League IV 4 Image:Saintscolours.svgSt. Helens A Knowsley Road L 14–58 Dwyer, Harmon Deacon 3/3 15,042 11 April 1999 Super League IV 5 Image:Wcatscolours.svgWakefield Trinity Wildcats H Odsal Stadium W 26–16 Boyle, Lowes, Naylor, D.Peacock McNamara 5/5 11,802 
10814474 1 March 2002 Super League VII 1 Image:Wigancolours.svgWigan Warriors A JJB Stadium W 18–4 Forshaw, Gilmour, Vaikona Deacon 3/3 14,170 10 March 2002 Super League VII 2 Image:Wolvescolours.svgWarrington Wolves H Valley Parade W 38–12 Anderson, Costin, Gartner, Gilmour, McAvoy, Vaikona, Withers Deacon 5/7 13,876 24 March 2002 Super League VII 3 {{leagueicon|Widnes Vikings|12}}Widnes Vikings A Halton Stadium W 22–16 Lowes (2), McAvoy, McDermott Sykes 3/4 8,844 28 March 2002 Super League VII 4 Image:Hullcolours.svgHull F.C. H Valley Parade W 32–18 Anderson, Gilmour, McAvoy, Vagana, Vaikona Deacon 6/6 13,268 7 April 2002 Super League VII 6 {{leagueicon|Cronulla|12}}London Broncos A Griffin Park L 14–15 Costin (2), Vaikona Deacon 1/3 4,605 
10814478 21 February 2003 Super League VIII 1 Image:Saintscolours.svgSt. Helens A Knowsley Road L 22–46 L.Pryce (2), Radford Deacon 5/5 12,217 9 March 2003 Super League VIII 2 Image:Wcatscolours.svgWakefield Trinity Wildcats H Odsal Stadium W 22–10 Gilmour, Hape, Pratt, L.Pryce Radford 3/4 20,283 23 March 2003 Super League VIII 3 {{leagueicon|Halifax|12}}Halifax RLFC H Odsal Stadium W 62–22 Lowes (3), Paul (3), Deacon, Hape, Pratt, L.Pryce, Reardon Deacon 7/9, Lowes 2/2 15,557 30 March 2003 Super League VIII 4 {{leagueicon|Widnes Vikings|12}}Widnes Vikings A Halton Stadium W 26–18 Anderson, Naylor, Paul, Withers Deacon 5/5 6,320 6 April 2003 Super League VIII 5 Image:Wolvescolours.svgWarrington Wolves H Odsal Stadium W 32–8 Deacon, Lowes, L.Pryce, Vaikona, Vainikolo, Withers Deacon 4/6 15,540 
10814481 20 February 2004 Super League IX 1 Image:Wigancolours.svgWigan Warriors H Odsal Stadium W 34–6 Vainikolo (5), Smith, Withers Withers 3/7 17,267 21 March 2004 Super League IX 3 Image:Giantscolours.svgHuddersfield Giants A McAlpine Stadium W 20–6 Johnson (2), Deacon Deacon 4/4 8,039 2 April 2004 Super League IX 4 Image:Redscolours.svgSalford City Reds H Odsal Stadium W 25–18 Deacon, Johnson, L.Pryce, Vainikolo Deacon 4/4, Withers 1 DG 11,790 8 April 2004 Super League IX 5 Image:Rhinoscolours.svgLeeds Rhinos A Headingley Stadium L 18–26 Hape, Vaikona, Vainikolo Deacon 3/3 21,225 12 April 2004 Super League IX 6 Image:Saintscolours.svgSt. Helens H Odsal Stadium W 54–8 Hape (3), Vaikona (2), Vainikolo (2), Withers (2), Langley, Radford Deacon 1/5, Withers 3/4, Paul 1/2 15,623 
10818970 31 March 1996 Super League I 1 {{leagueicon|Castleford|12}}Castleford Tigers H Odsal Stadium W 30-18 Donougher (3), Paul (2), Calland Loughlin 3/6 10,027 5 April 1996 Super League I 2 {{leagueicon|Sheffield|12}}Sheffield Eagles A Don Valley Stadium L 24-40 Calland (2), Lowes, Nickle Cook 4/4 5,202 8 April 1996 Super League I 3 {{leagueicon|London|12}}London Broncos H Odsal Stadium W 31-24 Paul (2), Dwyer, Fairbank Cook 7/7, Cook 1 DG 7,192 14 April 1996 Super League I 4 {{leagueicon|St Helens|12}}St. Helens A Knowsley Road L 20-26 Calland (3), Scales McNamara 2/4 10,010 19 April 1996 Super League I 5 {{leagueicon|Wigan|12}}Wigan A Central Park L 6-22 Loughlin Cook 1/1 9,872 
10825 1957 Reinhold Maier 2,276,234 7.5 2,307,135 7.7 {{composition bar|43|519|hex={{Free Democratic Party (Germany)/meta/color}}}} {{decrease}} 10 {{steady}} 3rd {{no2|Opposition}} 1961 Erich Mende 3,866,269 12.1 4,028,766 12.8 {{composition bar|67|521|hex={{Free Democratic Party (Germany)/meta/color}}}} {{increase}} 24 {{steady}} 3rd {{yes2|[[CDU/CSU]]–FDP}} 1965 Erich Mende 2,562,294 7.9 3,096,739 9.5 {{composition bar|50|518|hex={{Free Democratic Party (Germany)/meta/color}}}} {{decrease}} 17 {{steady}} 3rd {{yes2|[[CDU/CSU]]–FDP}} 1969 Walter Scheel 1,554,651 4.8 1,903,422 5.8 {{composition bar|31|518|hex={{Free Democratic Party (Germany)/meta/color}}}} {{decrease}} 19 {{steady}} 3rd {{yes2|[[Social Democratic Party of Germany|SPD]]–FDP}} 1972 Walter Scheel 1,790,513 4.8 3,129,982 8.4 {{composition bar|42|518|hex={{Free Democratic Party (Germany)/meta/color}}}} {{increase}} 11 {{steady}} 3rd {{yes2|[[Social Democratic Party of Germany|SPD]]–FDP}} 
10830203 {{gold medal}} Oveis Mallah Wrestling Men's freestyle 52&nbsp;kg {{gold medal}} Reza Soukhteh Saraei Wrestling Men's freestyle 130&nbsp;kg {{silver medal}} Rasoul Khadem Wrestling Men's freestyle 68&nbsp;kg {{silver medal}} Ayat Vagozari Wrestling Men's freestyle 82&nbsp;kg {{silver medal}} Hassan Yousefi Afshar Wrestling Men's Greco-Roman 62&nbsp;kg 
10830492 {{gold medal}} Ayoub Pourtaghi Boxing Men's 81 kg {{gold medal}} Nader Rahmati Wrestling Men's freestyle 48 kg {{gold medal}} Ali Akbarnejad Wrestling Men's freestyle 68 kg {{gold medal}} Amir Reza Khadem Wrestling Men's freestyle 82 kg {{gold medal}} Rasoul Khadem Wrestling Men's freestyle 90 kg 
10853140 2002 125cc Honda RS125R Scot Racing Team 34 16 0 0 0 0 42 16th &nbsp;– 2003 125cc Honda RS125R Team Scot 34 16 0 4 1 0 157 5th &nbsp;– 2004 125cc Honda RS125R Kopron Team Scot 34 16 5 11 8 3 293 1st 1 2005 250cc Honda RS250RW Team Scot 34 16 0 5 0 1 189 3rd &nbsp;– 2006 250cc Honda RS250RW Humangest Racing Team 34 16 2 11 2 4 272 2nd &nbsp;– 
1086962 1998 SEA 16 35 209 6.0 64 1 8 1 1 1999 SEA 14 26 120 4.6 21 0 12 0 0 2000 GB 16 263 1,175 4.5 39 10 61 3 2 2001 GB 16 304 1,387 4.6 83 9 57 5 4 2002 GB 14 286 1,240 4.3 43 7 54 3 2 
10878628 Iowa 1995 7 5 0 .583 2nd in AC Central 1 1 .500 Lost in AC Semifinals Iowa 1996 12 2 0 .857 1st in AC Central 2 1 .667 Lost in ArenaBowl X Iowa 1997 11 3 0 .786 1st in AC Central 2 1 .667 Lost in ArenaBowl XI Iowa 1998 5 9 0 .357 3rd in AC Central – – – – Iowa 1999 11 3 0 .786 1st in AC Central 1 1 .500 Lost in AC Final 
10879922 1993 Curtin University of Technology The University of Western Australia 1998 Edith Cowan University Murdoch University 1999 Edith Cowan University The University of Western Australia 2002 Curtin University of Technology Murdoch University 2003 The University of Western Australia Edith Cowan University 
10899856 2 Windsor Spitfires Taylor Hall Greater Kingston 3 Toronto St. Michael's Majors Casey Cizikas Mississauga IceDogs 4 Peterborough Petes Zack Kassian Windsor 5 Brampton Battalion Matt Duchene Central Ontario Wolves 8 Owen Sound Attack Joey Hishon Stratford Warriors AA 
10908664 2004 Tony Awards Best Book of a Musical Winnie Holzman {{nom}} 2004 Tony Awards Best Actress in a Musical Kristin Chenoweth {{nom}} 2004 Tony Awards Best Choreography Wayne Cilento {{nom}} 2004 Tony Awards Best Orchestrations William David Brohn {{nom}} 2004 Tony Awards Best Costume Design Susan Hilferty {{won}} 
10929673 Billy Kirkwood Rangers 2 2006–07, 2007–08 3 2008–09, 2009–10, 2010–11  John Kennedy Celtic 2 2011–12, 2012–13    Sandy Clark Heart of Midlothian 1 1992–93    Peter Houston Heart of Midlothian 1 1997–98    Drew Jarvie Aberdeen 1 2000–01    
10977373 2005 – {{sortname|Marlon|Shirley}} {{USA}} Track and field Rudy Garcia-Tolson ({{flag|USA}}) – Swimming
Paul Martin ({{flag|USA}}) – Cycling  2009 File:Jason Lester hits mile 2,400 on day 50 of Journey for a Better World.png {{sortname|Jason|P. Lester}} {{USA}} Triathlon Jeremy Campbell ({{flag|USA}}) – Track and field
Will Groulx ({{flag|USA}} – Wheelchair rugby
Oscar Pistorius ({{flag|RSA}}) – Track and field  2010 File:Steve Cash 2015.jpg {{sortname|Steve|Cash|dab=sledge hockey}} {{USA}} Sledge hockey Rudy Garcia-Tolson ({{flag|USA}}) – Triathlon
Andy Soule ({{flag|USA}}) – Cross-country skiing  2011 – {{sortname|Anthony|Robles}} {{USA}} Wrestling Chris Devlin-Young ({{flag|USA}}) – Alpine skiing
Aaron Scheidies ({{flag|USA}}) – Triathlon
Jerome Singleton ({{flag|USA}}) – Track and field
Steve Wampler ({{flag|USA}}) – Climbing  2012 File:Kyle Maynard on Mountain.jpg {{sortname|Kyle|Maynard}} {{USA}} Mixed martial arts Baxter Humby ({{flag|CAN}}) – Mixed martial arts
Raymond Martin ({{flag|USA}}) – Wheelchair racing
Oz Sanchez ({{flag|USA}} – Cycling
Tyler Walker ({{flag|USA}}) – Alpine skiing  
1100155 2004 Lakeer Bindiya Hindi 2004 Sakhiya Chandana Telugu 2007 Life Mein Kabhie Kabhiee Monica Seth Hindi 2008 Bhootnath Tina Hindi 2009 Aasma: The Sky Is the Limit Dia Hindi 
11051840 7003  Galaxy Delphinus {{RA|21|00|42.3}} {{DEC|+17|48|17}} 13 7006  Globular cluster Delphinus {{RA|21|01|29.5}} {{DEC|+16|11|17}} 10.6 7012  Galaxy Microscopium {{RA|21|06|45.5}} {{DEC|-44|48|52}} 12.7 7015  Galaxy Equuleus {{RA|21|05|37.3}} {{DEC|+11|24|49}} 12.4 7016  Galaxy Capricornus {{RA|21|07|16.2}} {{DEC|-25|28|07}} 13.7 
11053210 2008 DEN 16 6 55 47 8 0.0 0 0 0 0 0 0 0 0 0 1 2009 DEN 16 0 46 38 8 0.0 1 0 0 0 1 0 0 0 0 2 2010 DEN 11 3 24 20 4 1.0 0 0 0 0 0 0 0 0 0 0 2011 DEN 15 7 90 60 30 0.0 2 0 0 0 0 0 0 0 0 2 2012 DEN 15 14 114 70 44 5.5 1 1 12 0 3 40 13.3 25 0 6 
11063009 1975 Sweden WC &nbsp; 10 1 4 5 4 1976 Sweden WC &nbsp; 10 1 1 2 0 1976 Sweden CC &nbsp; 5 0 1 1 0 1977 Sweden WC &nbsp; 10 0 0 0 2 1978 Sweden WC &nbsp; 10 0 0 0 2 
1106375 Alabama Donald W. Stewart Democratic 1978 (Special) Incumbent lost renomination.
New senator elected.
Republican gain. √ Jeremiah Denton (Republican) 50.2%
Jim Folsom Jr. (Democratic) 47.1% Arizona Barry Goldwater Republican 1952
1958
1964 (Retired)
1968
1974 Incumbent re-elected. √ Barry Goldwater (Republican) 49.5%
Bill Schulz (Democratic) 48.4%
Fred R. Easer (Libertarian) 1.4%
Lorenzo Torrez (People Over Politics) 0.4%
Josefina Otero (Socialist Workers) 0.4% Arkansas Dale Bumpers Democratic 1974 Incumbent re-elected. √ Dale Bumpers (Democratic) 59.1%
William Clark (Republican) 40.9% Colorado Gary Hart Democratic 1974 Incumbent re-elected. √ Gary Hart (Democratic) 50.3%
Mary E. Buchanan (Republican) 48.7%
Earl Higgerson (Statesman) 0.6%
Henry John Olshaw (Unaffiliated-American) 0.4% Iowa John Culver Democratic 1974 Incumbent lost re-election.
New senator elected.
Republican gain. √ Chuck Grassley (Republican) 53.5%
John Culver (Democratic) 45.5%
Garry De Young (Independent) 0.5%
Robert V. Hengerer (Libertarian) 0.3%
John Ingram Henderson (Independent) 0.2% 
11077817 Bald Hills Wind Farm 107 Mitsui Victoria {{coord|-38.789|145.926|name=Bald Hills}} Capital Wind Farm 140 Infigen Energy New South Wales {{coord|35|10|S|149|31|E|name=Capital}} Challicum Hills Wind Farm 52.5 Pacific Hydro Victoria {{coord|37.38|S|143.11|E|region:AU-VIC_type:landmark|name=Challicum Hills}} Clements Gap Wind Farm 57 Pacific Hydro South Australia {{coord | -33.4809 | 138.0987 |region:AU-SA_type:landmark|name=Clements Gap}} Collgar Wind Farm 206 UBS Global Asset Management Western Australia {{coord|31|35|27|S|118|29|18|E|name=Collgar}} 
1113326 1962 Kenneth Kaunda Upper roll 4,519 14.79% {{Composition bar|14|45|{{United National Independence Party/meta/color}}}} {{increase}} 14 {{increase}} 2nd 1962 Kenneth Kaunda Lower roll 59,648 78.16% {{Composition bar|14|45|{{United National Independence Party/meta/color}}}} {{increase}} 14 {{increase}} 2nd 1964 Kenneth Kaunda Main roll 570,612 69.1% {{Composition bar|55|75|{{United National Independence Party/meta/color}}}} {{increase}} 41 {{increase}} 1st 1964 Kenneth Kaunda Reserved roll 6,177 35.2% {{Composition bar|55|75|{{United National Independence Party/meta/color}}}} {{increase}} 41 {{increase}} 1st 1968 Kenneth Kaunda 657,764 657,764 73.2% {{Composition bar|81|110|hex={{United National Independence Party/meta/color}}}} {{increase}} 26 {{steady}} 1st 
11152566 25 June 24 Crazy Frog "We Are the Champions (Ding a Dang Dong)" Gnarls Barkley "Crazy" 26 July 1 Crazy Frog "We Are the Champions (Ding a Dang Dong)" Gnarls Barkley "Crazy" 27 July 8 Crazy Frog "We Are the Champions (Ding a Dang Dong)" Gnarls Barkley "Crazy" 33 August 19 Tribal King "Façon Sex" Gnarls Barkley "Crazy" 34 August 26 Tribal King "Façon Sex" Bob Sinclar "Rock This Party" 
1115859 Varaztirots II 645–646 Bagratuni First presiding Prince of Armenia. Theodore 646–653 Rshtuni 1st time. Theodore 653–654 Rshtuni 2nd time. Theodore 654–655 Rshtuni 3rd time. Under his third rule, Maurianos, a Byzantine governor, was installed in Armenia. Ashot II 685–690 Bagratuni  
1116062 Spain Spain Spain League League Copa del Rey Copa del Rey Europe Europe Total Total 2000–01 Real Madrid La Liga 14 1 1 0 10 1 25 2 2001–02 Real Madrid La Liga 28 1 9 0 14 4 51 5 2002–03 Real Madrid La Liga 28 0 3 1 11 0 42 1 2003–04 Real Madrid La Liga 34 5 9 2 9 2 52 9 
11194665 2003–04 Portland Winter Hawks WHL  65 3 12 15 43  5 1 0 2004–05 Portland Winter Hawks WHL  70 5 10 15 60  7 1 2 2005–06 Portland Winter Hawks WHL  3 1 1 2 4  — — — 2005–06 Vancouver Giants WHL  19 1 8 9 37  — — — 2006–07 Vancouver Giants WHL  69 6 23 29 60  21 3 7 
11203908 2018 Glanmire 1-22 Cork Tourlestrane 3-11 Sligo 2017 Aghada 2–06 Cork Corduff 0–03 Monaghan 2016 St Maurs 2–13 Dublin Kinsale 3–08 Cork 2015 Dunboyne 1–10 Meath Bantry Blues 1–03 Cork 2014 Murroe/Boher 3–11 Limerick St. Ciaran's 1–01 Roscommon 
1120639 Furong Changsha 523,730 Tianxin Changsha 475,663 Yuelu Changsha 801,861 Kaifu Changsha 567,373 Yuhua Changsha 725,353 
1123834 Germany Germany Germany League League DFB-Pokal DFB-Pokal Other Other Europe Europe Total Total 1998–99 Hannover 96 2. Bundesliga 8 0 0 0 0 0 – – 8 0 1999–00 Hannover 96 2. Bundesliga 12 0 1 0 0 0 – – 13 0 2000–01 Hannover 96 2. Bundesliga 18 0 1 0 0 0 – – 19 0 2001–02 Hannover 96 2. Bundesliga 30 1 2 0 0 0 – – 32 1 
11241613 1st 232 {{flagicon|England}} Kim Barnett
{{flagicon|England}} John Morris v Somerset Taunton 1990 2nd 286 {{flagicon|England}} Iain Anderson
{{flagicon|England}} Alan Hill v Cornwall Derby 1986 3rd 191 {{flagicon|South Africa}} Andrew Gait
{{flagicon|England}} Chris Bassano v Glamorgan Cardiff 2003 4th 165 {{flagicon|England}} John Morris
{{flagicon|England}} Geoff Miller v Gloucestershire Gloucestershire 1984 5th 158* {{flagicon|England}} Kim Barnett
{{flagicon|South Africa}} Bruce Roberts v Essex Derby 1984 
11242691 2005 Jack Nicklaus {{USA}} Craig Stadler 2003 Lee Trevino {{USA}} Hale Irwin 2002 Hale Irwin {{USA}} Jack Nicklaus 2001 Hale Irwin {{USA}} Jack Nicklaus 1999 Hale Irwin {{USA}} Raymond Floyd 
11244397 1979 Soviet Union EJC &nbsp; 5 0 1 1 2 1980 Soviet Union EJC &nbsp; 5 0 0 0 2 1981 Soviet Union EJC &nbsp; 5 1 4 5 14 1981 Soviet Union WJC &nbsp; 5 2 0 2 2 1982 Soviet Union WJC &nbsp; 7 3 6 9 9 
11252 1937 {{Composition bar|48|138|hex={{Fine Gael/meta/color}}}} {{decrease}}11 {{steady}}2nd 461,171 34.8% Official Opposition W. T. Cosgrave 1938 {{Composition bar|45|138|hex={{Fine Gael/meta/color}}}} {{decrease}}3 {{steady}}2nd 428,633 33.3% Official Opposition W. T. Cosgrave 1943 {{Composition bar|32|138|hex={{Fine Gael/meta/color}}}} {{decrease}}12 {{steady}}2nd 307,490 23.1% Official Opposition W. T. Cosgrave 1944 {{Composition bar|30|138|hex={{Fine Gael/meta/color}}}} {{decrease}}2 {{steady}}2nd 249,329 20.5% Official Opposition Richard Mulcahy 1948 {{Composition bar|31|147|hex={{Fine Gael/meta/color}}}} {{increase}}1 {{steady}}2nd 262,393 19.8% Minority Coalition Government (FG-LP-CnP-CnT-NLP) Richard Mulcahy 
11262989 December 9, 1965 A Charlie Brown Christmas CBS September 27, 1969 It Was a Short Summer, Charlie Brown CBS March 28, 1971 Play It Again, Charlie Brown CBS November 20, 1973 A Charlie Brown Thanksgiving CBS January 28, 1975 Be My Valentine, Charlie Brown CBS 
11298540 1984–85 Kiekkoreipas Liiga &nbsp; 15 2 3 5 10 &nbsp; — — — 1988–89 Quebec Nordiques NHL &nbsp; 75 11 30 41 40 &nbsp; — — — 1989–90 Quebec Nordiques NHL &nbsp; 41 7 13 20 18 &nbsp; — — — 1989–90 Halifax Citadels AHL &nbsp; 26 4 13 17 4 &nbsp; — — — 1990–91 Halifax Citadels AHL &nbsp; 5 0 2 2 2 &nbsp; — — — 
11300700 9am with David and Kim Network Ten {{sort|2006-01-30|30 January}} Bondi Rescue Network Ten {{sort|2006-02-15|15 February}} Head 2 Head ABC TV {{sort|2006-02-18|18 February}} Mortified Nine Network {{sort|2006-06-30|30 June}} H2O: Just Add Water Network Ten {{sort|2006-07-07|7 July}} 
11306944 2001 Geelong College Carey Haileybury Scotch Geelong Grammar Xavier 6:00.13 0.65 secs 2002 Melbourne Scotch Geelong College Brighton Caulfield Wesley College 6:07.58 2.80 secs 2003 Geelong College Scotch Caulfield Carey Geelong Grammar Melbourne 6:03.99 1.96 secs 2004 Scotch Carey Haileybury Caulfield Wesley College Melbourne 6:17.70 0.78 secs 2005 Scotch Geelong Grammar Haileybury Brighton Xavier Geelong College 6:07.74 6.46 secs 
11332055 3 Ruslan Fomin Mariupol 43 196 {{#expr: 43/196 round 3}} 4 Taison Shakhtar Donetsk 40 203 {{#expr: 40/203 round 3}} 5 Artem Hromov Zorya Luhansk 39 195 {{#expr: 39/195 round 3}} 6 Viktor Tsyhankov Dynamo Kyiv 35 82 {{#expr: 35/82 round 3}} 7 Pylyp Budkivskyi Zorya Luhansk 27 102 {{#expr: 27/102 round 3}} 
11346262 1952–53 Quebec Aces QMHL &nbsp; — — — — — &nbsp; 3 0 0 1954–55 Providence Reds AHL &nbsp; 47 24 15 39 38 &nbsp; — — — 1955–56 New York Rangers NHL &nbsp; 63 5 7 12 38 &nbsp; 5 2 1 1956–57 New York Rangers NHL &nbsp; 70 9 6 15 40 &nbsp; 5 0 1 1957–58 New York Rangers NHL &nbsp; 70 10 17 27 68 &nbsp; 6 1 0 
11360240 Caught Cheating Frank R. Strayer Charles Murray, Dorothy Christy Comedy Tiffany Caught Plastered William A. Seiter Bert Wheeler, Robert Woolsey, Dorothy Lee Comedy RKO Cavalier of the West John P. McCarthy Harry Carey, Carmen Laroux, Kane Richmond Western Independent The Cheyenne Cyclone Armand Schaefer Lane Chandler, Marie Quillan, Frankie Darro Western Independent Chinatown After Dark Stuart Paton Carmel Myers, Rex Lease, Barbara Kent Crime, Drama Independent 
11360651 Rafter Romance William A. Seiter Ginger Rogers, Norman Foster, George Sidney Romantic comedy RKO Rainbow Over Broadway Richard Thorpe Joan Marsh, Frank Albertson Musical Chesterfield Rainbow Ranch Harry L. Fraser Rex Bell, Cecilia Parker Western Monogram Reform Girl Sam Newfield Noel Francis, Richard Gallagher Drama Independent The Return of Casey Jones John P. McCarthy Charles Starrett, Ruth Hall, George Walsh Action Monogram 
11363439 Allegheny Uprising William A. Seiter Claire Trevor, John Wayne, George Sanders, Brian Donlevy Western RKO The Amazing Mr. Williams Alexander Hall Melvyn Douglas, Joan Blondell, Clarence Kolb, Ruth Donnelly Comedy Columbia Andy Hardy Gets Spring Fever W. S. Van Dyke Lewis Stone, Mickey Rooney, Cecilia Parker, Fay Holden Comedy MGM The Angels Wash Their Faces Ray Enright Ann Sheridan, Ronald Reagan, Billy Halop, Bernard Punsly, Leo Gorcey Drama First National Pictures Another Thin Man W. S. Van Dyke William Powell, Myrna Loy, Virginia Grey, Otto Kruger Crime MGM 
11366193 Humpback whale
File:Humpback Whale fg1 cropped.JPG Megaptera novaeangliae
Gray, 1846 Cetacea Balaenopteridae native migrant 7Fl mammals lc.svg Blue or pygmy blue whales
File:Rug van blauwe vinvis Sri Lanka.jpg Balaenoptera musculus intermedia
Linnaeus, 1758 Cetacea Balaenoptiidae possible migrant 7Fl mammals en.svg Southern fin whale
File:Finhval (1).jpg Balaenoptera physalus quoyi
Linnaeus, 1758 Cetacea Balaenoptiidae native migrant or resident 7Fl mammals en.svg Sei whale
File:Sei whale mother and calf Christin Khan NOAA.jpg Balaenoptera borealis schlegelii
Linnaeus, 1758 Cetacea Balaenoptiidae native migrant 7Fl mammals en.svg Bryde's whale
File:Bryde´s whale.jpg Balaenoptera brydei
Linnaeus, 1758 Cetacea Balaenoptiidae native migrant or resident 7Fl mammals dd.svg 
11378297 Abingdon Berkshire England county Accrington Lancashire England county Altrincham Cheshire England county Andover Hampshire England county Anglesey Anglesey Wales county 
11393135 Half a Chance Robert Thornby Mahlon Hamilton, Lillian Rich Drama Pathe Exchange Half an Hour Harley Knoles Dorothy Dalton, Charles Richman Drama Paramount The Harvest Moon J. Searle Dawley Doris Kenyon, Wilfred Lytell Drama Pathe Exchange The Hell Ship Scott R. Dunlap Madlaine Traverse, Alan Roscoe Drama Fox Film Her Elephant Man Scott R. Dunlap Shirley Mason, Alan Roscoe Drama Fox Film 
1140106 Scuderia Centro Sud Cooper-Maserati T51 Maserati 250S 2.5 L4 {{Dunlop}} Carlos Menditeguy 1 Scuderia Centro Sud Cooper-Maserati T51 Maserati 250S 2.5 L4 {{Dunlop}} Masten Gregory 2, 4, 6–8 Scuderia Centro Sud Cooper-Maserati T51 Maserati 250S 2.5 L4 {{Dunlop}} Ian Burgess 2, 6–7, 10 Scuderia Centro Sud Cooper-Maserati T51 Maserati 250S 2.5 L4 {{Dunlop}} Maurice Trintignant 2, 4, 6, 10 Scuderia Centro Sud Cooper-Maserati T51 Maserati 250S 2.5 L4 {{Dunlop}} Wolfgang von Trips 10 
11415045 2005–06 Calgary Hitmen WHL  59 22 21 43 47  — — — 2006–07 Calgary Hitmen WHL  52 21 29 50 50  — — — 2010–11 Chicago Wolves AHL  67 11 21 32 46  — — — 2012–13 HC Donbass KHL  47 7 6 13 41  — — — 2013–14 HC Donbass KHL  5 0 0 0 2  — — — 
11432855 July 7, 2007 Parkstadion, Zell am Ziller WSG Wattens 1–0 F Meier eintracht-archiv.de July 20, 2007 Zoo-Stadion, Wuppertal Wuppertaler SV Borussia 1–0 F Amanatidis eintracht-archiv.de August 11, 2007 Commerzbank-Arena, Frankfurt Hertha BSC Berlin 1–0 BL Amanatidis ESPN August 26, 2007 Commerzbank-Arena, Frankfurt FC Hansa Rostock 1–0 BL Meier ESPN September 1, 2007 Weserstadion, Bremen SV Werder Bremen 1–2 BL Thurk ESPN 
1145979 1982 Didier Pironi Ferrari Report 1981 Alain Prost Renault Report 1977 Niki Lauda Ferrari Report 1974 Niki Lauda Ferrari Report 1971 Jacky Ickx Ferrari Report 
11464599 Abanyom Bakor     Abanyom, Abanyum Befun, Bofon, Mbofon  12,500 (1986) Cross River State, Ikom LGA, main village Abangkang Efutop Bakor  Ofutop   Agbaragba   8,740 (1953), 10,000 (1973 SIL) Cross River State, Ikom LGA Ekajuk Bakor  Akajuk      more than 10,000 (Crabb 1965); 30,000 (1986 Asinya) Cross River State, Ogoja LGA, Bansara, Nwang, Ntara 1,2 and 3, and Ebanibim towns Nde Bakor      Ekamtulufu, Mbenkpe, Udom, Mbofon, Befon  4,000 (1953); est. 12,000 (Asinya 1987)  Nsele Bakor  Nselle      1,000 (1953); est. 3,000 (Asinya 1987)  
11485423 Alagoinhas Bahia 139,723 Alvorada Rio Grande do Sul 195,718 Aracaju Sergipe 641,523 Arapiraca Alagoas 232,671 Barbacena Minas Gerais 132,980 
11533780 2019 Alex de Minaur Andreas Seppi 7–5, 7–6(7–5) 2018 Daniil Medvedev Alex de Minaur 1–6, 6–4, 7–5 2015 Viktor Troicki Mikhail Kukushkin 6–2, 6–3 2012 Jarkko Nieminen Julien Benneteau 6–2, 7–5 2011 Gilles Simon Viktor Troicki 7–5, 7–6(7–4) 
11536 1969 {{Composition bar|75|144|hex={{Fianna Fáil/meta/color}}}} {{increase}}3 {{steady}}1st 602,234 45.7% Majority gov't Jack Lynch 1973 {{Composition bar|69|144|hex={{Fianna Fáil/meta/color}}}} {{decrease}}6 {{steady}}1st 624,528 46.2% Opposition Jack Lynch 1977 {{Composition bar|84|148|hex={{Fianna Fáil/meta/color}}}} {{increase}}15 {{steady}}1st 811,615 50.6% Majority gov't Jack Lynch 1981 {{Composition bar|78|166|hex={{Fianna Fáil/meta/color}}}} {{decrease}}6 {{steady}}1st 777,616 45.3% Opposition Charles Haughey 1982 (Feb) {{Composition bar|81|166|hex={{Fianna Fáil/meta/color}}}} {{increase}}3 {{steady}}1st 786,951 47.3% Minority gov't (supported by SFTWP and Ind) Charles Haughey 
11548367 1992–93 Prince Albert Raiders WHL  72 12 20 32 66  — — — 1993–94 Prince Albert Raiders WHL  63 23 26 49 70  — — — 1994–95 Prince Albert Raiders WHL  71 43 50 93 67  12 3 4 1995–96 Hershey Bears AHL  61 7 15 22 35  — — — 1996–97 Philadelphia Phantoms AHL  64 21 19 40 56  10 4 1 
11560483 Monuments of Oviedo and the Kingdom of the Asturias Santa Maria del Naranco Oviedo Asturias {{sort|1985|312; 1985, 1998 (extended); i, ii, iv}} {{sort|009|9th century}} The Kingdom of Asturias remained the only Christian region of Spain in the 9th century. It developed its own style of Pre-Romanesque art and architecture that is displayed in various churches and other monuments. The original entry titled "Churches of the Kingdom of the Asturias" and was extended to include other monuments such as La Foncalada. Alhambra, Generalife and Albayzín Alhambra Granada Andalusia {{sort|1984|314; 1984, 1994 (extended); i, iii, iv}} {{sort|014|14th century}} The three sites are remnants of the Moorish influence in southern Spain. The fortress Alhambra and the palace Generalife were built by the rulers of the Emirate of Granada. The Albayzín district contains examples of the Moorish vernacular architecture and was added to the listing in 1994. Monastery and Site of the Escorial El Escorial San Lorenzo de El Escorial Madrid {{sort|1984|318; 1984; i, ii, vi}} {{sort|016|16th century}} El Escorial is one of several Spanish royal sites due to its history as a residence of the royal family. The palace was designed by King Philip II and architect Juan Bautista de Toledo to serve as a monument to Spain's central role in the Christian world. Garajonay National Park Garajonay National Park La Gomera Canary Islands {{sort|1986|380; 1986; vii, ix}} {{sort|999|N/A}} The park is 70% covered by laurisilva or laurel forest, vegetation from the Paleogene period that disappeared from mainland Europe due to climate change, but had covered much of the southern continent. La Lonja de la Seda de Valencia La Lonja Valencia Valencian Community {{sort|1996|782; 1996; i, iv}} {{sort|015|15th and 16th centuries}} La Lonja (or Llotja in Valencian language) de la Seda means Silk Exchange in English, and the group of Gothic buildings demonstrate the wealth of Valencia as an important Mediterranean and European mercantile city in the period. 
11566181 2000 Eminem International Breakthrough Act {{Nominated}} 2000 Eminem International Male Solo Artist {{Nominated}} 2001 Eminem International Male Solo Artist {{Won}} 2003 Eminem International Male Solo Artist {{Won}} 2003 The Eminem Show International Album {{Won}} 
11571997 1983–84 IF Troja/Ljungby SWE II &nbsp; 11 2 2 4 12 &nbsp; — — — 1984–85 IF Troja/Ljungby SWE II &nbsp; 30 1 6 7 20 &nbsp; 9 0 4 1985–86 IF Troja/Ljungby SWE II &nbsp; 32 5 16 21 42 &nbsp; — — — 1989–90 Calgary Flames NHL &nbsp; 35 0 5 5 48 &nbsp; — — — 1990–91 Calgary Flames NHL &nbsp; 38 4 13 17 47 &nbsp; — — — 
11574571 1954 Bad Saarow Ursula Höroldt 1958 Schkopau Waltraud Schameitat 1961 Premnitz Waltraud Schameitat 1962 Gera Waltraud Schameitat 1963 Aschersleben Waltraud Nowarra 
11715404 Saddle Leather Law Benjamin H. Kline Charles Starrett, Dub Taylor Western Columbia The San Antonio Kid Howard Bretherton Wild Bill Elliott, Linda Stirling Western Republic San Diego, I Love You Reginald Le Borg Jon Hall, Louise Allbritton Comedy Universal Secret Command A. Edward Sutherland Pat O'Brien, Carole Landis, Chester Morris Drama Columbia Sensations of 1945 Andrew Stone Eleanor Powell, Dennis O'Keefe, W. C. Fields, Sophie Tucker, Cab Callaway, Woody Herman Musical comedy United Artists 
11760718 Chief of Police Johor Police Chief Deputy Commissioner of Police DCP Dato' Mohamad Kamarudin bin Md. Din 14 July 2019  Chief of Police Kedah Police Chief Commissioner of Police CP Dato' Zainuddin bin Yaacob 8 April 2019  Chief of Police Kelantan Police Chief Deputy Commissioner of Police DCP Dato' Hasanuddin bin Hassan 15 June 2017  Chief of Police Malacca Police Chief Deputy Commissioner of Police DCP Datuk Wira Raja Shahrom bin Raja Abdullah 31 July 2018  Chief of Police Negeri Sembilan Police Chief Deputy Commissioner of Police DCP Dato' Mohamad bin Mat Yusop 22 July 2019  
11801286 Glen Rovers 1999-00 0 0-00 — — — — Glen Rovers 2000-01 2 0-01 — — — — Glen Rovers 2001-02 2 0-01 — — — — Glen Rovers 2002-03 2 0-02 — — — — Glen Rovers 2003-04 2 0-01 — — — — 
11825322 Manly-Warringah Sea Eagles NSWRFL Winners of the 1973 New South Wales Rugby Football League Premiership 1st Cronulla-Sutherland Sharks NSWRFL Runners-Up in the 1973 New South Wales Rugby Football League Premiership 1st Newtown Jets NSWRFL Third Place in the 1973 New South Wales Rugby Football League Premiership 1st St. George Dragons NSWRFL Fourth Place in the 1973 New South Wales Rugby Football League Premiership 1st Canterbury-Bankstown Berries NSWRFL Fifth Place in the 1973 New South Wales Rugby Football League Premiership 1st 
11825661 Eastern Suburbs Roosters NSWRFL Winners of the 1974 New South Wales Rugby Football League Premiership 2nd {{small|(Previous: [[1974 Amco Cup|1974]])}} Fortitude Valley Diehards BRL Winners of the 1974 Brisbane Rugby League Premiership 1st Auckland Falcons NZRL Winners of the 1974 New Zealand Rugby League Inter-District Premiership 2nd {{small|(Previous: [[1974 Amco Cup|1974]])}} Canterbury-Bankstown Berries NSWRFL Runners-Up in the 1974 New South Wales Rugby Football League Premiership 2nd {{small|(Previous: [[1974 Amco Cup|1974]])}} Western Suburbs Magpies NSWRFL Third Place in the 1974 New South Wales Rugby Football League Premiership 2nd {{small|(Previous: [[1974 Amco Cup|1974]])}} 
1183872 1966 Un monde nouveau Vittorio De Sica  1966 The Gardener of Argenteuil Jean-Paul Le Chanois  1967 If I Were a Spy Bertrand Blier Composed with Serge Gainsbourg 1968 Every Bastard a King Uri Zohar  1970 Colossus: The Forbin Project Joseph Sargent First American film 
11843389 30/03/77 Brothers 16 Wynnum-Manly 15 Lang Park 30/03/77 St George 22 Balmain 12 Leichhardt Oval 30/03/77 Toowoomba 31 North Queensland 13 Athletic Oval 6/04/77 Cronulla-Sutherland 75 Central Queensland 3 Leichhardt Oval 6/04/77 Redcliffe 19 Wests BRL 10 Lang Park 
11845738 Manly-Warringah Sea Eagles NSWRFL Winners of the 1978 New South Wales Rugby Football League Premiership 6th {{small|(Previous: [[1974 Amco Cup|1974]], [[1975 Amco Cup|1975]], [[1976 Amco Cup|1976]], [[1977 Amco Cup|1977]], [[1978 Amco Cup|1978]])}} Cronulla-Sutherland Sharks NSWRFL Runners-Up in the 1978 New South Wales Rugby Football League Premiership 6th {{small|(Previous: [[1974 Amco Cup|1974]], [[1975 Amco Cup|1975]], [[1976 Amco Cup|1976]], [[1977 Amco Cup|1977]], [[1978 Amco Cup|1978]])}} Western Suburbs Magpies NSWRFL Third Place in the 1978 New South Wales Rugby Football League Premiership 6th {{small|(Previous: [[1974 Amco Cup|1974]], [[1975 Amco Cup|1975]], [[1976 Amco Cup|1976]], '''[[1977 Amco Cup|1977]]''', [[1978 Amco Cup|1978]])}} Parramatta Eels NSWRFL Fourth Place in the 1978 New South Wales Rugby Football League Premiership 6th {{small|(Previous: [[1974 Amco Cup|1974]], [[1975 Amco Cup|1975]], [[1976 Amco Cup|1976]], [[1977 Amco Cup|1977]], [[1978 Amco Cup|1978]])}} Canterbury-Bankstown Bulldogs NSWRFL Fifth Place in the 1978 New South Wales Rugby Football League Premiership 6th {{small|(Previous: [[1974 Amco Cup|1974]], [[1975 Amco Cup|1975]], [[1976 Amco Cup|1976]], [[1977 Amco Cup|1977]], [[1978 Amco Cup|1978]])}} 
11859162 St. George Dragons NSWRFL Winners of the 1979 New South Wales Rugby Football League Premiership 7th {{small|(Previous: [[1974 Amco Cup|1974]], [[1975 Amco Cup|1975]], [[1976 Amco Cup|1976]], [[1977 Amco Cup|1977]], [[1978 Amco Cup|1978]], [[1979 Amco Cup|1979]])}} Canterbury-Bankstown Bulldogs NSWRFL Runners-Up in the 1979 New South Wales Rugby Football League Premiership 7th {{small|(Previous: [[1974 Amco Cup|1974]], [[1975 Amco Cup|1975]], [[1976 Amco Cup|1976]], [[1977 Amco Cup|1977]], [[1978 Amco Cup|1978]], [[1979 Amco Cup|1979]])}} Parramatta Eels NSWRFL Third Place in the 1979 New South Wales Rugby Football League Premiership 7th {{small|(Previous: [[1974 Amco Cup|1974]], [[1975 Amco Cup|1975]], [[1976 Amco Cup|1976]], [[1977 Amco Cup|1977]], [[1978 Amco Cup|1978]], [[1979 Amco Cup|1979]])}} Cronulla-Sutherland Sharks NSWRFL Fourth Place in the 1979 New South Wales Rugby Football League Premiership 7th {{small|(Previous: [[1974 Amco Cup|1974]], [[1975 Amco Cup|1975]], [[1976 Amco Cup|1976]], [[1977 Amco Cup|1977]], [[1978 Amco Cup|1978]], '''[[1979 Amco Cup|1979]]''')}} Western Suburbs Magpies NSWRFL Fifth Place in the 1979 New South Wales Rugby Football League Premiership 7th {{small|(Previous: [[1974 Amco Cup|1974]], [[1975 Amco Cup|1975]], [[1976 Amco Cup|1976]], '''[[1977 Amco Cup|1977]]''', [[1978 Amco Cup|1978]], [[1979 Amco Cup|1979]])}} 
11917368 1991–92 Celje Slovan Jadran 1992–93 Celje Jadran Prevent 1993–94 Celje Gorenje Jadran 1994–95 Celje Jadran Gorenje 1996–97 Celje Prevent Prule 67 
11964379 33 1/2 Golden State Warriors 99–121 Dallas Mavericks NA Stephen Jackson 20,172 19–14 34 1/4 New Orleans Hornets 116–104 Golden State Warriors NA Baron Davis 19,596 19–15 35 1/7 San Antonio Spurs 130–121 Golden State Warriors 1 Baron Davis 19,107 20–15 36 1/9 Golden State Warriors 91–109 Portland Trail Blazers NA Matt Barnes 20,415 20–16 37 1/11 Memphis Grizzlies 104–116 Golden State Warriors NA Monta Ellis 19,224 21–16 
11968106 Parramatta Eels NSWRFL Winners of the 1982 New South Wales Rugby Football League Premiership 10th {{small|(Previous: [[1974 Amco Cup|1974]], [[1975 Amco Cup|1975]], [[1976 Amco Cup|1976]], [[1977 Amco Cup|1977]], [[1978 Amco Cup|1978]], [[1979 Amco Cup|1979]], '''[[1980 Tooth Cup|1980]]''', [[1981 Tooth Cup|1981]], [[1982 KB Cup|1982]])}} Manly-Warringah Sea Eagles NSWRFL Runners-Up in the 1982 New South Wales Rugby Football League Premiership 10th {{small|(Previous: [[1974 Amco Cup|1974]], [[1975 Amco Cup|1975]], [[1976 Amco Cup|1976]], [[1977 Amco Cup|1977]], [[1978 Amco Cup|1978]], [[1979 Amco Cup|1979]], [[1980 Tooth Cup|1980]], [[1981 Tooth Cup|1981]], '''[[1982 KB Cup|1982]]''')}} Eastern Suburbs Roosters NSWRFL Third Place in the 1982 New South Wales Rugby Football League Premiership 10th {{small|(Previous: [[1974 Amco Cup|1974]], '''[[1975 Amco Cup|1975]]''', [[1976 Amco Cup|1976]], [[1977 Amco Cup|1977]], '''[[1978 Amco Cup|1978]]''', [[1979 Amco Cup|1979]], [[1980 Tooth Cup|1980]], [[1981 Tooth Cup|1981]], [[1982 KB Cup|1982]])}} North Sydney Bears NSWRFL Fourth Place in the 1982 New South Wales Rugby Football League Premiership 10th {{small|(Previous: [[1974 Amco Cup|1974]], [[1975 Amco Cup|1975]], [[1976 Amco Cup|1976]], [[1977 Amco Cup|1977]], [[1978 Amco Cup|1978]], [[1979 Amco Cup|1979]], [[1980 Tooth Cup|1980]], [[1981 Tooth Cup|1981]], [[1982 KB Cup|1982]])}} Western Suburbs Magpies NSWRFL Fifth Place in the 1982 New South Wales Rugby Football League Premiership 10th {{small|(Previous: [[1974 Amco Cup|1974]], [[1975 Amco Cup|1975]], [[1976 Amco Cup|1976]], '''[[1977 Amco Cup|1977]]''', [[1978 Amco Cup|1978]], [[1979 Amco Cup|1979]], [[1980 Tooth Cup|1980]], [[1981 Tooth Cup|1981]], [[1982 KB Cup|1982]])}} 
11969316 First Minister  The Rt Hon. Jack McConnell MSP 2001–2003 Labour Party Minister for Education and Young People  Cathy Jamieson MSP 2001–2003 Labour Party Minister for Social Justice  Iain Gray MSP 2001–2002 Labour Party Minister for Social Justice  Margaret Curran MSP 2002–2003 Labour Party Minister for Enterprise, Transport and Lifelong Learning  Wendy Alexander MSP 2001–2002 Labour Party 
11969407 First Minister  The Rt Hon. Jack McConnell MSP 2003–2007 Labour Minister for Communities  Margaret Curran MSP 2003–2004 Labour Minister for Communities  Malcolm Chisholm MSP 2004–2006 Labour Minister for Communities  Rhona Brankin MSP 2006–2007 Labour Minister for Education and Young People  Peter Peacock MSP 2003–2006 Labour 
11970615 Parramatta Eels NSWRL Winners of the 1983 New South Wales Rugby League Premiership 11th {{small|(Previous: [[1974 Amco Cup|1974]], [[1975 Amco Cup|1975]], [[1976 Amco Cup|1976]], [[1977 Amco Cup|1977]], [[1978 Amco Cup|1978]], [[1979 Amco Cup|1979]], '''[[1980 Tooth Cup|1980]]''', [[1981 Tooth Cup|1981]], [[1982 KB Cup|1982]], [[1983 KB Cup|1983]])}} Manly-Warringah Sea Eagles NSWRL Runners-Up in the 1983 New South Wales Rugby League Premiership 11th {{small|(Previous: [[1974 Amco Cup|1974]], [[1975 Amco Cup|1975]], [[1976 Amco Cup|1976]], [[1977 Amco Cup|1977]], [[1978 Amco Cup|1978]], [[1979 Amco Cup|1979]], [[1980 Tooth Cup|1980]], [[1981 Tooth Cup|1981]], '''[[1982 KB Cup|1982]]''', '''[[1983 KB Cup|1983]]''')}} Canterbury-Bankstown Bulldogs NSWRL Third Place in the 1983 New South Wales Rugby League Premiership 11th {{small|(Previous: [[1974 Amco Cup|1974]], [[1975 Amco Cup|1975]], [[1976 Amco Cup|1976]], [[1977 Amco Cup|1977]], [[1978 Amco Cup|1978]], [[1979 Amco Cup|1979]], [[1980 Tooth Cup|1980]], [[1981 Tooth Cup|1981]], [[1982 KB Cup|1982]], [[1983 KB Cup|1983]])}} St. George Dragons NSWRL Fourth Place in the 1983 New South Wales Rugby League Premiership 11th {{small|(Previous: [[1974 Amco Cup|1974]], [[1975 Amco Cup|1975]], [[1976 Amco Cup|1976]], [[1977 Amco Cup|1977]], [[1978 Amco Cup|1978]], [[1979 Amco Cup|1979]], [[1980 Tooth Cup|1980]], [[1981 Tooth Cup|1981]], [[1982 KB Cup|1982]], [[1983 KB Cup|1983]])}} Balmain Tigers NSWRL Fifth Place in the 1983 New South Wales Rugby League Premiership 11th {{small|(Previous: [[1974 Amco Cup|1974]], [[1975 Amco Cup|1975]], '''[[1976 Amco Cup|1976]]''', [[1977 Amco Cup|1977]], [[1978 Amco Cup|1978]], [[1979 Amco Cup|1979]], [[1980 Tooth Cup|1980]], [[1981 Tooth Cup|1981]], [[1982 KB Cup|1982]], [[1983 KB Cup|1983]])}} 
11974100 1941 Claro M. Recto Nacionalista Lost 1957 presidential election 24 Nacionalistas   1949 Quintin Paredes Liberal  8 Liberals   1953 Fernando Lopez Democratic Won 1965 vice presidential election  5 Nacionalistas 2 Democrats
1 Citizens' 1955 Pacita Madrigal-Warns Nacionalista  9 Nacionalistas   1957 Gil Puyat Nacionalista  6 Nacionalistas 2 Liberals  
11981249 1974–75 Modo AIK SWE &nbsp; 26 15 17 32 16 &nbsp; 2 2 2 1975–76 Modo AIK SEL &nbsp; 35 16 19 35 43 &nbsp; — — — 1976–77 Modo AIK SEL &nbsp; 33 17 21 38 30 &nbsp; 4 3 2 1984–85 Minnesota North Stars NHL &nbsp; 33 6 9 15 8 &nbsp; 2 0 0 1984–85 Springfield Indians AHL &nbsp; 3 1 2 3 0 &nbsp; — — — 
11987093 Canterbury-Bankstown Bulldogs NSWRL Winners of the 1984 New South Wales Rugby League Premiership 12th {{small|(Previous: [[1974 Amco Cup|1974]], [[1975 Amco Cup|1975]], [[1976 Amco Cup|1976]], [[1977 Amco Cup|1977]], [[1978 Amco Cup|1978]], [[1979 Amco Cup|1979]], [[1980 Tooth Cup|1980]], [[1981 Tooth Cup|1981]], [[1982 KB Cup|1982]], [[1983 KB Cup|1983]], [[1984 National Panasonic Cup|1984]])}} Parramatta Eels NSWRL Runners-Up in the 1984 New South Wales Rugby League Premiership 12th {{small|(Previous: [[1974 Amco Cup|1974]], [[1975 Amco Cup|1975]], [[1976 Amco Cup|1976]], [[1977 Amco Cup|1977]], [[1978 Amco Cup|1978]], [[1979 Amco Cup|1979]], '''[[1980 Tooth Cup|1980]]''', [[1981 Tooth Cup|1981]], [[1982 KB Cup|1982]], [[1983 KB Cup|1983]], [[1984 National Panasonic Cup|1984]])}} St. George Dragons NSWRL Third Place in the 1984 New South Wales Rugby League Premiership 12th {{small|(Previous: [[1974 Amco Cup|1974]], [[1975 Amco Cup|1975]], [[1976 Amco Cup|1976]], [[1977 Amco Cup|1977]], [[1978 Amco Cup|1978]], [[1979 Amco Cup|1979]], [[1980 Tooth Cup|1980]], [[1981 Tooth Cup|1981]], [[1982 KB Cup|1982]], [[1983 KB Cup|1983]], [[1984 National Panasonic Cup|1984]])}} South Sydney Rabbitohs NSWRL Fourth Place in the 1984 New South Wales Rugby League Premiership 12th {{small|(Previous: [[1974 Amco Cup|1974]], [[1975 Amco Cup|1975]], [[1976 Amco Cup|1976]], [[1977 Amco Cup|1977]], [[1978 Amco Cup|1978]], [[1979 Amco Cup|1979]], [[1980 Tooth Cup|1980]], '''[[1981 Tooth Cup|1981]]''', [[1982 KB Cup|1982]], [[1983 KB Cup|1983]], [[1984 National Panasonic Cup|1984]])}} Manly-Warringah Sea Eagles NSWRL Fifth Place in the 1984 New South Wales Rugby League Premiership 12th {{small|(Previous: [[1974 Amco Cup|1974]], [[1975 Amco Cup|1975]], [[1976 Amco Cup|1976]], [[1977 Amco Cup|1977]], [[1978 Amco Cup|1978]], [[1979 Amco Cup|1979]], [[1980 Tooth Cup|1980]], [[1981 Tooth Cup|1981]], '''[[1982 KB Cup|1982]]''', '''[[1983 KB Cup|1983]]''', [[1984 National Panasonic Cup|1984]])}} 
12032545 TSG 1899 Hoffenheim 4–2 FC Augsburg (AET) SC Verl 0–3 TSV 1860 Munich 1. FC Magdeburg 1–4 Borussia Dortmund SpVgg Unterhaching 0–3 Hertha BSC SV Sandhausen 0–4 Kickers Offenbach 
12040155 Kashiwa Reysol 2003 18 2 0 0 2 0 - - 20 Kashiwa Reysol 2004 2 0 1 0 1 0 - - 4 Kashiwa Reysol 2005 19 2 2 0 1 0 2 0 24 Albirex Niigata 2006 33 6 2 1 6 1 - - 41 Albirex Niigata 2007 33 7 1 0 6 1 - - 40 
12060674 Canterbury-Bankstown Bulldogs NSWRL Winners of the 1985 New South Wales Rugby League Premiership 13th {{small|(Previous: [[1974 Amco Cup|1974]], [[1975 Amco Cup|1975]], [[1976 Amco Cup|1976]], [[1977 Amco Cup|1977]], [[1978 Amco Cup|1978]], [[1979 Amco Cup|1979]], [[1980 Tooth Cup|1980]], [[1981 Tooth Cup|1981]], [[1982 KB Cup|1982]], [[1983 KB Cup|1983]], [[1984 National Panasonic Cup|1984]], [[1985 National Panasonic Cup|1985]])}} St. George Dragons NSWRL Runners-Up in the 1985 New South Wales Rugby League Premiership 13th {{small|(Previous: [[1974 Amco Cup|1974]], [[1975 Amco Cup|1975]], [[1976 Amco Cup|1976]], [[1977 Amco Cup|1977]], [[1978 Amco Cup|1978]], [[1979 Amco Cup|1979]], [[1980 Tooth Cup|1980]], [[1981 Tooth Cup|1981]], [[1982 KB Cup|1982]], [[1983 KB Cup|1983]], [[1984 National Panasonic Cup|1984]], [[1985 National Panasonic Cup|1985]])}} Parramatta Eels NSWRL Third Place in the 1985 New South Wales Rugby League Premiership 13th {{small|(Previous: [[1974 Amco Cup|1974]], [[1975 Amco Cup|1975]], [[1976 Amco Cup|1976]], [[1977 Amco Cup|1977]], [[1978 Amco Cup|1978]], [[1979 Amco Cup|1979]], '''[[1980 Tooth Cup|1980]]''', [[1981 Tooth Cup|1981]], [[1982 KB Cup|1982]], [[1983 KB Cup|1983]], [[1984 National Panasonic Cup|1984]], [[1985 National Panasonic Cup|1985]])}} Balmain Tigers NSWRL Fourth Place in the 1985 New South Wales Rugby League Premiership 13th {{small|(Previous: [[1974 Amco Cup|1974]], [[1975 Amco Cup|1975]], '''[[1976 Amco Cup|1976]]''', [[1977 Amco Cup|1977]], [[1978 Amco Cup|1978]], [[1979 Amco Cup|1979]], [[1980 Tooth Cup|1980]], [[1981 Tooth Cup|1981]], [[1982 KB Cup|1982]], [[1983 KB Cup|1983]], [[1984 National Panasonic Cup|1984]], '''[[1985 National Panasonic Cup|1985]]''')}} Penrith Panthers NSWRL Fifth Place in the 1985 New South Wales Rugby League Premiership 
12060980 Christian Henry Pozer Liberal Beauce Louis Sylvestre Liberal Berthier Adolphe Gagnon Liberal Charlevoix Pierre-Alexis Tremblay Liberal Chicoutimi et Saguenay Wilfrid Laurier Liberal Drummond et Arthabaska 
12081428 Saskatoon Sheiks Western Hockey League 1925–26 0 Saskatoon Sheiks Prairie Hockey League 1926–28 0 Saskatoon Junior Quakers Saskatchewan Junior Hockey League   Saskatoon Quakers Western Canada Senior Hockey League 1947–51 1 (1950-51) Saskatoon Quakers Pacific Coast Hockey League 1951–52 1 (1951-52) 
12112609 Parramatta Eels NSWRL Winners of the 1986 New South Wales Rugby League Premiership 14th {{small|(Previous: [[1974 Amco Cup|1974]], [[1975 Amco Cup|1975]], [[1976 Amco Cup|1976]], [[1977 Amco Cup|1977]], [[1978 Amco Cup|1978]], [[1979 Amco Cup|1979]], '''[[1980 Tooth Cup|1980]]''', [[1981 Tooth Cup|1981]], [[1982 KB Cup|1982]], [[1983 KB Cup|1983]], [[1984 National Panasonic Cup|1984]], [[1985 National Panasonic Cup|1985]], '''[[1986 National Panasonic Cup|1986]]''')}} Canterbury-Bankstown Bulldogs NSWRL Runners-Up in the 1986 New South Wales Rugby League Premiership 14th {{small|(Previous: [[1974 Amco Cup|1974]], [[1975 Amco Cup|1975]], [[1976 Amco Cup|1976]], [[1977 Amco Cup|1977]], [[1978 Amco Cup|1978]], [[1979 Amco Cup|1979]], [[1980 Tooth Cup|1980]], [[1981 Tooth Cup|1981]], [[1982 KB Cup|1982]], [[1983 KB Cup|1983]], [[1984 National Panasonic Cup|1984]], [[1985 National Panasonic Cup|1985]], [[1986 National Panasonic Cup|1986]])}} Balmain Tigers NSWRL Third Place in the 1986 New South Wales Rugby League Premiership 14th {{small|(Previous: [[1974 Amco Cup|1974]], [[1975 Amco Cup|1975]], '''[[1976 Amco Cup|1976]]''', [[1977 Amco Cup|1977]], [[1978 Amco Cup|1978]], [[1979 Amco Cup|1979]], [[1980 Tooth Cup|1980]], [[1981 Tooth Cup|1981]], [[1982 KB Cup|1982]], [[1983 KB Cup|1983]], [[1984 National Panasonic Cup|1984]], '''[[1985 National Panasonic Cup|1985]]''', [[1986 National Panasonic Cup|1986]])}} South Sydney Rabbitohs NSWRL Fourth Place in the 1986 New South Wales Rugby League Premiership 14th {{small|(Previous: [[1974 Amco Cup|1974]], [[1975 Amco Cup|1975]], [[1976 Amco Cup|1976]], [[1977 Amco Cup|1977]], [[1978 Amco Cup|1978]], [[1979 Amco Cup|1979]], [[1980 Tooth Cup|1980]], '''[[1981 Tooth Cup|1981]]''', [[1982 KB Cup|1982]], [[1983 KB Cup|1983]], [[1984 National Panasonic Cup|1984]], [[1985 National Panasonic Cup|1985]], [[1986 National Panasonic Cup|1986]])}} Manly-Warringah Sea Eagles NSWRL Fifth Place in the 1986 New South Wales Rugby League Premiership 
12179111 Canterbury-Bankstown Bulldogs NSWRL Winners of the 1988 New South Wales Rugby League Premiership 16th {{small|(Previous: [[1974 Amco Cup|1974]], [[1975 Amco Cup|1975]], [[1976 Amco Cup|1976]], [[1977 Amco Cup|1977]], [[1978 Amco Cup|1978]], [[1979 Amco Cup|1979]], [[1980 Tooth Cup|1980]], [[1981 Tooth Cup|1981]], [[1982 KB Cup|1982]], [[1983 KB Cup|1983]], [[1984 National Panasonic Cup|1984]], [[1985 National Panasonic Cup|1985]], [[1986 National Panasonic Cup|1986]], [[1987 National Panasonic Cup|1987]], [[1988 Panasonic Cup|1988]])}} Balmain Tigers NSWRL Runners-Up in the 1988 New South Wales Rugby League Premiership 16th {{small|(Previous: [[1974 Amco Cup|1974]], [[1975 Amco Cup|1975]], '''[[1976 Amco Cup|1976]]''', [[1977 Amco Cup|1977]], [[1978 Amco Cup|1978]], [[1979 Amco Cup|1979]], [[1980 Tooth Cup|1980]], [[1981 Tooth Cup|1981]], [[1982 KB Cup|1982]], [[1983 KB Cup|1983]], [[1984 National Panasonic Cup|1984]], '''[[1985 National Panasonic Cup|1985]]''', [[1986 National Panasonic Cup|1986]], '''[[1987 National Panasonic Cup|1987]]''', [[1988 Panasonic Cup|1988]])}} Cronulla-Sutherland Sharks NSWRL Third Place in the 1988 New South Wales Rugby League Premiership 16th {{small|(Previous: [[1974 Amco Cup|1974]], [[1975 Amco Cup|1975]], [[1976 Amco Cup|1976]], [[1977 Amco Cup|1977]], [[1978 Amco Cup|1978]], '''[[1979 Amco Cup|1979]]''', [[1980 Tooth Cup|1980]], [[1981 Tooth Cup|1981]], [[1982 KB Cup|1982]], [[1983 KB Cup|1983]], [[1984 National Panasonic Cup|1984]], [[1985 National Panasonic Cup|1985]], [[1986 National Panasonic Cup|1986]], [[1987 National Panasonic Cup|1987]], [[1988 Panasonic Cup|1988]])}} Canberra Raiders NSWRL Fourth Place in the 1988 New South Wales Rugby League Premiership 8th {{small|(Previous: [[1982 KB Cup|1982]], [[1983 KB Cup|1983]], [[1984 National Panasonic Cup|1984]], [[1985 National Panasonic Cup|1985]], [[1986 National Panasonic Cup|1986]], [[1987 National Panasonic Cup|1987]], [[1988 Panasonic Cup|1988]])}} Manly-Warringah Sea Eagles NSWRL 
12212087 Ahititi School 1–8 Ahititi State 5 {{NZ school roll data|2150|y}} — 2150 Central School 1–6 New Plymouth State 8 {{NZ school roll data|2160|y}} — 2160 Coastal Taranaki School {{sort|1–F|1–15}} Okato State 7 {{NZ school roll data|551|y}} — 551 Devon Intermediate 7–8 Lynmouth State 4 {{NZ school roll data|2161|y}}  2161 Egmont Village School 1–8 Egmont Village State 9 {{NZ school roll data|2164|y}} — 2164 
12214488 Aotea College 253 9–13 Coed Porirua State 1978 {{NZ school roll data|253|y}}   Bishop Viard College 256 7–13 Coed Porirua Integrated 1968 {{NZ school roll data|256|y}}  Catholic Chanel College 244 7–13 Coed Masterton Integrated 1978 {{NZ school roll data|244|y}}  Catholic Heretaunga College 251 9–13 Coed Upper Hutt State 1954 {{NZ school roll data|251|y}}   Kapiti College 247 9–13 Coed Raumati Beach State 1957 {{NZ school roll data|247|y}}   
1222904 {{F1|1957}} Stirling Moss Formula One Vanwall VW5 XXV Circuito di Pescara {{F1|1950}} Juan Manuel Fangio Formula One Alfa Romeo 158 XIX Circuito di Pescara 1939 Clemente Biondetti Voiturette Alfa Romeo 158 XV Coppa Acerbo 1938 Rudolf Caracciola Grand Prix Mercedes-Benz W154 XIV Coppa Acerbo 1935 Achille Varzi Grand Prix Auto Union B Typ. XI Coppa Acerbo 
12240050 1982 Waltz Across Texas Ernest Day  1985 The Sure Thing Rob Reiner  1985 Moving Violations Neal Israel  1985 Desert Hearts Donna Deitch  1988 Return of the Living Dead Part II Ken Wiederhorn  
1224330 {{hs|K035}}35 {{hs|K035}}35 Die Schuldigkeit des ersten Gebots {{hs|ymd:1767--}}1767 11 Salzburg {{hs|K038}}38 {{hs|K038}}38 Apollo et Hyacinthus {{hs|ymd:1767-05-13}}13 May 1767 11 Salzburg {{hs|K051}}51 {{hs|K046a}}46a La finta semplice {{hs|ymd:1769-05-01}}1 May 1769 13 Vienna {{hs|K050}}50 {{hs|K046b}}46b Bastien und Bastienne {{hs|ymd:1768-09-}}September – October 1768 12 Vienna {{hs|K126}}126 {{hs|K126}}126 Il sogno di Scipione {{hs|ymd:1772-05-}}May 1772 16 Salzburg 
12272590 1994–95 SpVgg Unterhaching Stuttgarter Kickers 1995–96 Stuttgarter Kickers VfR Mannheim 1997–98 SSV Ulm 1846 Kickers Offenbach 1998–99 SV Waldhof Mannheim Kickers Offenbach 1999–2000 SSV Reutlingen SC Pfullendorf 
12300697 Awahono School - Grey Valley 1–8 Ahaura State 4 {{NZ school roll data|2105|y}} — 2105 Barrytown School 1–8 Barrytown State 4 {{NZ school roll data|3290|y}} — 3290 Blaketown School 1–8 Blaketown State 2 {{NZ school roll data|3295|y}} — 3295 Cobden School 1–8 Cobden State 2 {{NZ school roll data|3322|y}} — 3322 Gloriavale Christian Community School {{sort|1–D|1–13}} Haupiri Private n/a {{NZ school roll data|1587|y}} — 1587 
123462 1945 John Bracken 203 {{Composition bar|64|245|hex={{Canadian party colour|CA|PC}}}} {{increase}} 27 {{steady}}2nd 1,448,744 27.62% {{no2|Opposition}} Liberal minority 1949 George A. Drew 249 {{Composition bar|41|262|hex={{Canadian party colour|CA|PC}}}} {{decrease}} 23 {{steady}} 2nd 1,734,261 29.62% {{no2|Opposition}} Liberal majority 1953 George A. Drew 248 {{Composition bar|50|265|hex={{Canadian party colour|CA|PC}}}} {{increase}} 9 {{steady}} 2nd 1,749,579 31.01% {{no2|Opposition}} Liberal majority 1957 John Diefenbaker 256 {{Composition bar|109|265|hex={{Canadian party colour|CA|PC}}}} {{increase}} 59 {{increase}} 1st 2,564,732 38.81% {{yes2|Minority}} Progressive Conservative minority 1958 John Diefenbaker 265 {{Composition bar|208|265|hex={{Canadian party colour|CA|PC}}}} {{increase}} 99 {{steady}} 1st 3,908,633 53.56% {{yes2|Majority}} Progressive Conservative majority 
1235937 1997 Team TMS Porsche 911 GT2 GT500 SUZ
{{small|13}} FUJ
{{small|7}} SEN
{{small|13}} FUJ
{{small|13}} MIN SUG
{{small|DNQ}}    25th 4 2000 Toyota Team SARD Toyota GT500 MOT
{{small|10}} FUJ
{{small|Ret}} SUG
{{small|6}} FUJ
{{small|2}} TAI
{{small|Ret}} MIN
{{small|8}} SUZ
{{small|16}}   12th 25 2002 Nakajima Racing Honda NSX GT500 TAI
{{small|1}} FUJ
{{small|11}} SUG
{{small|Ret}} SEP
{{small|1}} FUJ
{{small|12}} MOT
{{small|14}} MIN
{{small|6}} SUZ
{{small|1}}  2nd 74 2005 Autobacs Racing Team Aguri Honda NSX GT500 OKA
{{small|4}} FUJ
{{small|12}} SEP
{{small|2}} SUG
{{small|6}} MOT
{{small|16}} FUJ
{{small|8}} AUT
{{small|1}} SUZ
{{small|12}}  2nd 61 2006 Autobacs Racing Team Aguri Honda NSX GT500 SUZ
{{small|3}} OKA
{{small|7}} FUJ
{{small|8}} SEP
{{small|1}} SUG
{{small|8}} SUZ
{{small|6}} MOT
{{small|15}} AUT
{{small|11}} FUJ
{{small|14}} 7th 68 
1236606 1999–2000 Vancouver Canucks NHL  8 0 1 1 6  — — — 1999–2000 Syracuse Crunch AHL  65 26 32 58 164  4 3 1 2000–01 Vancouver Canucks NHL  21 3 3 6 32  4 0 1 2001–02 Vancouver Canucks NHL  49 2 7 9 74  1 0 0 2002–03 Vancouver Canucks NHL  36 2 2 4 66  13 0 2 
12375029 7 February 15 Massive Attack 100th Window 15 April 12 Florent Pagny Ailleurs land 18 May 3 Florent Pagny Ailleurs land 19 May 10 Florent Pagny Ailleurs land 20 May 17 Florent Pagny Ailleurs land 
12392655 1 Stanislav Timchenko Miki Ando {{flagicon|CHN}} Zhang Dan / Zhang Hao {{flagicon|RUS}} Elena Romanovskaya / Alexander Grachev 2 Andrei Griazev Irina Tkatchuk {{flagicon|CAN}} Clara Montgomery / Ryan Arnold {{flagicon|RUS}} Elena Khaliavina / Maxim Shabalin 3 Daisuke Takahashi Akiko Suzuki {{flagicon|RUS}} Julia Karbovskaya / Sergei Slavnov {{flagicon|UKR}} Julia Golovina / Oleg Voiko 4 Kevin van der Perren Ludmila Nelidina {{flagicon|RUS}} Julia Shapiro / Dmitri Khromin {{flagicon|RUS}} Oksana Domnina / Maxim Bolotine 5 Shawn Sawyer Tatiana Basova {{flagicon|RUS}} Maria Mukhortova / Pavel Lebedev {{flagicon|GER}} Miriam Steinel / Vladimir Tsvetkov 
12392757 1 Yasuharu Nanri Mao Asada {{flagicon|RUS}} Maria Mukhortova / Maxim Trankov {{flagicon|ITA}} Anna Cappellini / Matteo Zanni 2 Alexander Uspenski Kim Yuna {{flagicon|RUS}} Arina Ushakova / Alexander Popov {{flagicon|USA}} Morgan Matthews / Maxim Zavozin 3 Dennis Phan Nana Takeda {{flagicon|USA}} Mariel Miller / Rockne Brubaker {{flagicon|RUS}} Anastasia Platonova / Andrei Maximishin 4 Christopher Mabee Kimmie Meissner {{flagicon|CAN}} Jessica Dubé / Bryce Davison {{flagicon|CAN}} Tessa Virtue / Scott Moir 5 Jamal Othman Akiko Kitamura {{flagicon|USA}} Julia Vlassov / Drew Meekins {{flagicon|RUS}} Natalia Mikhailova / Arkadi Sergeev 
12394513 88.9 XHLDO Radio Tamaulipas Public Radio Nuevo Laredo tamaulipas.gob [mms://200.23.59.10/radiotam listen live] 91.3 XHNOE Stereo 91 Spanish Contemporary Nuevo Laredo xhnoe.com listen live 94.1 XHTLN Imagen / RMX Laredo Talk / Contemporary Nuevo Laredo rmx.com.mx listen live 95.7 XHBK Mega 95.7 Spanish Contemporary Nuevo Laredo radioavanzado.com listen live 97.1 XHNLO La Caliente Norteño Nuevo Laredo mmradio.com listen live 
1241234 4 November, 2003 Belfast Northern Ireland Odyssey Arena 5 November, 2003 Dublin Ireland Point Theatre 8 November, 2003 Birmingham England NEC Arena 9 November, 2003 Birmingham England NEC Arena 10 November, 2003 Bournemouth England Bournemouth International Centre 
12422331 2009 MIA 14 1 23 19 4 5.5 1 0 0 0 0.0 0 1 0 0 2010 MIA 16 16 57 48 9 14.0 4 0 0 0 0.0 0 3 0 0 2011 MIA 16 14 42 37 5 8.5 3 0 0 0 0.0 0 0 0 0 2012 MIA 16 16 53 38 15 15.0 1 0 0 0 0.0 0 3 0 0 2013 MIA 15 15 42 37 5 8.5 0 0 0 0 0.0 0 2 1 0 
1243653 1993 13 March 1993 Kvitfjell, Norway Downhill 2nd 1995 9 December 1994 Lake Louise, Canada Downhill 1st 1995 11 December 1994 Lake Louise, Canada Super G 3rd 1995 14 January 1995 Garmisch, Germany Super G 2nd 1995 20 January 1995 Cortina d'Ampezzo, Italy Downhill 2nd 
12437601 2012 Maalaala Mo Kaya: Bangka Ricky ABS-CBN Supporting Role 2012 Luv U Einstein ABS-CBN Supporting Role 2011 Maalaala Mo Kaya: Langis Gary ABS-CBN Supporting Role 2011 Wansapanataym: Joy's Toys Bok ABS-CBN Supporting Role 2011 Maalaala Mo Kaya: Palengke James ABS-CBN Supporting Role 
12460918 UD Las Palmas 1–0 Real Sociedad Universidad L.P. 0–1 Alicante CF CD Alcoyano 2–0 UB Conquense UD Puertollano 2–1 CF Badalona Pontevedra CF 1–0 FC Cartagena 
12474465 12 27 March Axelle Red Toujours Moi 37 18 September Johnny Hallyday Sang pour sang 38 25 September Johnny Hallyday Sang pour sang 39 2 October Johnny Hallyday Sang pour sang 41 16 October Johnny Hallyday Sang pour sang 
12494758 1993 Group stage {{fbu|17|CHN}} 2–2 D Hiroshima Neira {{goal|62}}, Rozental {{goal|67}} 1993 Group stage {{fbu|17|TUN|1959}} 2–0 W Hiroshima Tapia {{goal|4}}, Neira {{goal|48}} 1993 Group stage {{fbu|17|POL}} 3–3 D Hiroshima Osorio {{goal|38}}, Rozental {{goal|61|pen.}}, Neira {{goal|67}} 1993 Quarter-finals {{fbu|17|TCH}} 4–1 W Kyoto Rozental {{goal|11|pen.}}, Tapia {{goal|31}}, Neira {{goal|65||66}} 1993 Semi-finals {{fbu|17|GHA}} 0–3 L Tokyo {{sort dash}} 
12565851 1 5 {{flagicon|AUS}} Glenn Seton
{{flagicon|NZL}} Steven Richards Glenn Seton Racing Ford AU Falcon 2:09.6770 2 00 {{flagicon|AUS}} Craig Lowndes
{{flagicon|AUS}} Neil Crompton Gibson Motor Sport Ford AU Falcon 2:09.8533 3 1 {{flagicon|AUS}} Mark Skaife
{{flagicon|AUS}} Tony Longhurst Holden Racing Team Holden VX Commodore 2:09.9621 4 2 {{flagicon|AUS}} Jason Bright
{{flagicon|AUS}} Tomas Mezera Holden Racing Team Holden VX Commodore 2:10.2285 5 600 {{flagicon|AUS}} John Bowe
{{flagicon|NZL}} Simon Wills Briggs Motor Sport Ford AU Falcon 2:10.2441 
12566191 2003–04 Hannover 96 FC Bayern Munich VfL Bochum 2004–05 Hertha BSC Berlin VfB Stuttgart VfL Bochum 2005–06 Hertha BSC Berlin SC Freiburg FC Schalke 04 2006–07 Werder Bremen FC Bayern Munich Bayer Leverkusen 2008–09 Werder Bremen SC Freiburg Borussia Dortmund 
1257003 Asparagus officinalis Asparagus Several species including Asparagus officinalis and Asparagus densiflorus. Though asparagus plants cultivated for food are typically harvested before they reach reproductive maturity, the berries of the mature plant are poisonous, containing furostanol and spirostanol saponins. Rapid ingestion of more than five to seven ripe berries can induce abdominal pain and vomiting. Sulfur compounds in the young shoots are also considered at least partially responsible for mild skin reactions in some people who handle the plant. File:Aceera Nederlandse asperge wit groen paars 363 2416.jpg Citrus limon Lemon Most citrus fruits, including lemon, lime, and orange, among others, are known to contain aromatic oils and compounds of Psoralen, which is toxic to dogs, cats, and other animals. The acid is found all over the entire plant. Symptoms include vomiting, diarrhea, depression, and photosensitivity. File:Lemon, Lime and Orange.jpg Malus domestica Apple The seeds are mildly poisonous, containing a small amount of amygdalin, a cyanogenic glycoside. The quantity contained in the seeds of a single apple is usually not enough to be dangerous to humans, but it is possible to ingest enough seeds to provide a fatal dose. File:Apple seeds - variety Prinzenapfel (aka).jpg Mangifera indica Mango tree Mango leaves, stems, peels, and sap contain urushiol, an allergen also present in poison ivy, poison oak, and poison sumac that can cause urushiol-induced contact dermatitis in susceptible people. Cross-reactions between mango contact allergens and urushiol have been observed. Those with a history of poison ivy or poison oak contact dermatitis may be most at risk for such an allergic reaction. During mango's primary ripening season, it is the most common source of plant dermatitis in Hawaii. File:Mango tree (22708493).jpg Manihot esculenta Cassava 
1257534 Spain Spain Spain League League Copa del Rey Copa del Rey Europe Europe Total Total 1996–97 Valencia La Liga 32 3 2 0 6 2 40 5 1997–98 Valencia La Liga 32 12 5 0 - - 37 12 1998–99 Valencia La Liga 32 21 6 9 4 0 42 30 1999–00 Valencia La Liga 34 11 2 0 18 6 54 17 
12585292 Netherlands Netherlands Netherlands League League KNVB Cup KNVB Cup Europe Europe Other2 Other2 Total Total 2007–08 Roda JC Kerkrade Eredivisie 1 0 0 0 - - 0 0 1 0 2008–09 Roda JC Kerkrade Eredivisie 0 0 0 0 - - 0 0 0 0 2009–10 Roda JC Kerkrade Eredivisie 16 0 0 0 - - 4 0 20 0 2010–11 Roda JC Kerkrade Eredivisie 27 0 3 0 - - - - 30 0 
12607539 G Penny Hardaway Orlando Magic 2nd 1,050,461 G Michael Jordan Chicago Bulls 10th 1,341,422 F Grant Hill Detroit Pistons 2nd 1,358,004 F Scottie Pippen Chicago Bulls 6th 1,289,649 F Vin Baker Milwaukee Bucks 2nd 259,279 
1266254 2003 DAL 15 7 35 347 9.9 36T 1 0 0 2004 DAL 16 15 87 980 11.3 42T 6 2 1 2005 DAL 16 16 66 757 11.5 34 6 0 0 2006 DAL 16 15 64 754 11.8 42 1 0 0 2007 DAL 16 16 96 1,145 11.9 53 7 1 1 
12749606 2000 Sean Hayes Will & Grace Jack McFarland 2000 John Mahoney Frasier Martin Crane 2001 Kelsey Grammer Frasier Dr. Frasier Crane 2001 Eric McCormack Will & Grace Will Truman 2002 Matt LeBlanc Friends Joey Tribbiani 
1276076 Blairstown Railway  NYSW 1876 1883 New York, Susquehanna and Western Railroad Camden and Amboy Railroad and Transportation Company  PRR 1830 1872 United New Jersey Railroad and Canal Company Delaware and Bound Brook Railroad  RDG 1874 1976 Consolidated Rail Corporation Dover and Rockaway Railroad  CNJ 1880 1976 Consolidated Rail Corporation Edgewater and Fort Lee Railroad  NYSW 1901 1907 Erie Terminals Railroad 
1276293 1947–1949 80th U.S. Senate Republican Harry S. Truman  class 1 1949–1951 81st U.S. Senate Democratic Harry S. Truman  class 1 1951–1953 82nd U.S. Senate Democratic Harry S. Truman  class 1 1953–1955 83rd U.S. Senate Republican Dwight D. Eisenhower  class 1 1955–1957 84th U.S. Senate Democratic Dwight D. Eisenhower  class 1 
12782783 Queens Park Rangers Iain Dowie Contract terminated 24 October 2008 Paulo Sousa 19 November 2008 9th Watford Aidy Boothroyd Mutual consent 3 November 2008 Brendan Rodgers 24 November 2008 21st Charlton Athletic Alan Pardew Mutual Consent 22 November 2008 Phil Parkinson 31 December 2008 22nd Blackpool Simon Grayson Signed by Leeds United (Mutual Consent) 23 December 2008 Ian Holloway 21 May 2009 16th Nottingham Forest Colin Calderwood Contract terminated 26 December 2008 Billy Davies 1 January 2009 22nd 
1279040 1990–91 Mora IK SWE-2 &nbsp; 9 1 1 2 6 &nbsp; 1 0 0 1991–92 AIK SEL &nbsp; 39 4 4 8 28 &nbsp; 3 0 2 1992–93 AIK SEL &nbsp; 22 0 1 1 16 &nbsp;    1993–94 Binghamton Rangers AHL &nbsp; 55 1 9 10 70 &nbsp;    1993–94 New York Rangers NHL &nbsp; 9 0 1 1 6 &nbsp;    
12823712 1 12 June 2005 Cusack Park, Ennis Clare 0–5 0–18 : 0–6 W Munster SFC semi-final 2 10 July 2005 Páirc Uí Chaoimh, Cork Kerry 0–3 0–11 : 1–11 L Munster SFC final 3 30 July 2005 O'Moore Park, Portlaoise Sligo 1–1 3–13 : 0–11 W All-Ireland SFC Qualifiers R4 4 7 August 2005 Croke Park, Dublin Galway 0–3 2–14 : 2–11 W All-Ireland SFC quarter-final 5 28 August 2005 Croke Park, Dublin Kerry 0–2 0–9 : 1–19 L All-Ireland SFC semi-final 
1283335 1996 TB 16 96 377 3.9 39 3 21 2 1 1997 TB 15 176 665 3.8 47 7 34 4 3 1998 TB 16 215 846 3.9 37 8 49 4 4 1999 TB 16 242 949 3.9 30 7 47 6 6 2000 TB 13 131 465 3.6 20 5 37 3 2 
12850223 1981 Boardman, Ohio Central 4–0 Richmond, Virginia South 1982 Tampa, Florida South 6–1 Libertyville, Illinois Central 1984 Pearl City, Hawaii West 7–5 Yabucoa, Puerto Rico Puerto Rico 1985 Tampa, Florida South 10–3 Salisbury, Maryland East 1986 Waldorf, Maryland East 4–3 Athens County, Ohio Central 
12856973 2000 Ghost Dog: The Way of the Samurai Artisan Entertainment Jim Jarmusch 2000 Requiem for a Dream Artisan Entertainment Darren Aronofsky 2001 Things Behind the Sun Showtime Networks Allison Anders 2001 Waking Life Fox Searchlight Richard Linklater 2002 Far from Heaven Focus Features Todd Haynes 
12940990 1980 Sue Cogswell Martine Le Moignan 9–7, 9-4, 9-1 1982 Alison Cumings Martine Le Moignan 7-9, 9-4, 7-9, 9-2, 9-4 1983 Lisa Opie Martine Le Moignan 10-9, 9-1, 9-4 1984 Martine Le Moignan Alison Cumings 9–1, 9-2, 9-0 1985 Lucy Soutter Heather Wallace 9–7, 9-5, 9-0 
13004730 Grenoble 2006–07 Ligue 2 3 0 0 0 0 0 — — 3 0 Grenoble 2007–08 Ligue 2 26 3 1 0 0 0 — — 27 3 Grenoble 2008–09 Ligue 2 26 0 2 0 0 0 — — 28 0 Grenoble 2009–10 Ligue 1 5 0 0 0 1 0 — — 6 0 Valencia 2010–11 La Liga 3 0 1 1 — — 1 0 5 1 
13026799 3 Sep 23, 1962 Portland Open Invitational −19 (64-69-67-69=269) 1 stroke George Bayer 4 Feb 4, 1963 Palm Springs Golf Classic −13 (69-66-67-71-72=345) Playoff Gary Player 5 Apr 7, 1963 Masters Tournament −2 (74-66-74-72=286) 1 stroke Tony Lema 7 Jul 21, 1963 PGA Championship −5 (69-73-69-68=279) 2 strokes Dave Ragan 11 Jul 5, 1964 Whitemarsh Open Invitational −12 (69-70-70-67=276) 1 stroke Gary Player 
13050003 Stephon Marbury Point guard 1996 1 4 Milwaukee Bucks 1995 USA Mike Bibby Point guard 1998 1 2 Vancouver Grizzlies 1996 USA Ryan Robertson Shooting guard 1999 2 45 Sacramento Kings 1995 USA Erick Barkley Point guard 2000 1 28 Portland Trail Blazers 1998 USA Omar Cook Point guard 2001 2 31 Orlando Magic 2000 USA 
1305075 Connecticut Prescott S. Bush Republican 1952 {{Small|(Special)}} Incumbent re-elected. {{Plainlist | * '''{{Aye}} [[Prescott S. Bush]]''' (Republican) 54.8% * [[Thomas J. Dodd]] (Democratic) 43.1%}} Florida George A. Smathers Democratic 1950 Incumbent re-elected. {{Plainlist | * '''{{Aye}} [[George A. Smathers]]''' (Democratic) * Unopposed}} Idaho Herman Welker Republican 1950 Incumbent lost re-election.
New senator elected.
Democratic gain. {{Plainlist | * '''{{Aye}} [[Frank Church]]''' (Democratic) 56.2% * [[Herman Welker]] (Republican) 38.7%}} Illinois Everett M. Dirksen Republican 1950 Incumbent re-elected. {{Plainlist | * '''{{Aye}} [[Everett M. Dirksen]]''' (Republican) 54.1% * [[W. Richard Stengel]] (Democratic) 45.7%}} Maryland John M. Butler Republican 1950 Incumbent re-elected. {{Plainlist | * '''{{Aye}} [[John Marshall Butler|John M. Butler]]''' (Republican) 53.0% * [[George P. Mahoney]] (Democratic) 47.0%}} 
13128758 KDAC 1230 AM Fort Bragg, California KDAE 1590 AM Sinton, Texas KDAK 1600 AM Carrington, North Dakota KDAV 1590 AM Lubbock, Texas KDAZ 730 AM Albuquerque, New Mexico 
1313008 Minnesota Edward John Thye Republican 1946 Incumbent re-elected. {{Plainlist | * '''{{Aye}} [[Edward John Thye]]''' (Republican) 56.6% * [[William E. Carlson]] (Democratic) 42.5%}} Mississippi John C. Stennis Democratic 1947 {{Small|(Special)}} Incumbent re-elected. {{Plainlist | * '''{{Aye}} [[John C. Stennis]]''' (Democratic) * Unopposed}} Missouri James P. Kem Republican 1946 Incumbent lost re-election.
New senator elected.
Democratic gain. {{Plainlist | * '''{{Aye}} [[Stuart Symington]]''' (Democratic) 54.0% * [[James P. Kem]] (Republican) 45.9%}} Montana Zales N. Ecton Republican 1946 Incumbent lost re-election.
New senator elected.
Democratic gain. {{Plainlist | * '''{{Aye}} [[Mike Mansfield]]''' (Democratic) 50.8% * [[Zales N. Ecton]] (Republican) 48.6%}} Nevada George W. Malone Republican 1946 Incumbent re-elected. {{Plainlist | * '''{{Aye}} [[George W. Malone]]''' (Republican) 51.7% * [[Thomas B. Mechling]] (Democratic) 48.3%}} 
1314374 Arizona Ernest W. McFarland Democratic 1940 Incumbent re-elected. {{Aye}} Ernest W. McFarland (Democratic) 69.2%
Ward S. Powers (Republican) 30.1% Delaware James M. Tunnell Democratic 1940 Incumbent lost re-election.
New senator elected.
Republican gain. {{Aye}} John J. Williams (Republican) 55.2%
James M. Tunnell (Democratic) 44.9% Indiana Raymond E. Willis Republican 1940 Incumbent retired.
New senator elected.
Republican hold. {{Aye}} William E. Jenner (Republican) 52.4%
M. Clifford Townsend (Democratic) 46.8% Maine Owen Brewster Republican 1940 Incumbent re-elected. {{Aye}} Owen Brewster (Republican) 63.6%
Peter M. MacDonald (Democratic) 36.5% Nebraska Hugh Butler Republican 1940 Incumbent re-elected. {{Aye}} Hugh Butler (Republican) 70.8%
John E. Mekota (Democratic) 29.2% 
1314894 California William G. McAdoo Democratic 1932 Incumbent lost renomination.
New senator elected.
Democratic hold.
Incumbent then resigned and Thomas M. Storke (D) was appointed to finish the term. √ Sheridan Downey (Democratic) 54.4%
Philip Bancroft (Republican) 44.7%
Lillain Symes Clements (Socialist) 0.9% Connecticut Augustine Lonergan Democratic 1932 Incumbent lost re-election.
New senator elected.
Republican gain. √ John A. Danaher (Republican) 42.9%
Augustine Lonergan (Democratic) 40.0%
Bellani Trombley (Socialist) 15.8% Florida Claude Pepper Democratic 1936 {{Small|(Special)}} Incumbent re-elected. √ Claude Pepper (Democratic) 82.5%
Thomas E. Swanson (Republican) 17.6% Idaho James P. Pope Democratic 1932 Incumbent lost renomination.
New senator elected.
Democratic hold. √ D. Worth Clark (Democratic) 54.7%
Donald A. Callahan (Republican) 44.9% Indiana Frederick Van Nuys Democratic 1932 Incumbent re-elected. √ Frederick Van Nuys (Democratic) 49.8%
Raymond E. Willis (Republican) 49.5%
Herman L. Seeger (Prohibition) 0.4%
Louis E. Roebuck (Socialist) 0.1%
Miles Blansett (Communist) 0.1% 
1319269 Indiana Arthur Raymond Robinson Republican 1926 {{Small|(Special)}} Incumbent re-elected. √ Arthur Raymond Robinson (Republican) 55.3%
Albert Stump (Democratic) 44.1% Maryland William Cabell Bruce Democratic 1922 Incumbent lost re-election.
New senator elected.
Republican gain. √ Phillips Lee Goldsborough (Republican) 54.1%
William Cabell Bruce (Democratic) 45.2% Massachusetts David I. Walsh Democratic 1926 {{Small|(Special)}} Incumbent re-elected. √ David I. Walsh (Democratic) 53.6%
Benjamin Loring Young (Republican) 45.5% Minnesota Henrik Shipstead Farmer–Labor 1922 Incumbent re-elected. √ Henrik Shipstead (Farmer–Labor) 65.4%
Arthur E. Nelson (Republican) 33.7% Mississippi Hubert D. Stephens Democratic 1922 Incumbent re-elected. √ Hubert D. Stephens (Democratic) Unopposed 
13228142 1998 British Comedy Awards The Royle Family Best New TV Comedy Won 1999 BAFTA TV Award The Royle Family Best Comedy (Programme or Series) Nominated 1999 British Comedy Awards The Royle Family Best TV Sitcom Won 1999 RTS Television Award The Royle Family Best Situation Comedy/Comedy Drama Nominated 2000 BAFTA TV Award The Royle Family Situation Comedy Award Won 
1324467 2000–01 Jokerit SM-l  4 3 1 0 — 190 6 0 1.90 .937  — — — — — — 2001–02 Jokerit SM-l  23 13 5 2 — 1242 37 4 1.79 .941  11 8 2 623 18 3 2002–03 Jokerit SM-l  45 23 14 6 — 2634 87 5 1.98 .928  10 6 4 626 17 2 2003–04 Chicago Wolves AHL  39 20 14 2 — 2192 88 3 2.41 .926  10 6 4 663 23 1 2003–04 Atlanta Thrashers NHL  4 4 0 0 — 239 5 1 1.25 .953  — — — — — — 
13326751 1948 Hasu, HeikkiHeikki Hasu Nordic skiing 1 1949 Heino, ViljoViljo Heino Track and field 1 1950 Hasu, HeikkiHeikki Hasu Nordic skiing 2 1951 Karvonen, VeikkoVeikko Karvonen Track and field 1 1952 Hakulinen, VeikkoVeikko Hakulinen Nordic skiing 1 
1335320 1974 Denver Racquets Philadelphia Freedoms 55–45 1975 Pittsburgh Triangles San Francisco Golden Gaters 74–65 1976 New York Sets San Francisco Golden Gaters 91–57 2012 Washington Kastles Sacramento Capitals 20–19 2013 Washington Kastles Springfield Lasers 25–12 
13375275 10 December 1972 Hannover 96 1 – 0 Eintracht Frankfurt 20 December 1972 Eintracht Frankfurt 4 – 2 Hannover 96 10 December 1972 VfL Wolfsburg 2 – 2 VfB Stuttgart 20 December 1972 VfB Stuttgart 3 – 2 VfL Wolfsburg 10 December 1972 OSV Hannover 0 – 6 Hertha BSC 
1341586 {{ushr|California|1|X}} Douglas H. Bosco Democratic 1982 Incumbent re-elected. {{Plainlist | * '''{{Aye}} [[Douglas H. Bosco]]''' (Democratic) 67.5% * Floyd G. Sampson (Republican) 26.6% * Elden McFarland ([[Peace and Freedom Party|Peace and Freedom]]) 5.9%}} {{ushr|California|2|X}} Eugene A. Chappie Republican 1980 Incumbent retired.
New member elected.
Republican hold. {{Plainlist | * '''{{Aye}} [[Wally Herger]]''' (Republican) 58.3% * Stephen C. "Steve" Swendiman (Democratic) 39.6% * Harry Hugh "Doc" Pendery ([[Libertarian Party (United States)|Libertarian]]) 2.2%}} {{ushr|California|3|X}} Bob Matsui Democratic 1978 Incumbent re-elected. {{Plainlist | * '''{{Aye}} [[Bob Matsui]]''' (Democratic) 75.9% * Lowell Patrick Landowski (Republican) 24.1%}} {{ushr|California|4|X}} Victor H. Fazio Democratic 1978 Incumbent re-elected. {{Plainlist | * '''{{Aye}} [[Victor H. Fazio]]''' (Democratic) 70.2% * Jack D. Hite (Republican) 29.8%}} {{ushr|California|6|X}} Barbara Boxer Democratic 1982 Incumbent re-elected. {{Plainlist | * '''{{Aye}} [[Barbara Boxer]]''' (Democratic) 73.9% * Franklin "Harry" Ernst III (Republican) 26.1%}} 
1341690 {{ushr|New York|1|X}} Otis G. Pike Democratic 1960 Incumbent re-elected. √ Otis G. Pike (Democratic) 65.0%
Donald R. Sallah (Republican) 28.6%
Seth Morgan (Conservative) 6.4% {{ushr|New York|3|X}} Angelo D. Roncallo Republican 1972 Incumbent lost re-election.
New member elected.
Democratic gain. √ Jerome Ambro (Democratic) 51.8%
Angelo D. Roncallo (Republican) 46.1%
Arthur Hoffer (Liberal) 2.2% {{ushr|New York|4|X}} Norman F. Lent Republican 1970 Incumbent re-elected. √ Norman F. Lent (Republican) 56.3%
Franklin Ornstein (Democratic) 43.7% {{ushr|New York|5|X}} John W. Wydler Republican 1962 Incumbent re-elected. √ John W. Wydler (Republican) 57.1%
Allard K. Lowenstein (Democratic) 42.9% {{ushr|New York|6|X}} Lester L. Wolff Democratic 1964 Incumbent re-elected. √ Lester L. Wolff (Democratic) 61.0%
Edythe Layne (Republican) 39.0% 
1341707 {{ushr|California|2|X}} Harold T. Johnson Democratic 1958 Incumbent re-elected. √ Harold T. Johnson (Democratic) 68.3%
Francis X. Callahan (Republican) 28.6%
Dorothy D. Paradis (American) 3.1% {{ushr|California|3|X}} John E. Moss Democratic 1952 Incumbent re-elected. √ John E. Moss (Democratic) 69.9%
John Rakus (Republican) 30.1% {{ushr|California|4|X}} Robert L. Leggett Democratic 1962 Incumbent re-elected. √ Robert L. Leggett (Democratic) 67.4%
Benjamin Chang (Republican) 32.6% {{ushr|California|5|X}} Phillip Burton Democratic 1964 Incumbent re-elected. √ Phillip Burton (Democratic) 81.8%
Edlo E. Powell (Republican) 18.2% {{ushr|California|6|X}} William S. Mailliard Republican 1952 Incumbent re-elected. √ William S. Mailliard (Republican) 52.0%
Roger Boas (Democratic) 48.0% 
1341718 {{ushr|New York|1|X}} Otis G. Pike Democratic 1960 Incumbent re-elected. {{Plainlist | * '''{{Aye}} [[Otis G. Pike]]''' (Democratic) 52.2% * Malcolm E. Smith Jr. (Republican) 47.8%}} {{ushr|New York|3|X}} Lester L. Wolff Democratic 1964 Incumbent re-elected. {{Plainlist | * '''{{Aye}} [[Lester L. Wolff]]''' (Democratic) 54.4% * Raymond J. Rice (Republican) 38.1% * Lola Camardi ([[Conservative Party of New York|Conservative]]) 7.4%}} {{ushr|New York|4|X}} John W. Wydler Republican 1962 Incumbent re-elected. {{Plainlist | * '''{{Aye}} [[John W. Wydler]]''' (Republican) 57.0% * Karen S. Burstein (Democratic) 35.1% * Donald A. Derham ([[Conservative Party of New York|Conservative]]) 7.9%}} {{ushr|New York|5|X}} Allard K. Lowenstein Democratic 1968 Incumbent lost re-election.
New member elected.
Republican gain. {{Plainlist | * '''{{Aye}} [[Norman F. Lent]]''' (Republican) 51.0% * Allard K. Lowenstein (Democratic) 46.1% * Vincent J. Carey (Right to Life) 2.9%}} {{ushr|New York|6|X}} Seymour Halpern Republican 1958 Incumbent re-elected. {{Plainlist | * '''{{Aye}} [[Seymour Halpern]]''' (Republican) 77.3% * John J. Flynn ([[Conservative Party of New York|Conservative]]) 22.7%}} 
1341843 {{ushr|New York|1|X}} Otis G. Pike Democratic 1960 Incumbent re-elected. {{Plainlist | * '''{{Aye}} [[Otis G. Pike]]''' (Democratic) 58.9% * James M. Catterson Jr. (Republican) 33.7% * Domenico Crachi Jr. (Conservative) 7.4%}} {{ushr|New York|3|X}} Lester L. Wolff Democratic 1964 Incumbent re-elected. {{Plainlist | * '''{{Aye}} [[Lester L. Wolff]]''' (Democratic) 50.3% * [[Steven Boghos Derounian]] (Republican) 49.7%}} {{ushr|New York|4|X}} John W. Wydler Republican 1962 Incumbent re-elected. {{Plainlist | * '''{{Aye}} [[John W. Wydler]]''' (Republican) 59.7% * Martin Steadman (Democratic) 32.0% * Donald H. Serrell (Conservative) 6.9% * Bernard Kagel (Peace) 1.4%}} {{ushr|New York|5|X}} Herbert Tenzer Democratic 1964 Incumbent re-elected. {{Plainlist | * '''{{Aye}} [[Herbert Tenzer]]''' (Democratic) 49.9% * Thomas Brennan (Republican) 48.6% * Carleton M. Fisher (Peace) 1.5%}} {{ushr|New York|6|X}} Seymour Halpern Republican 1958 Incumbent re-elected. {{Plainlist | * '''{{Aye}} [[Seymour Halpern]]''' (Republican) 59.0% * Gilbert T. Redleaf (Democratic) 29.4% * Ronald E. Weiss (Conservative) 11.5%}} 
1342331 {{ushr|New York|1|X}} Robert L. Bacon Republican 1922 Incumbent re-elected. {{Plainlist | * '''√ [[Robert L. Bacon]]''' (Republican) 56.0% * Gerald Morrell (Democratic) 41.4% * Eric E. De Marsh ([[Socialist Party of America|Socialist]]) 2.4% * August Henkel ([[Communist Party USA|Communist]]) 0.2%}} {{ushr|New York|2|X}} William F. Brunner Democratic 1928 Incumbent re-elected. {{Plainlist | * '''√ [[William F. Brunner]]''' (Democratic) 69.6% * Thomas J. Styles (Republican) 23.9% * Samuel A. DeWitt ([[Socialist Party of America|Socialist]]) 3.2% * Mark Jackson (Independent) 2.3% * Paul P. Crosbie (Independent) 1.0%}} {{ushr|New York|3|X}} George W. Lindsay Democratic 1922 Incumbent lost renomination.
New member elected.
Democratic hold. {{Plainlist | * '''√ [[Joseph L. Pfeifer]]''' (Democratic) 72.7% * Alex Pisciotta (Republican) 22.3% * Joseph A. Weil ([[Socialist Party of America|Socialist]]) 3.3% * Dominick Flaiani (Independent) 1.7%}} {{ushr|New York|4|X}} Thomas H. Cullen Democratic 1918 Incumbent re-elected. {{Plainlist | * '''√ [[Thomas H. Cullen]]''' (Democratic) 74.5% * Charles E. Miller (Republican) 22.3% * David M. Cory ([[Socialist Party of America|Socialist]]) 2.5% * Joe Roberts (Independent) 0.8%}} {{ushr|New York|6|X}} Andrew Lawrence Somers Democratic 1924 Incumbent re-elected. {{Plainlist | * '''√ [[Andrew Lawrence Somers]]''' (Democratic) 60.9% * Donald C. Strachan (Republican) 26.6% * Jacob Axelrad ([[Socialist Party of America|Socialist]]) 9.0% * Robert Alfred Campbell (Independent) 3.5%}} 
1346118 {{ushr|Pennsylvania|2|X}} George S. Graham Republican 1912 Incumbent re-elected. {{Plainlist | * '''{{Aye}} [[George S. Graham]]''' (Republican) 81.51% * John H. Berkley (Democratic) 17.01% * Harry Seidman ([[Socialist Party of America|Socialist]]) 1.20% * William Denick ([[Prohibition Party|Prohibition]]) 0.28%}} {{ushr|Pennsylvania|3|X}} J. Hampton Moore Republican 1906 Incumbent re-elected. {{Plainlist | * '''{{Aye}} [[J. Hampton Moore]]''' (Republican) 78.84% * William A. Hayes (Democratic) 19.79% * John Fuchs ([[Socialist Party of America|Socialist]]) 1.37%}} {{ushr|Pennsylvania|4|X}} George W. Edmonds Republican 1912 Incumbent re-elected. {{Plainlist | * '''{{Aye}} [[George W. Edmonds]]''' (Republican) 68.81% * Joseph E. Fabian (Democratic) 28.24% * Jacob H. Root ([[Socialist Party of America|Socialist]]) 2.46% * John S. Hay ([[Prohibition Party|Prohibition]]) 0.50%}} {{ushr|Pennsylvania|5|X}} Peter E. Costello Republican 1914 Incumbent re-elected. {{Plainlist | * '''{{Aye}} [[Peter E. Costello]]''' (Republican) 69.61% * Emanuel R. Clinton (Democratic) 30.39%}} {{ushr|Pennsylvania|6|X}} George P. Darrow Republican 1914 Incumbent re-elected. {{Plainlist | * '''{{Aye}} [[George P. Darrow]]''' (Republican) 72.14% * John K. Laughlin (Democratic) 26.76% * John Fisler ([[Progressive Party (United States, 1912)|Prog]]) 1.09%}} 
13481460 Al-Karamah Homs Khaled bin Walid Stadium Syrian Premier League Champions Al-Ittihad Aleppo Aleppo International Stadium 2nd in Syrian Premier League Al-Taliya Hamah Al Baladi Stadium 3rd in Syrian Premier League Al-Majd Damascus Abbasiyyin Stadium 4th in Syrian Premier League Al-Jaish Damascus Abbasiyyin Stadium 5th in Syrian Premier League 
13507625 Nov 16, 1975 Regina Rams 38 Hamilton Hurricanes 19 – Nov 23, 1974 Ottawa Sooners 17 Vancouver Meralomas 4 Vancouver, British Columbia Nov 10, 1973 Regina Rams 9 Ottawa Sooners 0 Ottawa, Ontario Nov 11, 1972 Hamilton Hurricanes 33 Regina Rams 8 Saskatoon, Saskatchewan Nov 13, 1971 Regina Rams 42 Burlington Braves 13 Hamilton, Ontario 
1354291 2018 Virat Kohli {{cr|IND}} Kagiso Rabada {{cr|SA}} 2014 AB de Villiers {{cr|RSA}} Dale Steyn {{cr|RSA}} 2013 AB de Villiers {{cr|RSA}} Vernon Philander {{cr|RSA}} 2011 Kumar Sangakkara {{cr|LKA}} Dale Steyn {{cr|RSA}} 2010 Kumar Sangakkara {{cr|LKA}} Dale Steyn {{cr|RSA}} 
13570080 Akasvayu Girona Girona, {{flagu|Spain}} Palau Girona-Fontajau Alba Berlin Berlin, {{flagu|Germany}} Max-Schmeling-Halle Antwerp Giants Antwerp, {{flagu|Belgium}} Lotto Arena Artland Dragons Quakenbrück, {{flagu|Germany}} Artland Arena ASK Riga Riga, {{LAT}} Arena Riga 
13585526 Fletcher class DD: Destroyer 91 →911a Chungmu 충무 (忠武) USS Erben (DD-631) 2,100/3,057 1943-03-21 1963-05-16 1963-09-05 1993-03-31 Bath Iron Works Delivered in Long Beach; 3rd ship named for Admiral Yi Sunshin after PG 313, PG 315 Fletcher class DD: Destroyer 92 →912a Seoul 서울 USS Halsey Powell (DD-686) 2,100/3,057 1943-06-30 1968-04-27 1968-07-19 1982-01-15 Bethlehem Shipbuilding Corp. Delivered in Long Beach; 2nd Seoul after LCI 101 Fletcher class DD: Destroyer 93 →913a Busan (Pusan) 부산 (釜山) USS Hickox (DD-673) 2,100/3,057 1943-07-04 1968-11-15 1969-03-25 1989-04-30 Federal Shipbuilding and Drydock Co. Delivered in Boston; 2nd Busan after AKL 901 Cannon class DE: Destroyer Escort 71 Gyeonggi (Kyong Ki) 경기 (京畿) USS Muir (DE-770) 1,240/1,620 1944-06-04 1956-02-02 1956-06-23 1977-12-28 Tampa Shipbuilding Co. Delivered in Boston Cannon class DE: Destroyer Escort 72 Gangwon (Kangwon) 강원 (江原) USS Sutton (DE-771) 1,240/1,620 1944-08-06 1956-02-02 1956-06-23 1977-10-28 Tampa Shipbuilding Co. Delivered in Boston 
1361044 Ethnic group European 818,210 {{Percentage | 818210| 1374650| 1}} Ethnic group South Asian 122,900 {{Percentage | 122900| 1374650| 1}} Ethnic group Chinese 89,675 {{Percentage | 89675| 1374650| 1}} Ethnic group Filipino 70,660 {{Percentage | 70660| 1374650| 1}} Ethnic group Aboriginal 55,430 {{Percentage | 55430| 1374650| 1}} 
13629153 Lyubimets 0–2 Chernomorets Burgas Lokomotiv Plovdiv 1–0 CSKA Sofia Bansko 0–0 (5–4p) Yantra Gabrovo Svetkavitsa 0–1 (aet) Cherno More Varna Sliven 2000 2–2 (6–7p) Spartak Varna 
1365205 WORL AM 990 News Talk Orlando WGKA AM 920 News Talk Atlanta WORD-FM FM 101.5 Christian radio Pittsburgh WPIT AM 730 Christian radio Pittsburgh WTLN AM 950 Christian radio Orlando 
13661072 2 Lionel Messi 504 Barcelona 3 Cristiano Ronaldo 426 Manchester United 5 Ronaldinho 109 Barcelona 6 Steven Gerrard 68 Liverpool 7 Andrea Pirlo 57 Milan 
1373412 Ethnic group European 27,760 {{Percentage | 27760| 37445| 1}} Ethnic group Aboriginal 7,475 {{Percentage | 7475| 37445| 1}} Ethnic group Filipino 290 {{Percentage | 290| 37445| 1}} Ethnic group South Asian 235 {{Percentage | 235| 37445| 1}} Ethnic group Black 190 {{Percentage | 190| 37445| 1}} 
1388887 2001 Cerezo Osaka J1 League 20 2 3 0 1 1 – – – – 24 3 2002 Cerezo Osaka J2 League 29 18 2 1 – – – – – – 31 19 2003 Cerezo Osaka J1 League 24 16 5 4 3 0 – – – – 32 20 2004 Cerezo Osaka J1 League 22 15 1 0 2 0 – – – – 25 15 2006 Cerezo Osaka J1 League 21 6 – – – – – – – – 21 6 
13895234 AF Corse Ferrari F430 GTC Ferrari 4.3&nbsp;L V8 {{Michelin}} 50 Gianmaria Bruni All AF Corse Ferrari F430 GTC Ferrari 4.3&nbsp;L V8 {{Michelin}} 50 Toni Vilander All AF Corse Ferrari F430 GTC Ferrari 4.3&nbsp;L V8 {{Michelin}} 50 Mika Salo 5 AF Corse Ferrari F430 GTC Ferrari 4.3&nbsp;L V8 {{Michelin}} 50 Jaime Melo 5 AF Corse Ferrari F430 GTC Ferrari 4.3&nbsp;L V8 {{Michelin}} 51 Thomas Biagi All 
13914040 1 {{flagicon|MYS}} Sepang, Malaysia Sepang International Circuit May 13–14 Karun Chandhok Team E-Rain 2 {{flagicon|MYS}} Sepang, Malaysia Sepang International Circuit May 13–14 Ananda Mikola {{flagicon|UK}} Team Eurasia 3 {{flagicon|MYS}} Sepang, Malaysia Sepang International Circuit June 24–25 Hamad Al Fardan Team Meritus 4 {{flagicon|MYS}} Sepang, Malaysia Sepang International Circuit June 24–25 {{flagicon|NZL}} Matt Halliday Team Meritus 5 Sentul, Indonesia Sentul International Circuit July 30–31 Karun Chandhok Team E-Rain 
1391450 {{ushr|Ohio|1|X}} Charles Phelps Taft Republican 1894 retired
Republican Hold {{Plainlist | * '''√ [[William B. Shattuc]]''' (Republican) 60.8% * Thomas J. Donnelly (Democratic) 39.2%}} {{ushr|Ohio|2|X}} Jacob H. Bromwell Republican 1894 Incumbent re-elected. {{Plainlist | * '''√ [[Jacob H. Bromwell]]''' (Republican) 59.0% * David S. Oliver (Democratic) 41.0%}} {{ushr|Ohio|3|X}} Paul J. Sorg Democratic 1894 retired
Democratic Hold {{Plainlist | * '''√ [[John L. Brenner]]''' (Democratic) 49.8% * [[Robert M. Nevin]] (Republican) 49.4% * Joel S. Steward (Populist) 0.6% * Samuel N. Stubbs (Nat. P.) 0.2%}} {{ushr|Ohio|4|X}} Fernando C. Layton Democratic 1890 retired
Democratic Hold {{Plainlist | * '''√ [[George A. Marshall]]''' (Democratic) 59.5% * John P. Maclean (Republican) 38.6% * L.M. Kramer (Populist) 1.1% * George W. Mace (Nat. P.) 0.7%}} {{ushr|Ohio|5|X}} Francis B. De Witt Republican 1894 Incumbent lost re-election.
New member elected.
Democratic gain. {{Plainlist | * '''√ [[David Meekison]]''' (Democratic) 56.0% * [[Francis B. De Witt]] (Republican) 42.5% * George N. Rice (Populist) 1.5%}} 
14016825 Percy the Park Keeper Nine Network {{sort|1999-01-02|2 January}} Chicago Sons Nine Network {{sort|1999-01-12|12 January}} Daria ABC TV {{sort|1999-01-12|12 January}} The New Adventures of Robin Hood Network Ten {{sort|1999-01-22|22 January}} Godzilla: The Series Network Ten {{sort|1999-02-07|7 February}} 
1401727 Alanine Ala A MT-TA 5,587–5,655 H Arginine Arg R MT-TR 10,405–10,469 L Asparagine Asn N MT-TN 5,657–5,729 H Aspartic acid Asp D MT-TD 7,518–7,585 L Cysteine Cys C MT-TC 5,761–5,826 H 
14018743 Poenulus Plautus 1549 Queens', Cambridge Latin Menaechmi Plautus 1551-2 Trinity, Cambridge Latin Stichus Plautus 1544 Queens', Cambridge Latin Oedipus Seneca the younger 1559–60 Trinity, Cambridge Latin Mostellaria Plautus 1559–60 Trinity, Cambridge Latin 
14034973 1996 Tallinn Olga Vassiljeva Liina-Grete Lilender Jekaterina Golovatenko  1997 Tallinn Liina-Grete Lilender Jekaterina Golovatenko Olga Vassiljeva  1998 Tallinn Olga Vassiljeva Jekaterina Golovatenko Liina-Grete Lilender  1999 Tallinn Olga Vassiljeva Jekaterina Golovatenko Liina-Grete Lilender  2000 Tallinn Olga Vassiljeva Jekaterina Golovatenko Liina-Grete Lilender  
1405757 2 Dover Town Norfolk $89,476 $187,829 $193,750 5,677 1,891 6 Wellesley Town Norfolk $72,046 $159,167 $186,518 28,504 8,544 8 Manchester-by-the-Sea Town Essex $70,075 $115,650 $145,409 5,185 2,055 10 Boxford Town Essex $69,734 $125,833 $141,563 8,040 2,752 13 Brookline Town Norfolk $65,340 $96,488 $150,351 58,738 25,403 
14066859 Yugoslavia Yugoslavia Yugoslavia League League Yugoslav Cup Yugoslav Cup Europe Europe Total Total 1953–54 Red Star Belgrade Yugoslav First League 2 0 – – – – 2 0 1954–55 Red Star Belgrade Yugoslav First League 1 0 – – – – 1 0 1955–56 Red Star Belgrade Yugoslav First League 0 0 – – – – 0 0 1956–57 NK Rijeka Yugoslav Second League 23 5 – – – – 23 5 
14085554 2017 Hrudayantar {{yes}} {{no}} Shekhar Joshi Marathi film 2017 Karaar {{yes}} {{no}} Sunil Marathi film 2017 Fugay {{yes}} {{no}} Hrushikesh Marathi film 2016 Pinneyum {{yes}} {{no}}  Malayalam film 2015 Lokmanya Ek Yugpurush {{yes}} {{no}} Lokmanya Balgangadhar Tilak Real-life story of the Indian Freedom fighter Lokmanya Bal Gangandhar Tilak
Official Selection in Indian Panorama Section at International Film Festival of India (2015).
Official Selection at 17th London Asian Film Festival (2015).
52nd Maharashtra State Awards 2015: Best Film 
1412 Gabriel synthesis Organohalide Reagent: potassium phthalimide Staudinger reduction Azide This reaction also takes place with a reducing agent such as lithium aluminium hydride. Schmidt reaction Carboxylic acid  Birch reduction Imine Useful for reactions that trap unstable imine intermediates, such as Grignard reactions with nitriles. Hofmann degradation Amide This reaction is valid for preparation of primary amines only. Gives good yields of primary amines uncontaminated with other amines. 
14159655 Paris Saint-Germain II 2010–11 CFA 3 0 — — — — — — 0 0 3 0 Dijon 2011–12 Ligue 1 33 4 2 0 3 1 — — 0 0 38 5 Dijon 2012–13 Ligue 2 7 0 0 0 0 0 — — 0 0 7 0 Guingamp 2013–14 Ligue 1 36 3 3 0 1 0 — — 0 0 40 3 Guingamp 2014–15 Ligue 1 29 0 5 0 1 0 6 0 0 0 41 0 
14191663 Bellwoods Ross A. McClellan New Democratic Party  Burlington South Cam Jackson Progressive Conservative  Carleton East Gilles E. Morin Liberal  Cochrane South Alan William Pope Progressive Conservative  Hamilton Mountain Brian Albert Charlton New Democratic Party  
14208176 Burlington South Cam Jackson Progressive Conservative  Carleton East Gilles E. Morin Liberal  Cochrane South Alan William Pope Progressive Conservative  Etobicoke West Linda Lillian LeBourdais Liberal  Hamilton Mountain Brian Albert Charlton New Democratic Party  
14232344 32nd 1893-1897  Arthur Peters Liberal  Anthony McLaughlin Liberal 33rd 1897-1900  Arthur Peters Liberal  Anthony McLaughlin Liberal 34th 1900-1904  Arthur Peters Liberal  Anthony McLaughlin Liberal 34th 1904  Arthur Peters Liberal  James McInnis Liberal 35th 1904-1908  Arthur Peters Liberal  James McInnis Liberal 
1425110 1946 Harry Dean Ainlay Sidney Bowcott, Frederick John Mitchell, James Harwood Ogilvie, Sidney Parsons Athelstan Bissett, Harold Tanner  1945 Harry Dean Ainlay James McCrie Douglas, Charles Gariepy, John Gillies, John Munro Ethel Browne  1944 John Wesley Fry Sidney Bowcott, Frederick John Mitchell, James Harwood Ogilvie, Sidney Parsons Athelstan Bissett  1943 John Wesley Fry Harry Dean Ainlay, Charles Gariepy, R W Hamilton James McCrie Douglas, Melvin Downey  1942 John Wesley Fry Sidney Bowcott, Frederick John Mitchell, James Harwood Ogilvie, Sidney Parsons Athelstan Bissett  
1434986 {{ushr|New York|1|X}} Luther C. Carter Republican 1858 Incumbent lost re-election.
New member elected.
Democratic gain. {{Plainlist | * '''√ [[Edward H. Smith (politician)|Edward H. Smith]]''' (Democratic) 52.78% * [[Luther C. Carter]] (Republican) 47.22%}} {{ushr|New York|3|X}} Daniel Sickles Democratic 1856 Incumbent retired.
New member elected.
Democratic hold. {{Plainlist | * '''√ [[Benjamin Wood]]''' (Democratic) 52.83% * Amer J. Williamson (Republican) 41.11% * John Y. Savage (Independent Democratic) 6.05%}} {{ushr|New York|4|X}} Thomas J. Barr Independent Democratic 1858 Incumbent retired.
New member elected.
Independent Democratic hold. {{Plainlist | * '''√ [[James Kerrigan]]''' (Independent Democratic) 41.30% * Michael Tuomy (Democratic) 32.02% * John Commerford (Republican) 26.68%}} {{ushr|New York|5|X}} William B. Maclay Democratic 1856 Incumbent retired.
New member elected.
Republican gain. {{Plainlist | * '''√ [[William Wall (New York)|William Wall]]''' (Republican) 41.00% * Nelson Taylor (Democratic) 40.61% * John Duffy (Independent Democratic) 18.39%}} {{ushr|New York|8|X}} Horace F. Clark Anti-Lecompton Democratic 1856 Incumbent retired.
New member elected.
Democratic hold. {{Plainlist | * '''√ [[Isaac C. Delaplaine]]''' (Democratic) 59.04% * Abram Wakeman (Republican) 40.96%}} 
1436627 2 2.1 17.1 XEFE Televisa local Nuevo Laredo • • 8.1 8.1 KGNS NBC–HD Laredo pro8news.com • 8.2 8.2 KGNS-DT2 ABC–HD Laredo kgns.tv • 8.3 8.3 KGNS-DT3 Telemundo Laredo telemundo.com 11 11.1 25.1 XHBR Canal de las Estrellas–HD Nuevo Laredo esmas.com 
1445842 1977–78 Montreal Juniors QMJHL &nbsp; 72 37 79 116 22 &nbsp; 13 3 17 1978–79 Montreal Juniors QMJHL &nbsp; 70 46 112 158 88 &nbsp; 11 5 6 1979–80 Montreal Juniors QMJHL &nbsp; 72 63 118 181 93 &nbsp; 10 7 16 1980–81 Chicago Blackhawks NHL &nbsp; 76 28 47 75 47 &nbsp; 3 0 0 1981–82 Chicago Blackhawks NHL &nbsp; 80 32 87 119 82 &nbsp; 15 11 7 
14476075 Atlético Bilbao Bilbao San Mamés Atlético Madrid Madrid Metropolitano Barcelona Barcelona Les Corts Celta Vigo Balaídos Español Barcelona Sarriá 
144870 Charlie Chan Carries On Warner Oland Hamilton MacFadden 1931  Lost film Fox Film Corporation Charlie Chan's Chance Warner Oland John Blystone 1932  Lost film Fox Film Corporation Charlie Chan's Greatest Case Warner Oland Hamilton MacFadden 1933  Lost film Fox Film Corporation Charlie Chan in Paris Warner Oland Lewis Seiler 1935 Charlie Chan, Volume One (20th Century Fox, 2006)  Fox Film Corporation Charlie Chan in Egypt Warner Oland Louis King 1935 Charlie Chan, Volume One (20th Century Fox, 2006)  20th Century Fox 
14489028 {{mlby|2001}} April Albert Pujols St. Louis Cardinals {{mlby|2001}} June Ben Sheets Milwaukee Brewers {{mlby|2001}} July Pedro Feliz San Francisco Giants {{mlby|2001}} August Roy Oswalt Houston Astros {{mlby|2001}} September Bud Smith St. Louis Cardinals 
14493380 2002–03 Cape Breton Screaming Eagles QMJHL  7 0 1 1 2  2 0 0 2003–04 Cape Breton Screaming Eagles QMJHL  68 4 12 16 137  5 0 1 2004–05 Cape Breton Screaming Eagles QMJHL  69 12 27 39 163  5 2 2 2005–06 Omaha Ak-Sar-Ben Knights AHL  24 0 0 0 18  — — — 2005–06 Las Vegas Wranglers ECHL  41 1 11 12 55  10 2 1 
14501543  File:Ruggero Settimo.jpg Ruggero Settimo
(1778–1863) 18 February 1861 2 May 1863 {{small|{{age in years and days|1861|2|18|1863|5|2}}}} Independent VIII
{{small|(1861)}}  File:Il mondo illustrato 1848 - Federigo Sclopis.jpg Federico Sclopis
(1798–1888) 24 May 1863 13 October 1864 {{small|{{age in years and days|1863|5|24|1863|10|13}}}} Independent VIII
{{small|(1861)}}  File:Giuseppe Manno 1.jpg Giuseppe Manno
(1786–1868) 15 October 1864 7 September 1865 {{small|{{age in years and days|1864|10|15|1865|9|7}}}} Historical Right VIII
{{small|(1861)}}  File:Gabrio Casati.gif Gabrio Casati
(1798–1873) 8 November 1865 2 November 1870 {{small|{{age in years and days|1865|11|8|1870|11|2}}}} Historical Right IX
{{small|(1865)}}  File:Gabrio Casati.gif Gabrio Casati
(1798–1873) 8 November 1865 2 November 1870 {{small|{{age in years and days|1865|11|8|1870|11|2}}}} Historical Right X
{{small|(1867)}} 
14523619 1963 1 Budapest {{Flag|Hungary}} 3 {{Flag|Soviet Union|1955}} {{Flag|Bulgaria|1946}} {{N/A}} (individuals only) 1965 2 Prague {{Flag|Czechoslovakia}} 3 {{TCH}} {{Flag|Soviet Union|1955}} {{N/A}} (individuals only) 1967 3 Copenhagen {{Flag|Denmark}} 5 {{Flag|Soviet Union|1955}} {{TCH}} {{Flag|Bulgaria|1946}}  1969 4 Varna {{Flag|Bulgaria|1967}} 6 {{Flag|Bulgaria|1967}} {{Flag|Soviet Union|1955}} {{TCH}}  1971 5 Havana {{Flag|Cuba}} 6 {{Flag|Bulgaria|1971}} {{Flag|Soviet Union|1955}} {{PRK}}  
1453282 1910 January 1 George Reginald Geary 20 (7 wards) 19,017 1911 January 2 George Reginald Geary 20 (7 wards) 30,931 1912 January 1 George Reginald Geary 20 (7 wards) acclaimed 1913 January 1 Horatio Clarence Hocken 20 (7 wards) 27,983 1914 January 1 Horatio Clarence Hocken 20 (7 wards) 21,471 
14557188 2 Switzerland Neel Jani 13 + 0.601 2 12+1 3 China Cong Fu Cheng 13 +4.632 4 10 4 Ireland Adam Carroll 13 +6.707 3 8 6 Great Britain Oliver Jarvis 13 +7.865 5 5 7 India Narain Karthikeyan 13 +8.661 9 4 
1458072 1976–77 Streetsville Derbys CJHL &nbsp; 63 35 70 105 75 &nbsp; — — — 1978–79 Toronto Marlboros OMJHL &nbsp; 68 10 38 48 45 &nbsp; 3 0 0 1979–80 Toronto Marlboros OMJHL &nbsp; 58 8 38 46 86 &nbsp; 4 0 2 1982–83 Sherbrooke Jets AHL &nbsp; 13 1 4 5 13 &nbsp; — — — 1983–84 Sherbrooke Jets AHL &nbsp; 7 1 1 2 10 &nbsp; — — — 
1462442 1989 DAL 16 16 133 8.3 28 3 0 0 0 1990 DAL 16 14 148 10.6 26 1 0 0 0 1991 DAL 16 28 244 8.7 22 1 15 0 0 1992 DAL 16 32 249 7.8 18 2 14 0 0 1993 DAL 16 50 372 7.4 20 1 17 0 0 
14627148 One of Those Aldo Fabrizi Lea Padovani, Peppino De Filippo, Totò Comedy drama  Passionate Song Giorgio Simonelli Nilla Pizzi, Gérard Landry Musical drama  Past Lovers Adelchi Bianchi Lia Amanda, Vittorio Sanipoli Romance  La Provinciale Mario Soldati Gina Lollobrigida, Gabriele Ferzetti || Quand tu liras cette lettre Jean-Pierre Melville Robert Dalban, Yvonne de Bray Drama  
1463332 2000 Anderlecht 3&ndash;1 Genk 15,000 Constant Vanden Stock Stadium  2001 Anderlecht 4&ndash;1 Westerlo 5,000 Het Kuipje  2002 Genk 0&ndash;2 Club Brugge 8,163 Fenix stadium  2004 Anderlecht 0&ndash;2 Club Brugge 8,500 Constant Vanden Stock Stadium  2005 Club Brugge 1&ndash;1 (4–2 pen.) Germinal Beerschot 3,632 Jan Breydel Stadium  
14647789 1 New Zealand Jonny Reid 14 19'25.408 1 15 2 Germany Christian Vietoris 14 +3.192 4 12+1 4 South Africa Adrian Zaugg 14 +7.823 2 8 5 Netherlands Jeroen Bleekemolen 14 +9.581 5 6 6 Ireland Adam Carroll 14 +10.912 7 5 
1468215 AGF 1993–94 Superliga 6 2 N/A N/A — — 6 AGF 1994–95 Superliga 21 4 N/A N/A — — 21 AGF 1995–96 Superliga 25 1 N/A N/A 4 1 29 AGF 1995–96 Superliga 30 6 N/A N/A 2 0 32 Udinese 1997–98 Serie A 20 2 — — 1 0 21 
14690768 2. Ron Low (G) Toronto Maple Leafs Washington Capitals 4. Michel Belhumeur (G) Philadelphia Flyers Washington Capitals 6. Dave Kryskow (F) Chicago Black Hawks Washington Capitals 8. Yvon Labre (D) Pittsburgh Penguins Washington Capitals 10. Pete Laframboise (LW) California Golden Seals Washington Capitals 
14710842 {{GamesName|SOG|1912}} Ahmed Hassanein Fencing {{GamesName|SOG|1984}} Mohamed Sayed Soliman Basketball {{GamesName|SOG|1988}} Mohamed Khorshed Shooting {{GamesName|SOG|1992}} Mohamed Khorshed Shooting {{GamesName|SOG|1996}} Hosam Abdallah Handball 
1474449 1992 WSH 16 6 84 1 3 55 22 462 0 42 1993 WSH 16 4 25 0 0 13 21 405 0 33 1995 JAX 13 24 246 0 8 40 10 178 0 24 1996 GB 16 58 875 3 16 92 22 460 0 40 1997 OAK 15 27 210 0 20 31 61 1,318 0 45 
14758903 2000 Shimizu S-Pulse J1 League 0 0 0 0 0 0 - - 0 0 2001 Shimizu S-Pulse J1 League 5 0 0 0 0 0 - - 5 0 2002 Shimizu S-Pulse J1 League 0 0 0 0 3 0 - - 3 0 2003 Shimizu S-Pulse J1 League 16 0 4 0 1 0 3 2 22 2 2004 Shimizu S-Pulse J1 League 2 0 0 0 1 0 - - 3 0 
1476778 Kashima Antlers 1993 35 0 5 2 5 1 – – 45 Kashima Antlers 1994 38 4 0 0 1 0 – – 39 Kashima Antlers 1995 50 0 4 0 – – – – 54 Kashima Antlers 1996 16 0 3 0 4 0 – – 23 Kashima Antlers 1997 21 3 5 1 2 2 – – 28 
14810144 Levadia II 2005 Esiliiga 22 6   — — — —   22 Levadia II 2006 Esiliiga 29 17   — — — —   29 Levadia II 2007 Esiliiga 14 4   — — — —   14 Levadia II 2009 Esiliiga 1 0   — — — —   1 Levadia 2005 Meistriliiga 13 2   — — 0 0 1{{efn|name=ES|Appearance in [[Estonian Supercup]]}} 0 14 
14874080 1973–74 Modo AIK SWE &nbsp; 4 0 0 0 0 &nbsp; — — — 1974–75 Modo AIK SWE &nbsp; 5 0 0 0 0 &nbsp; — — — 1975–76 Modo AIK SEL &nbsp; 33 12 7 19 22 &nbsp; — — — 1976–77 Modo AIK SEL &nbsp; 36 18 11 29 20 &nbsp; 4 1 1 1977–78 Modo AIK SEL &nbsp; 36 15 10 25 24 &nbsp; 2 1 0 
14919475 Arish 68 068-xxx-xxxx +20-68-xxx-xxxx Asyut 88 088-xxx-xxxx +20-88-xxx-xxxx Aswan 97 097-xxx-xxxx +20-97-xxx-xxxx Benha 13 013-xxx-xxxx +20-13-xxx-xxxx Beni Suef 82 082-xxx-xxxx +20-82-xxx-xxxx Damanhur 45 045-xxx-xxxx +20-45-xxx-xxxx Damietta 57 057-xxx-xxxx +20-57-xxx-xxxx Faiyum 84 084-xxx-xxxx +20-84-xxx-xxxx Ismailia 64 064-xxx-xxxx +20-64-xxx-xxxx Kafr El Sheikh 47 047-xxx-xxxx +20-47-xxx-xxxx 
15013564 1 Sunday, September 7, 2008 CBS 1:00&nbsp;p.m. Cincinnati Bengals W 17–10 1–0 M & T Bank Stadium Baltimore, Maryland Recap 3 Sunday, September 21, 2008 CBS 4:15&nbsp;p.m. Cleveland Browns W 28–10 2–0 M & T Bank Stadium Baltimore, Maryland Recap 4 Monday, September 29, 2008 ESPN 8:30&nbsp;p.m. at Pittsburgh Steelers L 20–23 (OT) 2–1 Heinz Field Pittsburgh, Pennsylvania Recap 5 Sunday, October 5, 2008 CBS 1:00&nbsp;p.m. Tennessee Titans L 10–13 2–2 M & T Bank Stadium Baltimore, Maryland Recap 8 Sunday, October 26, 2008 CBS 1:00&nbsp;p.m. Oakland Raiders W 29–10 4–3 M & T Bank Stadium Baltimore, Maryland Recap 
15017640 Little Rock Arkansas Clinton National Airport 1986 1990 Republic Airlines
Pan Am Express Phoenix Arizona Phoenix Sky Harbor International Airport 1985 1986 Republic Airlines Los Angeles California Los Angeles International Airport 1989 1990 Pan Am Express San Diego California Lindbergh Field 1985
1989 1986
1990 Republic Airlines
Pan Am Express Hartford County Connecticut Bradley International Airport 1984
1987 1985
1991 Empire Airlines
Pan Am Express 
1503551 1 Sep 12, 1971 Southern Open Invitational −13 (65-67-68-67=267) 5 strokes Deane Beman 2 Nov 27, 1972 Sea Pines Heritage Classic −3 (71-65-75-70=281) 1 stroke Tom Weiskopf 4 Jan 6, 1974 Bing Crosby National Pro-Am −8 (68-70-70=208) 4 strokes Grier Jones 5 Jan 13, 1974 Phoenix Open −13 (69-69-66-67=271) 1 stroke Lanny Wadkins 6 Jan 20, 1974 Dean Martin Tucson Open −16 (62-71-71-68=272) 3 strokes Ben Crenshaw 
15054595 J
A
N 11 Mrugaraju Gunasekhar Chiranjeevi, Simran, Nagendra Babu Action  J
A
N 11 Narasimha Naidu B. Gopal Nandamuri Balakrishna, Simran, K. Vishwanath Drama  J
A
N 15 Devi Putrudu Kodi Ramakrishna Venkatesh, Soundarya, Anjala Zaveri Fantasy  F
E
B 11 Priyamaina Neeku Balasekaran Tarun Kumar, Sneha Romance  F
E
B 14 Ammo Bomma Relangi Narasimha Rao Rajendra Prasad, Suman Horror Comedy  
1510351 4 6 Jul 1956 The Open Championship 70-70-72-74=286 3 strokes Flory Van Donck 7 14 Jun 1958 Daks Tournament 70-67-69-69=275 Tie Harold Henning 12 17 Jun 1960 Yorkshire Evening News Tournament 70-66-65-67=268 5 strokes Bernard Hunt 13 20 Jun 1960 Bowmaker Tournament 67-65=132 1 stroke Bernard Hunt 15 23 Jun 1961 Yorkshire Evening News Tournament 70-69-70-73=262 1 stroke Dai Rees 
15127549 1947–48 Hamburger SV FC St. Pauli 1948–49 Hamburger SV FC St. Pauli 1949–50 Hamburger SV FC St. Pauli 1950–51 Hamburger SV FC St. Pauli 1952–53 Hamburger SV Holstein Kiel 
15162303 1 {{flagicon|Brazil}} Cristiano da Matta Newman-Haas Racing Lola B2/00 Toyota 1:30.204 2 {{flagicon|Brazil}} Bruno Junqueira Chip Ganassi Racing Lola B2/00 Toyota 1:30.214 3 {{flagicon|Brazil}} Tony Kanaan Mo Nunn Racing Lola B2/00 Honda 1:30.427 5 {{flagicon|Canada}} Paul Tracy Team Green Lola B2/00 Honda 1:30.731 6 Zealand}} Scott Dixon Chip Ganassi Racing Lola B2/00 Toyota 1:30.810 
15164660 2000 Sex and the City Patricia Field 2001 Sex and the City Patricia Field 2002 Sex and the City Patricia Field 2003 Sex and the City Patricia Field 2004 Sex and the City Patricia Field 
15166639 Fabio Carbone 2002 British Formula 3 Championship (2002) Fairuz Fauzy 2011 GP2 Series (2011) Robert Kubica 2002 Italian Formula Renault Championship (2002) Tiago Monteiro 2002 French Formula Three Championship (2002)
International Formula 3000 (2002) Jarno Opmeer 2017 Eurocup Formula Renault 2.0 
15171047 1 Giza 8,800,000 2017C Greater Cairo {{EGY}} 3 Yokohama 3,733,975 2017E Tokyo {{JPN}} 5 Incheon 3,002,172 2016E Seoul {{KOR}} 6 Quezon City 2,936,116 2015C Manila {{PHL}} 7 Bekasi 2,714,800 2015E Greater Jakarta {{IDN}} 
15181400 1974 {{sort|NED|{{flag|NED}}}} {{sortname|Wiel|Coerver}} {{sort|NED|{{flag|NED}}}} Feyenoord  1978 {{sort|NED|{{flag|NED}}}} {{sortname|Kees|Rijvers}} {{sort|NED|{{flag|NED}}}} PSV Eindhoven  1980 {{sort|GER|{{flag|FRG}}}} {{sortname|Friedel|Rausch}} {{sort|GER|{{flag|FRG}}}} Eintracht Frankfurt  1983 {{sort|BEL|{{flag|BEL}}}} {{sortname|Paul|Van Himst}} {{sort|BEL|{{flag|BEL}}}} Anderlecht  1988 {{sort|GER|{{flag|FRG}}}} {{sortname|Erich|Ribbeck}} {{sort|GER|{{flag|FRG}}}} Bayer Leverkusen  
1519575 1968–69 Toronto Marlboros OHA-Jr.  44 16 23 39 53  6 1 4 1969–70 Toronto Marlboros OHA-Jr.  54 23 27 50 68  6 7 6 1970–71 Omaha Knights CHL  59 24 47 71 37  11 4 8 1971–72 Omaha Knights CHL  8 1 4 5 12  — — — 1971–72 St. Louis Blues NHL  63 20 23 43 19  11 2 3 
1522224 Newfoundland and Labrador Wabush YWK CYWK Wabush Airport  Nunavut Sanikiluaq YSK CYSK Sanikiluaq Airport  Quebec Akulivik AKV CYKO Akulivik Airport  Quebec Aupaluk YPJ CYLA Aupaluk Airport  Quebec Inukjuak YPH CYPH Inukjuak Airport  
15303476 King of Queens Mbreti i Kuins United States Palabra de Mujer Fjalë Gruaje Mexico Las Tontas No Van al Cielo Mendjelehtat Nuk Shkojnë Në Parajsë Mexico Sturm der Liebe Stuhi Dashurie Germany Winx Club Winx Club Italy 
15340591 2008 GB 16 2 33 366 11.1 29 2 0 0 2009 GB 13 0 22 320 14.5 51 2 3 1 2010 GB 16 4 45 582 12.9 80 2 3 3 2011 GB 16 9 68 1,263 18.6 93 15 0 0 2012 GB 12 10 49 745 15.2 73 7 0 0 
15351865 1984 Alan Tam Jenny Tseng 1985 to 1987 Alan Tam Anita Mui 1988、1989 Leslie Cheung Anita Mui 1990 to 1992 Andy Lau Sally Yeh 1993 Leon Lai Sally Yeh 
15403 CNH – 2 Chinese yuan Hong Kong Used for offshore trading. GGP – 2 Guernsey pound Guernsey  IMP – 2 Isle of Man pound Isle of Man Also known as the Manx pound. JEP – 2 Jersey pound Jersey  KID – 2 Kiribati dollar Kiribati  
15418873 1 South Africa Adrian Zaugg 42 1:12'00.930 15+1 2 Switzerland Neel Jani 42 +19.560 12 3 Great Britain Robbie Kerr 42 +25.194 10 6 Canada Robert Wickens 42 +1'10.321 5 7 Germany Christian Vietoris 42 +1'16.299 4 
15471928 1 8 Chris Amon Equipe Matra Elf Matra 100 2:08:19.29 4th / 1st 2 14 Henri Pescarolo Frank Williams Racing Cars March-Cosworth 100 + 21.86 s 3rd / 2nd 3 16 Carlos Reutemann Ecurie Bonnier McLaren-Cosworth 100 + 53.31 s 6th / 3rd Ret 4 Reine Wisell Gold Leaf Team Lotus Lotus-Cosworth 84 Accident 5th / Ret Ret 6 Wilson Fittipaldi Gold Leaf Team Lotus Lotus-Cosworth 71 Engine 8th / Ret 
15494003 Albirex Niigata 2005 J1 League 2 0 0 0 0 0 - - - - 2 Albirex Niigata 2006 J1 League 22 1 1 0 4 1 - - - - 27 Albirex Niigata 2007 J1 League 11 1 0 0 2 0 - - - - 13 Albirex Niigata 2008 J1 League 25 1 2 0 5 0 - - - - 32 Albirex Niigata 2009 J1 League 5 0 2 0 3 0 - - - - 10 
15526762 Trial Match Brisbane Broncos Win 32 16 23 Feb Wade Park 8,500 N/A 1 Newcastle Knights Loss 14 30 15 Mar Energy Australia Stadium 17,233 14/16 2 Penrith Panthers Win 20 16 22 Mar CUA Stadium 7,503 12/16 3 St George Illawarra Dragons Win 21 14 29 Mar Canberra Stadium 14,400 8/16 4 Gold Coast Titans Loss 12 32 5 Apr Skilled Park 17,381 11/16 
15558076 {{nfly|2007}} October 28 New York GiantsN 13 Miami DolphinsA 10 London Wembley Stadium 81,176 The Feeling {{nfly|2008}} October 26 San Diego ChargersA 32 New Orleans SaintsN 37 London Wembley Stadium 83,226 Stereophonics {{nfly|2009}} October 25 New England PatriotsA 35 Tampa Bay BuccaneersN 7 London Wembley Stadium 84,254 Calvin Harris {{nfly|2010}} October 31 Denver BroncosA 16 San Francisco 49ersN 24 London Wembley Stadium 83,941 My Chemical Romance {{nfly|2011}} October 23 Chicago BearsN 24 Tampa Bay BuccaneersN 18 London Wembley Stadium 76,981 Goo Goo Dolls 
1557793 1977 Virginia Wade {{GBR}} 1978 Martina Navratilova {{flagu|United States}} 1980 Tracy Austin {{flagu|United States}} 1981 Chris Evert-Lloyd {{flagu|United States}} 1987 Steffi Graf {{FRG}} 
1559573 1993 Cool Runnings Jon Turteltaub Hans Zimmer Orchestrator & Composer of Additional Music 1994 Monkey Trouble Franco Amurri Mark Mancina Composer of Additional Music 1995 Beyond Rangoon John Boorman Hans Zimmer Conductor & Composer of Additional Music 1995 Two Deaths Nicolas Roeg Hans Zimmer Conductor 2000 The Tigger Movie Jun Falkenstein Harry Gregson-Williams Conductor 
15598908 1 September 7, 2008 Tampa Bay Buccaneers 12:00pm CDT Louisiana Superdome Fox W 24–20 1–0 Recap 2 September 14, 2008 Washington Redskins 12:00pm CDT Fedex Field Fox L 24–29 1–1 Recap 3 September 21, 2008 Denver Broncos 3:05pm CDT Invesco Field Fox L 32–34 1–2 Recap 4 September 28, 2008 San Francisco 49ers 12:00pm CDT Louisiana Superdome Fox W 31–17 2–2 Recap 5 October 6, 2008 Minnesota Vikings 7:30pm CDT Louisiana Superdome ESPN L 27–30 2–3 Recap 
15625088 4 Bath City 3–1 Southend United 22 November 1952 12 Ipswich Town 2–2 Bournemouth 22 November 1952 Replay Bournemouth 2–2 Ipswich Town 26 November 1952 Replay Ipswich Town 3–2 Bournemouth 1 December 1952 16 Queens Park Rangers 2–2 Shrewsbury Town 22 November 1952 
15706866 2002–03 Shaka Laka Boom Boom Piya Star Plus  2003 Kkusum Simran Sony TV  2003 Kkoi Dil Mein Hai Preeti Sony TV  2006 Kyaa Hoga Nimmo Kaa Natasha STAR One  2006 Kahaani Ghar Ghar Kii Herself Star Plus  
15787359 2019 Valencia FC Barcelona Lassa ElPozo Murcia 2–1 2017 Ciudad Real Movistar Inter ElPozo Murcia 4–4 (9–8 pen.) 2016 Guadalajara Movistar Inter ElPozo Murcia 2–1 2011 Segovia FC Barcelona Alusport ElPozo Murcia 3–2 2010 Santiago de Compostela ElPozo Murcia Turística Xacobeo 2010 Lobelle 3–2 
15814461 May 15 O-Zone Dragostea Din Tei May 22 O-Zone Dragostea Din Tei May 29 O-Zone Dragostea Din Tei June 5 O-Zone Dragostea Din Tei June 12 O-Zone Dragostea Din Tei 
15837279 May 23, 2001 Jacksonville United States Alltel Stadium May 26, 2001 Hershey United States Hersheypark Stadium May 28, 2001 Hershey United States Hersheypark Stadium May 31, 2001 Foxborough United States Foxboro Stadium June 1, 2001 Foxborough United States Foxboro Stadium 
15839363 1 GK Adel El-Maamour 1955 29 ? El Zamalek 3 0 270 0 0 {{yel}}2 2 DF Khalid Gadallah 1955 29 ? El Ahly 1 1 90 0 0 0 3 DF Rabei Yassin 1960 24 ? El Ahly 3 0 270 0 0 0 4 MF Mohamed Helmi May 4, 1962 22 ? El Ahly 2 0 126 0 1 {{yel}}1 5 DF Ibrahim Youssef 1959 25 ? El Zamalek 4 0 360 0 0 0 
1585224 2005 SF 9 7 2–5 84 165 50.9 875 5.3 1 11 40.8 30 103 0 29 185 2006 SF 16 16 7–9 257 442 58.1 2,890 6.5 16 16 74.8 44 147 2 35 202 2007 SF 7 7 2–5 94 193 48.7 914 4.7 2 4 57.2 13 89 0 17 121 2009 SF 11 10 5–5 225 372 60.5 2,350 6.3 18 12 81.5 24 51 0 22 134 2010 SF 11 10 3–7 204 342 59.6 2,370 6.9 14 10 82.1 18 60 0 25 140 
15868164 2010 Adidas Videocon MasterCard Dheeraj and East Coast LLC 2011 Adidas Hero Honda MasterCard Dheeraj and East Coast LLC 2012 Adidas Hero MasterCard DHFL 2013 Adidas Videocon d2h Bajaj Allianz DHFL 2014 Adidas Videocon d2h Bajaj Allianz DHFL 
15869503 Carlow 9 9 7 7 3 3 1 1   1 1  21 Details Cavan 13 13 9 9     2 2   1 25 Details Clare 18 18 9 9       1 1 4 32 Details Cork 19 19 21 21 4 4     1 1 3 48 Details Donegal 14 14 8 8 1 1       6 29 Details 
15889510 2 4 James Courtney Ford BF Falcon Stone Brothers Racing 1:21.3406   3 5 Mark Winterbottom Ford BF Falcon Ford Performance Racing 1:21.6647   4 1 Garth Tander Holden VE Commodore Holden Racing Team 1:21.6930   5 18 Will Davison Ford BF Falcon Dick Johnson Racing 1:21.7557   7 33 Lee Holdsworth Holden VE Commodore Garry Rogers Motorsport 1:21.9638   
15894301 1 {{flagicon|GBR}} Dario Franchitti Team Green Reynard 99i Honda 1:31.703 2 {{flagicon|USA}} Bryan Herta Team Rahal Reynard 99i Ford XD 1:32.595 3 {{flagicon|USA}} Scott Pruett Arciero-Wells Racing Reynard 99i Toyota 1:32.616 4 {{flagicon|CAN}} Paul Tracy Team Green Reynard 99i Honda 1:32.700 5 {{flagicon|USA}} Michael Andretti Newman-Haas Racing Swift 010.c Ford XD 1:32.899 
1597301 Portsmouth 187,056 238,137 City of Portsmouth Gosport 69,348 71,529 Borough of Gosport Fareham 56,160 42,210 Borough of Fareham Havant 45,435 45,125 Borough of Havant Lee-on-the-Solent 7,067 10,860 Borough of Gosport 
1597628 1900 1900 Sharjah conquest of Ras Al Khaimah Emirate of Sharjah Ras Al Khaimah 1901 1901 Battle of Holy Apostles Monastery Armenian fedayi {{flag|Ottoman Empire}} 1904 1904 1904 Sasun uprising {{flag|Ottoman Empire}} Armenian fedayees 1905 1905 Argentine Revolution of 1905 {{flag|Argentina}} Radical Civic Union 1905 1906 1905 Tibetan Rebellion {{flagicon|Qing Dynasty}} Qing Dynasty Tibetan Buddhists 
1597946 Bangladesh Dhaka DAC VGHS Shahjalal International Airport || India New Delhi DEL VIDP Indira Gandhi International Airport || India Varanasi VNS VEBN Lal Bahadur Shastri Airport || India Kolkata CCU VECC Netaji Subhas Chandra Bose International Airport || Nepal Bhairahawa BWA VNBW Bhairahawa Airport || 
1598577 6 {{flagicon|CAN}} {{sortname|Brad|Bombardir}} D L 1990 Powell River, British Columbia first {{small|(did not play)}} 30 {{flagicon|CAN}} {{sortname|Martin|Brodeur}} G L 1990 Montreal, Quebec second {{small|('''{{scfy|1995}}''')}} 10 {{flagicon|CAN}} {{sortname|Steve|Brule|Steve Brûlé}} RW R 1993 Montreal, Quebec first {{small|(did not play)}} 18 {{flagicon|RUS}} {{sortname|Sergei|Brylin}} LW L 1992 Moscow, Soviet Union second {{small|('''{{scfy|1995}}''')}} 3 {{flagicon|CAN}} {{sortname|Ken|Daneyko}} D L 1982 Windsor, Ontario second {{small|('''{{scfy|1995}}''')}} 
1600883 Aargau 534 Nidwalden 22 Appenzell Ausserrhoden 38 Obwalden 21 Appenzell Innerrhoden 12 Schaffhausen 72 Basel-Landschaft 344 Schwyz 108 Basel-Stadt 415 Solothurn 222 
160423 1 Living the Blues Canned Heat double LP; studio + live 1 Wonderwall Music George Harrison Soundtrack 20 Eivets Rednow Stevie Wonder released under pseudonym Eivets Rednow 22 Dusty... Definitely Dusty Springfield - 22 The Kinks Are the Village Green Preservation Society The Kinks - 
160794 J
U
L
Y 6 Live in Australia with the Melbourne Symphony Orchestra Elton John Live J
U
L
Y 15 Soy Como Quiero Ser Luis Miguel - J
U
L
Y 20 Born to Mack Too Short Debut J
U
L
Y 27 In My Tribe 10,000 Maniacs - J
U
L
Y 27 Within the Realm of a Dying Sun Dead Can Dance - 
160799 J
U
L
Y 2 Smooth Noodle Maps Devo - J
U
L
Y 3 Seven Turns The Allman Brothers Band - J
U
L
Y 3 Spirits Dancing in the Flesh Santana - J
U
L
Y 10 Brick by Brick Iggy Pop - J
U
L
Y 13 Naked Thunder Ian Gillan - 
160802 A
P
R
I
L 14 Soul Rotation The Dead Milkmen - A
P
R
I
L 14 The Woman I Am Chaka Khan - A
P
R
I
L 18 Too Blind to See It Kym Sims - A
P
R
I
L 21 Check Your Head Beastie Boys - A
P
R
I
L 21 Hotwired The Soup Dragons - 
160806 O
C
T
O
B
E
R 3 Jesus Wept P.M. Dawn - O
C
T
O
B
E
R 6 Raoul and the Kings of Spain Tears for Fears - O
C
T
O
B
E
R 10 Frampton Comes Alive! II Peter Frampton Live O
C
T
O
B
E
R 10 Mind of Mystikal Mystikal Debut O
C
T
O
B
E
R 10 Riddle Box Insane Clown Posse - 
16085366 1 {{flagicon|GBR}} Dario Franchitti Team Green Reynard 98i Honda 1:32.288 2 {{flagicon|ITA}} Alex Zanardi Chip Ganassi Racing Reynard 98i Honda 1:32.310 3 {{flagicon|BRA}} Christian Fittipaldi Newman-Haas Racing Swift 009.c Ford-Cosworth 1:32.501 4 {{flagicon|CAN}} Paul Tracy Team Green Reynard 98i Honda 1:32.583 5 {{flagicon|USA}} Bryan Herta Team Rahal Reynard 98i Ford-Cosworth 1:32.588 
1616798 2004 Eurocup Formula Renault 2.0 Jenzer Motorsport 17 0 0 0 0 64 11th 2004 Formula Renault 2.0 Germany Jenzer Motorsport 14 0 1 2 5 238 3rd 2005 Eurocup Formula Renault 2.0 Jenzer Motorsport 16 6 6 4 10 149 2nd 2006 GP2 Series Arden International 21 1 0 0 3 25 11th 2006 Formula One Red Bull Racing Test driver Test driver Test driver Test driver Test driver Test driver Test driver 
16190274 1 1 Garth Tander Holden VE Commodore Holden Racing Team 1:32.1080   2 2 Mark Skaife Holden VE Commodore Holden Racing Team 1:32.2926   3 15 Rick Kelly Holden VE Commodore HSV Dealer Team 1:32.4431   5 14 Cameron McConville Holden VE Commodore Brad Jones Racing 1:32.7130   6 18 Will Davison Ford BF Falcon Dick Johnson Racing 1:32.7527   
16221258 2001–02 CSKA Moscow RML &nbsp; 39 17 12 29 8 &nbsp; 7 3 0 2002–03 CSKA Moscow RSL &nbsp; 25 1 2 3 4 &nbsp; — — — 2003–04 CSKA Moscow RSL &nbsp; 33 3 2 5 12 &nbsp; — — — 2004–05 CSKA Moscow RSL &nbsp; 11 0 0 0 2 &nbsp; — — — 2004–05 Salavat Yulaev Ufa RSL &nbsp; 24 9 3 12 4 &nbsp; — — — 
16255381 1998 5th Star Awards Ceremony Best Supporting Actor Return of the Condor Heroes
{{small|(as Jinlu Fawang)}} {{nom}} 1999 6th Star Awards Ceremony Best Supporting Actor Wok of Life
{{small|(as Huang Xiaodong)}} {{nom}} 2000 7th Star Awards Ceremony Best Supporting Actor The Legendary Swordsman
{{small|(as Yue Buqun)}} {{nom}} 2006 13th Star Awards Ceremony Best Supporting Actor The Shining Star
{{small|(as Huang Feilong)}} {{nom}} 2007 14th Star Awards Ceremony Best Actor Like Father, Like Daughter
{{small|(as Dai Zhigang)}} {{won}} 
16290292 1974 Trofeo VAT 69 Adriano Panatta Paolo Bertolucci 6–3, 6–1 1975  Paolo Bertolucci Georges Goven 6–3, 6–2 1976 Torneo Internazionale Paolo Bertolucci Patrick Proisy 6–7, 2–6, 6–3, 6–2, 10–8 1977 Florence International Paolo Bertolucci John Feaver 6–4, 6–1, 7–5 1982 Florence Open Vitas Gerulaitis Stefan Simonsson 4–6, 6–3, 6–1 
162962 1961 Jomo Kenyatta 590,661 67.5% {{Composition bar|19|65|hex=#FF0000}} {{increase}} 19 {{increase}} 1st 1963 Jomo Kenyatta 988,311 53.60% {{Composition bar|83|129|hex=#FF0000}} {{increase}} 64 {{steady}} 1st 1969 Jomo Kenyatta 1,687,734 100% {{Composition bar|158|170|hex=#FF0000}} {{increase}} 75 {{steady}} 1st 1974 Jomo Kenyatta 2,627,308 100% {{Composition bar|158|170|hex=#FF0000}} {{steady}} {{steady}} 1st 1979 Daniel Arap Moi 3,733,537 100% {{Composition bar|158|170|hex=#FF0000}} {{steady}} {{steady}} 1st 
16302403 1 1 Garth Tander Holden VE Commodore Holden Racing Team 1:58.2337 1:58.8971 3 6 Steven Richards Ford BF Falcon Ford Performance Racing 1:58.7328 1:58.6621 4 18 Will Davison Ford BF Falcon Dick Johnson Racing 1:58.9980 1:58.7249 5 15 Rick Kelly Holden VE Commodore HSV Dealer Team 1:59.0476 1:59.1387 6 3 Jason Richards Holden VE Commodore Tasman Motorsport 1:59.1864 1:58.7134 
163220 1990 Twin Peaks ABC 1990 China Beach ABC 1990 L.A. Law NBC 1991 Northern Exposure CBS 1991 Beverly Hills, 90210 Fox 
1637405 1928 Waseda University WMW 6–1 Imperial University of Kyoto Meiji Jingu Stadium 7 1929 Kwangaku Club 3–0 Hosei University Meiji Jingu Stadium 8 1930 Kwangaku Club 3–0 Keio BRB Koshien-minami Ground 4 1935 Kyungsung FC 6–1 Tokyo Bunri University Meiji Jingu Stadium 6 1937 Keio University 3–0 Kobe University of Commerce Meiji Jingu Stadium 4 
163859 1965 Takehisa Tsuji {{Composition bar|20|251|hex={{Komeito/meta/color}}}} {{Composition bar|11|125|hex={{Komeito/meta/color}}}} 5,097,682 13.7% 1,910,975 5.1% {{no2|Minority}} 1968 Yoshikatsu Takeiri {{Composition bar|24|250|hex={{Komeito/meta/color}}}} {{Composition bar|7|125|hex={{Komeito/meta/color}}}} 6,656, 771 15.5% 2,632,528 6.1% {{no2|Minority}} 1971 Yoshikatsu Takeiri {{Composition bar|22|249|hex={{Komeito/meta/color}}}} {{Composition bar|10|125|hex={{Komeito/meta/color}}}} 5,626,293 14.1% 1,391,855 3.5% {{no2|Minority}} 1974 Yoshikatsu Takeiri {{Composition bar|24|250|hex={{Komeito/meta/color}}}} {{Composition bar|14|125|hex={{Komeito/meta/color}}}} 6,360,419 12.1% 6,732,937 12.6% {{no2|Minority}} 1977 Yoshikatsu Takeiri {{Composition bar|25|249|hex={{Komeito/meta/color}}}} {{Composition bar|14|125|hex={{Komeito/meta/color}}}} 7,174,459 14.2% 3,206,719 6.1% {{no2|Minority}} 
16386910 7 November 3, 1976 San Antonio Spurs 97–113 Indiana Pacers 2–5 9 November 6, 1976 Indiana Pacers 94–113 San Antonio Spurs 3–6 10 November 9, 1976 Seattle SuperSonics 114–138 San Antonio Spurs 4–6 11 November 11, 1976 New York Nets 104–108 San Antonio Spurs 5–6 12 November 13, 1976 Portland Trail Blazers 101–113 San Antonio Spurs 6–6 
1642271 1995 Yokohama Marinos J1 League 33 1 1 0 - - - - 34 1 1996 Yokohama Marinos J1 League 16 0 1 0 11 2 - - 28 2 1997 Yokohama Marinos J1 League 31 2 2 0 6 0 - - 39 2 1998 Yokohama Marinos J1 League 12 0 1 0 4 1 - - 17 1 1999 Yokohama F. Marinos J1 League 27 0 3 0 2 0 - - 32 0 
16449738 1 {{flagicon|ITA}} Alex Zanardi Chip Ganassi Racing Reynard 97I Honda 1:35.940 2 {{flagicon|CAN}} Paul Tracy Team Penske Penske PC-26-97 Mercedes-Benz 1:36.140 3 {{flagicon|USA}} Jimmy Vasser Chip Ganassi Racing Reynard 97I Honda 1:36.441 5 {{flagicon|GBR}} Mark Blundell PacWest Reynard 97I Mercedes-Benz 1:36.754 6 {{flagicon|USA}} Parker Johnstone Team Green Reynard 97I Honda 1:36.772 
16454594 1 The Soldier's Joy Country Dance Ned Pearson Fiddle 1:12 2 The Ribbon Country Dance Country Dance Ned Pearson Fiddle 1:06 3 We All Go A-hunting Today Waltz Ned Pearson Fiddle 1:05 5 The Ladies’ Hornpipe Hornpipe Ned Pearson Fiddle 0:48 6 Barbara Bell Country Dance Ned Pearson Fiddle 0:59 
16484151  El 3 10 1925-67 Ofotbanen ||60&nbsp;km/h|| Image:NSB El 4 in Narvik 2.jpeg El 4 15 1926-65 Ofotbanen 2,088&nbsp;kW 60&nbsp;km/h   El 6 1 1911-56 Rjukanbanen ||45&nbsp;km/h|| Image:RjB.1 & NSB El.7.jpg* El 7 2 1911-56 Rjukanbanen ||45&nbsp;km/h|| Image:NSB El 10.JPG* El 10 17 1931-99 Shunter 515&nbsp;kW 45&nbsp;km/h  
16514337 Raymond Floyd {{USA}} 1976 69 68 69 71 277 −11 2 Larry Mize {{USA}} 1987 73 69 71 68 281 −7 T6 Ian Woosnam {{WAL}} 1991 69 66 73 75 283 −5 T19 Fuzzy Zoeller {{USA}} 1979 71 70 73 69 283 −5 T19 Craig Stadler {{USA}} 1982 70 71 70 73 284 −4 T25 
1658359 Troyes 2001–02 Ligue 1 8 0 2 0 - - - - – – 10 0 Troyes 2002–03 Ligue 1 24 0 1 0 1 0 - - – – 26 0 Troyes 2003–04 Ligue 2 28 1 1 0 1 0 - - – – 30 1 Troyes 2004–05 Ligue 2 4 0 - - - - - - – – 4 0 Lorient 2004–05 Ligue 2 24 1 - - - - - - – – 24 1 
16653772 1 {{flagicon|USA}} Jimmy Vasser Chip Ganassi Racing Reynard 96I Honda 1:35.265 2 {{flagicon|USA}} Scott Pruett Patrick Racing Lola T96/00 Ford XD Cosworth 1:35.282 3 {{flagicon|ITA}} Alex Zanardi Chip Ganassi Racing Reynard 96I Honda 1:35.549 4 {{flagicon|CAN}} Paul Tracy Team Penske Penske PC25-96 Mercedes-Benz 1:35.987 5 {{flagicon|USA}} Michael Andretti Newman-Haas Racing Lola T96/00 Ford XD Cosworth 1:36.721 
1669640 Barcelona {{flagicon|Spain}} Gary Lineker 24 (80) 15 October 1986 – 7 June 1989 Bayern Munich {{flagicon|Germany}} Owen Hargreaves 39 (42) 15 August 2001 – 28 Mar 2007 Borussia Dortmund {{flagicon|Germany}} Jadon Sancho 6 12 October 2018 – 9 June 2019 Bursaspor {{flagicon|Turkey}} Scott Carson 1 (4) 15 November 2011 D.C. United {{flagicon|USA}} Wayne Rooney 1 (120) 15 November 2018 
16709636 1967 Bangkok Bank 0-1 South China 1967 Bangkok Bank 2-0 South China 1967 Bangkok Bank 0-1 Selangor FA 1967 Bangkok Bank 0-0 Selangor FA 1969 Bangkok Bank 1-1 Mysore State 
1675384 1973–74 Onaping Falls Huskies NOJHL &nbsp; 45 67 76 143 — &nbsp; — — — 1976–77 Fort Worth Texans CHL &nbsp; 7 2 4 6 6 &nbsp; — — — 1977–78 Los Angeles Kings NHL &nbsp; 64 22 21 43 47 &nbsp; 2 0 0 1978–79 Los Angeles Kings NHL &nbsp; 78 43 48 91 124 &nbsp; 2 0 0 1979–80 Los Angeles Kings NHL &nbsp; 61 37 53 90 72 &nbsp; 4 2 1 
16762286 Texus 42 2005 Dec 1 Esrange VSB-30 263&nbsp;km 372&nbsp;kg 1/DLR, 1/ESA   Texus 43 2006 May 11 Esrange VSB-30 237&nbsp;km 407&nbsp;kg 3/ESA  Esrange EUK170-E19 Texus 44 2008 Feb 7 Esrange VSB-30 264&nbsp;km 373&nbsp;kg 3/ESA  Esrange EUK173-E42 Texus 45 2008 Feb 21 Esrange VSB-30 264&nbsp;km 357&nbsp;kg 2/DLR, 1/ESA  Esrange EUK174-E17 Texus 46 2009 Nov 22 Esrange VSB-30 252&nbsp;km 392.9&nbsp;kg 1/ESA+DLR, 1/ESA+JAXA   
16792415 1 {{flagicon|USA}} Michael Andretti Newman-Haas Racing Lola T95/00 Ford XB Cosworth 1:36.770 2 {{flagicon|CAN}} Jacques Villeneuve Team Green Reynard 95I Ford XB Cosworth 1:36.908 4 {{flagicon|BRA}} Emerson Fittipaldi Team Penske Penske PC24-95 Mercedes-Benz 1:37.097 5 {{flagicon|ITA}} Teo Fabi Forsythe Racing Reynard 95I Ford XB Cosworth 1:37.135 7 {{flagicon|SWE}} Stefan Johansson Bettenhausen Motorsports Penske PC23-94 Mercedes-Benz 1:37.642 
1679795 1994–95 Portland Winter Hawks WHL  2 0 0 0 0  — — — 1995–96 Portland Winter Hawks WHL  72 9 31 40 159  7 1 3 1996–97 Portland Winter Hawks WHL  72 12 32 44 163  6 1 2 1997–98 Portland Winter Hawks WHL  72 11 57 68 142  16 2 18 1998–99 Portland Winter Hawks WHL  40 11 21 32 104  4 1 4 
1688384 John Naber Swimming 4 1 0 5 Shirley Babashoff Swimming 1 4 0 5 John Hencken Swimming 2 1 0 3 Peter Rocca Swimming 1 2 0 3 Wendy Boglioli Swimming 1 1 1 3 
1690430 2 D Lee Stecklein {{convert|1.83|m|ftin|abbr=on}} {{convert|77|kg|lb|abbr=on|sortable=on}} {{birth date and age|1994|4|23|df=y}} Minnesota Whitecaps 8 D Emily Pfalzer {{convert|1.57|m|ftin|abbr=on}} {{convert|57|kg|lb|abbr=on|sortable=on}} {{birth date and age|1993|6|14|df=y}} Buffalo Beauts 9 D Megan Bozek {{convert|1.73|m|ftin|abbr=on}} {{convert|80|kg|lb|abbr=on|sortable=on}} {{birth date and age|1991|3|27|df=y}} Markham Thunder 14 F Brianna Decker {{convert|1.63|m|ftin|abbr=on}} {{convert|67|kg|lb|abbr=on|sortable=on}} {{birth date and age|1991|5|13|df=y}} Calgary Inferno 16 F Hayley Scamurra {{convert|1.73|m|ftin|abbr=on}} {{convert|73|kg|lb|abbr=on|sortable=on}} {{birth date and age|1994|12|14|df=y}} Buffalo Beauts 
16909441 3 DF David Adiele 5 February 1955 25 ? Bendel Insurance 1 0 90 0 0 0 4 DF Sylvanus Okpala 5 May 1961 19 ? Enugu Rangers 3 0 270 0 0 1Y 5 DF Leotis Boateng 8 March 1951 29 ? Enugu Rangers 3 0 270 0 0 1Y 6 DF John Orlando 15 October 1960 19 ? Stars 3 0 251 0 1 0 8 MD Isima Okey 24 August 1956 23 ? Enugu Rangers 1 0 19 1 0 0 
16914410 1983–84 Leksands IF SEL &nbsp; 35 3 8 11 18 &nbsp; — — — 1984–85 Leksands IF SEL &nbsp; 35 8 7 15 22 &nbsp; — — — 1985–86 Leksands IF SEL &nbsp; 36 6 9 15 62 &nbsp; — — — 1986–87 Leksands IF SEL &nbsp; 33 8 16 24 42 &nbsp; — — — 1987–88 Leksands IF SEL &nbsp; 40 12 11 23 20 &nbsp; 3 0 0 
16937934 Norway 1963 Slependen 7 First IKEA outside Sweden. Stores: Oslo (Two stores, Slependen and Furuset), Kristiansand, Stavanger, Trondheim and Bergen. The world's largest IKEA is planned to be built in Larvik, Norway. It is rumoured to be in the range of 60,000-80,000 square metres. Switzerland 1973 Spreitenbach 9 First IKEA outside Scandinavia. Canada 1975 Dartmouth 14 The first IKEA store in North America opened in Dartmouth, Nova Scotia in 1975 and closed 13 years later. As of 2018, there were 14 stores in six provinces. Singapore 1978 Bukit Timah 2 Original store moved to Katong in 1984, then to Alexandra Road in Queenstown in 1995. A second store opened in November 2006 in Tampines. Netherlands 1978 Sliedrecht 13 Groningen store is the 3rd largest in Europe with {{convert|42000|m2}}. Newest store opened in February 2015 in Zwolle. The old store in Sliedrecht closed in 2006. 
16950797 {{Gold medal}} Kunjarani Devi Nameirakpam Weightlifting Women's up to 48Kgs - Overall 30 Jul {{Gold medal}} Kunjarani Devi Nameirakpam Weightlifting Women's up to 48Kgs - Clean and Jerk 30 Jul {{Gold medal}} Kunjarani Devi Nameirakpam Weightlifting Women's up to 48Kgs - Snatch 30 Jul {{Gold medal}} Sanamacha Chanu Weightlifting Women's up to 53Kgs - Overall 31 Jul {{Gold medal}} Sanamacha Chanu Weightlifting Women's up to 53Kgs - Clean and Jerk 31 Jul 
16970259 1930 Group stage {{fb|MEX}} 3–0 W Montevideo Vidal {{goal|3||65}}, Rosas {{goal|52|o.g.}} 1930 Group stage {{fb|FRA}} 1–0 W Montevideo Subiabre {{goal|67}} 1930 Group stage {{fb|ARG}} 1–3 L Montevideo Subiabre {{goal|15}} 1950 Group stage {{fb|ENG}} 0–2 L Rio de Janeiro {{sort dash}} 1950 Group stage {{fb|ESP}} 0–2 L Rio de Janeiro {{sort dash}} 
16987186 1 6 Steven Richards Ford Performance Racing Ford BF Falcon 1:24.7270 2 1 Garth Tander Holden Racing Team Holden VE Commodore 1:24.7974 3 15 Rick Kelly HSV Dealer Team Holden VE Commodore 1:24.9111 4 4 James Courtney Stone Brothers Racing Ford BF Falcon 1:24.9289 5 33 Lee Holdsworth Garry Rogers Motorsport Holden VE Commodore 1:25.0264 
170101 Boogie Woogie Red 1925 1985* Louisiana Boogie woogie {{sfn|Herzhaft|1992|p=90}} Forest City Joe 1926 1960 Arkansas Electric blues  Guitar Nubbit 1923 1995 Florida Electric blues  Guitar Slim 1926 1959 Louisiana Louisiana blues {{sfn|Shadwick|2001|p=294}} Harmonica Slim 1934 1984 Texas Texas blues {{sfn|AllMusic|1996|pp=102–103}} 
1702462 1 Jejudo 제주도 Jeju Province 1833.162 2 Geojedo 거제도 Geoje 379.233 4 Ganghwado 강화도 Ganghwa County 302.582 5 Namhaedo 남해도 Namhae County 300.935 6 Anmyeondo 안면도 Taean County 113.460 
17049750 2019 Eastern Cape Zozibini Tunzi TBD TBD TBD 2018 Western Cape Tamaryn Green 1st Runner-up   2017 Western Cape Demi-Leigh Nel-Peters Miss Universe 2017   2015 Gauteng Refilwe Mthimunye Top 15   2012 Gauteng Melinda Bam Top 10   
17063832 2 34 Andrea Dovizioso Honda 25 +0.605 3 20 4 15 Alex de Angelis Aprilia 25 +9.170 10 13 5 27 Casey Stoner Aprilia 25 +11.692 9 11 7 36 Mika Kallio Honda 25 +21.004 5 9 15 63 Mike Di Meglio Aprilia 25 +36.203 26 1 
17087328 F2 Maud Bowie TX {{Coord|33.33|-94.42|name=Maud (Feb. 12, F2)}} 06:30 {{convert|8.0|mi|km|abbr=on|sortable=on}} {{convert|833|yd|m|abbr=on|sortable=on}} 1 death, 8 injuries - Damages were estimated at $25 thousand.  F1 Dublin Erath TX {{Coord|32.08|-98.35|name=Dublin (Feb. 12, F1)}} 07:15 {{convert|2.3|mi|km|abbr=on|sortable=on}} {{convert|233|yd|m|abbr=on|sortable=on}} Damages were estimated at $25 thousand.  F2 Groesbeck Limestone TX {{Coord|31.52|-96.55|name=Groesbeck (Feb. 12, F2)}} 12:10 {{convert|3.4|mi|km|abbr=on|sortable=on}} {{convert|100|yd|m|abbr=on|sortable=on}} Damages were estimated at $25 thousand.  F1 Center Shelby TX {{Coord|31.80|-94.20|name=Center (Feb. 12, F1)}} 17:57 {{convert|7.7|mi|km|abbr=on|sortable=on}} {{convert|100|yd|m|abbr=on|sortable=on}} 32 injuries - Damages were estimated at $250 thousand.  F3 Center Shelby TX {{Coord|31.80|-94.20|name=Center (Feb. 12, F3)}} 18:00 {{convert|1.9|mi|km|abbr=on|sortable=on}} {{convert|50|yd|m|abbr=on|sortable=on}} 3 deaths, 15 injuries - Damages were estimated at $250 thousand.  
17116492 1 Netherlands Piet Raymakers Van Schijndel's Curtis 85.71 0 85.71 4.045 1 Netherlands Jeroen Dubbeldam BMC Up and Down 83.82 0 83.82 3.100 1 Netherlands Albert Zoer Okidoki 82.58 0 82.58 2.480 2 United States Margie Engle Hidden Creek's Quervo Gold 85.75 16 101.75 12.065 2 United States Laura Kraut Miss Independent 85.57 4 89.57 5.975 
17137121 2 Horacio Doval Argentina 84 4 Paolo Guerrero Peru 61 7 Gonzalo Fierro Chile 47 9 Emerson Qatar 46 9 Maxi Biancucchi Argentina 45 
17140785 Ajax 2004–05 Eredivisie 0 0 0 0 0 0 0 0 0 0 Ajax 2005–06 Eredivisie 0 0 0 0 0 0 0 0 0 0 FC Zwolle 2006–07 Eerste Divisie 34 1 1 0 – – 2 0 37 1 FC Zwolle 2007–08 Eerste Divisie 37 4 4 0 – – 5 0 46 4 AZ 2008–09 Eredivisie 22 1 2 0 – – 0 0 24 1 
1714355 1997–98 Regina Pats WHL &nbsp; 68 2 11 13 224 &nbsp; 9 0 3 1998–99 Regina Pats WHL &nbsp; 70 8 36 44 259 &nbsp; — — — 1999–00 Regina Pats WHL &nbsp; 53 9 37 46 175 &nbsp; 6 1 1 1999–00 Worcester IceCats AHL &nbsp; — — — — — &nbsp; 2 0 0 2000–01 Regina Pats WHL &nbsp; 23 9 27 36 138 &nbsp; 6 0 3 
17177634 Oita Trinita 2007 J1 League 10 2 0 0 4 1 - - - - 14 3 Oita Trinita 2008 J1 League 34 4 0 0 9 0 - - - - 43 4 Oita Trinita 2009 J1 League 30 2 2 3 3 1 - - 3 0 38 6 Nagoya Grampus 2010 J1 League 25 4 2 0 3 0 - - - - 30 4 Nagoya Grampus 2011 J1 League 12 0 4 0 2 1 4 3 1 0 23 4 
17185703 2 5 Mark Martin Hendrick Motorsports Chevrolet 4 18 Kyle Busch Joe Gibbs Racing Toyota 5 14* Tony Stewart Stewart-Haas Racing Chevrolet 6 83 Brian Vickers Red Bull Racing Team Toyota 8 42 Juan Pablo Montoya Earnhardt Ganassi Racing Chevrolet 
1720632 Beachview 27501 0.78 500 Afrikaans Bethelsdorp 27502 77.64 134,617 Afrikaans Cannonvale 27504 0.69 196 Afrikaans Colchester 27505 1.28 743 Afrikaans Despatch 27506 38.75 25,086 Afrikaans 
17240867 1980 Ed Clark 33,263 0.73% 1984 David Bergland 6,982 0.14% 1988 Ron Paul 12,051 0.27% 1992 Andre Marrou 21,477 0.43% 1996 Harry Browne 28,000 0.62% 
17241142 1976 Roger MacBride 3,814 0.18% 1980 Ed Clark 29,135 1.28% 1984 David Bergland 4,884 0.22% 1988 Ron Paul 5,157 0.56% 1992 Andre Marrou 2,877 0.11% 
17252700 2 Gino Martino 1 {{dts|2000|10|20}} {{age in days nts|month1=10|day1=20|year1=2000|month2=05|day2=18|year2=2001}} Worcester, MA   3 Rick Fuller 1 {{dts|2001|05|18}} {{age in days nts|month1=05|day1=18|year1=2001|month2=06|day2=29|year2=2001}} Revere, MA   4 Gino Martino 2 {{dts|2001|06|29}} {{age in days nts|month1=06|day1=29|year1=2001|month2=09|day2=07|year2=2001}} Revere, MA   5 Ronnie D. Lishus 1 {{dts|2001|09|07}} {{age in days nts|month1=09|day1=07|year1=2001|month2=12|day2=14|year2=2001}} Lawrence, MA CW  7 Aaron Stevens 1 {{dts|2002|05|18}} {{age in days nts|month1=05|day1=18|year1=2002|month2=08|day2=16|year2=2002}} Methuen, MA   
17259661 4 Slyk Wagner Brown 1 {{dts|2001|07|13}} {{age in days nts|month1=07|day1=13|year1=2001|month2=09|day2=07|year2=2001}} Lawrence, MA   5 John Walters 1 {{dts|2001|09|07}} {{age in days nts|month1=09|day1=07|year1=2001|month2=02|day2=16|year2=2002}} Lawrence, MA   7 Billy Kryptonite 1 {{dts|2003|01|11}} {{age in days nts|month1=01|day1=11|year1=2003|month2=03|day2=07|year2=2003}} North Andover, MA   9 Billy Kryptonite 2 {{dts|2003|04|05}} {{age in days nts|month1=04|day1=05|year1=2003|month2=06|day2=06|year2=2003}} Methuen, MA   12 Brian Black 1 {{dts|2004|04|30}} {{age in days nts|month1=04|day1=30|year1=2004|month2=10|day2=29|year2=2004}} Methuen, MA   
17272137 Atlético Bilbao Bilbao San Mamés Atlético Madrid Madrid Metropolitano Barcelona Barcelona Les Corts Celta Vigo Balaídos Español Barcelona Sarriá 
17291808 1 9 Kasey Kahne Evernham Motorsports Dodge 400 190 2 16 Greg Biffle Roush Fenway Racing Ford 400 175 3 18 Kyle Busch Joe Gibbs Racing Toyota 400 170 4 24 Jeff Gordon Hendrick Motorsports Chevrolet 400 160 6 31 Jeff Burton Richard Childress Racing Chevrolet 400 155 
17295909 Brian Leetch New York Rangers 23 11 23 34 +19 6 Pavel Bure Vancouver Canucks 24 16 15 31 +8 40 Mark Messier New York Rangers 23 12 18 30 +14 33 Doug Gilmour Toronto Maple Leafs 18 6 22 28 +3 42 Trevor Linden Vancouver Canucks 24 12 13 25 +3 18 
1732139 John J. Cochran Democratic Missouri 1931–1940 Carter Manasco Democratic Alabama 1944–1947 Clare Hoffman Republican Michigan 1947–1949 Clare Hoffman Republican Michigan 1953–1955 Chester E. Holifield Democratic California 1970–1974 
17351388 1 5 Mark Winterbottom Ford BF Falcon Ford Performance Racing 0:56.4362   2 2 Mark Skaife Holden VE Commodore Holden Racing Team 0:56.4786   3 1 Garth Tander Holden VE Commodore Holden Racing Team 0:56.5891   5 4 James Courtney Ford BF Falcon Stone Brothers Racing 0:56.8055   6 6 Steven Richards Ford BF Falcon Ford Performance Racing 0:56.8862   
17432741 {{gold medal}} Pamela Jelimo Athletics Women's 800 m {{gold medal}} Brimin Kipruto Athletics Men's 3000 m steeplechase {{gold medal}} Wilfred Bungei Athletics Men's 800 m {{gold medal}} Nancy Lagat Athletics Women's 1500 m {{gold medal}} Samuel Wanjiru Athletics Men's marathon 
17433063 Centreman Lin Bend Portage Terriers Goaltender Ray Frederick Brandon Wheat Kings Defenceman Joe Crozier Brandon Wheat Kings Centreman Edward Leier Winnipeg Black Hawks Goaltender Ray Frederick Brandon Wheat Kings 
17437287 12 Macclesfield Town 0–0 York City 19 November 1983 Replay York City 2–0 Macclesfield Town 22 November 1983 15 Tranmere Rovers 2–2 Bolton Wanderers 19 November 1983 Replay Bolton Wanderers 4–1 Tranmere Rovers 22 November 1983 23 Scunthorpe United 1–0 Preston North End 19 November 1983 
17438349 10 Macclesfield Town 1–2 Hartlepool United 16 November 1985 13 Swindon Town 0–0 Bristol City 17 November 1985 Replay Bristol City 4–2 Swindon Town 20 November 1985 19 Wycombe Wanderers 2–0 Colchester United 16 November 1985 23 Exeter City 2–1 Cardiff City 16 November 1985 
17454400 1999 Gamba Osaka J1 5 0 2 0 2 0 - - - - 9 0 2000 Gamba Osaka J1 21 0 3 1 2 0 - - - - 26 1 2001 Gamba Osaka J1 26 2 3 1 4 1 - - - - 33 4 2002 Gamba Osaka J1 28 2 2 0 7 0 - - - - 37 2 2003 Gamba Osaka J1 29 5 2 0 5 0 - - - - 36 5 
17454434 2005 Kashima Antlers J1 League 8 0 0 0 4 1 – – – – 12 1 2006 Kashima Antlers J1 League 10 0 2 0 10 0 – – – – 22 0 2007 Kashima Antlers J1 League 22 6 3 0 7 0 – – – – 32 6 2008 Kashima Antlers J1 League 29 8 2 0 2 0 7 2 – – 40 10 2009 Kashima Antlers J1 League 32 12 3 1 2 0 6 3 1 1 44 17 
1745835 {{gold medal}} Konstantinos Kenteris Athletics Men's 200 metres {{gold medal}} Michail Mouroutsos Taekwondo Men's -58kg {{gold medal}} Pyrros Dimas Weightlifting Men's light heavyweight (-85kg) {{gold medal}} Kakhi Kakhiashvili Weightlifting Men's middle heavyweight (-94kg) {{silver medal}} Ekaterini Thanou Athletics Women's 100 metres 
17509930 1993–94 Cape Breton Oilers AHL &nbsp; 57 10 15 25 26 &nbsp; — — — 1994–95 Lukko Liiga &nbsp; 32 14 26 40 20 &nbsp; 9 2 6 1995–96 Lukko Liiga &nbsp; 50 28 44 72 58 &nbsp; 8 3 6 1996–97 MIF Redhawks SEL &nbsp; 49 27 24 51 28 &nbsp; 4 1 0 1997–98 MIF Redhawks SEL &nbsp; 45 14 25 39 26 &nbsp; — — — 
17514908 1984–85 HV71 SWE II &nbsp; 10 5 2 7 2 &nbsp; — — — 1985–86 HV71 SEL &nbsp; 30 7 8 15 18 &nbsp; 1 0 0 1986–87 HV71 SEL &nbsp; 36 14 5 19 16 &nbsp; — — — 1987–88 HV71 SEL &nbsp; 37 14 9 23 20 &nbsp; 2 1 0 1988–89 HV71 SEL &nbsp; 40 10 27 37 48 &nbsp; 3 1 2 
17517957 Waitomo District Te Kuiti 0 File:New Zealand PW-11 (right).svg {{jct|country=NZL|SH|3|dir1=south|name1=Awakino Road}} – New Plymouth
{{jct|country=NZL|SH|3|dir1=north|name1=Carroll Street}} – Waitomo Caves, Hamilton SH 30 begins Taupo District Mangakino 76 File:New Zealand road sign R2-2.svg Scott Road  Taupo District Mangakino  File:New Zealand road sign R2-1.svg Waipapa Road – Mangakino, Te Awamutu  Taupo District Whakamaru 84 File:New Zealand PW-11 (right).svg {{jct|country=NZL|SH|32|dir1=south|name1=Tihoi Road}} – Taupo, Turangi, National Park SH 30/SH 32 concurrency begins Taupo District Whakamaru 86 File:New Zealand PW-44.svg Whakamaru Dam (Waikato River)  
17541054 Olimpik 1–5 Sloboda Tuzla Gradina Srebrenik 0–0 Turbina Sloboda Tuzla 7–0 Travnik Olimpik 2–1 Gradina Srebrenik Travnik 4–7 Gradina 
17567844 Anguilla Malliouhana Arawak Arrow-Shaped Sea Serpent St. Martin Soualiga Oualichi Arawak Land of Salt; Land of Beautiful women St. Barths Ouanalao Arawak Toad on Top Saba Siba Amonhana Arawak The Rock St. Eustatius Aloi Arawak Cashew Tree 
17600737 {{STN|Mito|Ibaraki}} 水戸 - 0.0 Jōban Line
Ōarai Kashima Line ∨ Mito Ibaraki {{STN|Hitachi-Aoyagi}} 常陸青柳 1.9 1.9 &nbsp; ◇ Hitachinaka Ibaraki {{STN|Hitachi-Tsuda}} 常陸津田 2.2 4.1 &nbsp; ｜ Hitachinaka Ibaraki {{STN|Godai}} 後台 2.4 6.5 &nbsp; ｜ Naka Ibaraki {{STN|Shimo-Sugaya}} 下菅谷 1.3 7.8 &nbsp; ◇ Naka Ibaraki 
17637527 Akhrik Tsveiba {{Birth date and age2|1992|12|31|1966|9|10|df=y}} Dynamo Kyiv 1 (0) 26 (2) v Hungary, 26 August 1992 Oleh Luzhny {{Birth date and age2|1992|12|31|1968|8|5|df=y}} Dynamo Kyiv 1 (0) 9 (0) v Hungary, 29 April 1992 Yuriy Nikiforov {{Birth date and age2|1992|12|31|1970|09|16|df=y}} Chornomorets Odessa 3 (0) 7 (0) v Hungary, 26 August 1992 Serhiy Shmatovalenko {{Birth date and age2|1992|12|31|1967|1|20|df=y}} Dynamo Kyiv 1 (0) 3 (0) v Hungary, 26 August 1992 Serhiy Bezhenar {{Birth date and age2|1992|12|31|1970|08|09|df=y}} Dnipro Dnipropetrovsk 2 (0) 2 (0) v Belarus, 28 October 1992 
1765870 1961 Orton Chirwa Lower roll 71,659 98.8% {{Composition bar|22|28|hex={{Malawi Congress Party/meta/color}}}} {{increase}} 22 {{increase}} 1st 1961 Orton Chirwa Higher roll 385 10.3% {{Composition bar|22|28|hex={{Malawi Congress Party/meta/color}}}} {{increase}} 22 {{increase}} 1st 1964 Hastings Banda General roll Unknown Unknown {{Composition bar|50|53|hex={{Malawi Congress Party/meta/color}}}} {{increase}} 28 {{steady}} 1st 1964 Hastings Banda Special roll Unknown Unknown {{Composition bar|50|53|hex={{Malawi Congress Party/meta/color}}}} {{increase}} 28 {{steady}} 1st 1971 Hastings Banda Unknown Unknown Unknown {{Composition bar|60|60|hex={{Malawi Congress Party/meta/color}}}} {{increase}} 10 {{steady}} 1st 
1767997 18th 1975-1979  Neil Webber Progressive
Conservative 19th 1979-1982  Neil Webber Progressive
Conservative 20th 1982-1986  Neil Webber Progressive
Conservative 21st 1986-1989  Neil Webber Progressive
Conservative 22nd 1989-1993  Bonnie Laing Progressive
Conservative 
1768046 14th 1959–1963  Donald Fleming Social Credit 15th 1963–1967  Donald Fleming Social Credit 16th 1967–1971  Peter Lougheed Progressive Conservative 17th 1971–1975  Peter Lougheed Progressive Conservative 18th 1975–1979  Peter Lougheed Progressive Conservative 
1768095 23rd 1993-1997  Jim Dinning Progressive
Conservative 24th 1997-2001  Marlene Graham Progressive
Conservative 25th 2001-2004  Marlene Graham Progressive
Conservative 26th 2004-2008  Dave Rodney Progressive
Conservative 27th 2008-2012  Dave Rodney Progressive
Conservative 
1770179 1991–92 St. Louis Blues NHL  4 1 0 1 0  5 0 0 1992–93 St. Louis Blues NHL  42 0 8 8 30  10 0 0 1993–94 St. Louis Blues NHL  61 0 11 11 64  — — — 1993–94 Vancouver Canucks NHL  8 0 1 1 0  24 1 6 1994–95 Vancouver Canucks NHL  45 2 11 13 34  11 0 2 
17751788 4 Bournemouth 3–1 Bromsgrove Rovers 15 Kidderminster Harriers 0–1 Aylesbury United 19 Carlisle United 1–1 Crewe Alexandra Replay Crewe Alexandra 5–3 Carlisle United 20 Witton Albion 1–1 Halifax Town 
17751797 7 Preston North End 0–1 Mansfield Town 17/11/1990 21 Witton Albion 1–2 Bolton Wanderers 17/11/1990 22 Exeter City 1–2 Cambridge United 17/11/1990 25 Halesowen Town 1–2 Tranmere Rovers 17/11/1990 27 Hereford United 1–1 Peterborough United 17/11/1990 
17751803 7 Preston North End 1–0 Tranmere Rovers 18 Nov 1989 8 Sutton United 1–1 Torquay United 18 Nov 1989 Replay Torquay United 4–0 Sutton United 22 Nov 1989 12 Crewe Alexandra 2–0 Congleton Town 18 Nov 1989 14 Stafford Rangers 2–3 Halifax Town 18 Nov 1989 
17751811 4 Bath City 2–0 Grays Athletic 19 November 1988 5 Bristol City 3–1 Southend United 19 November 1988 7 Preston North End 1–1 Tranmere Rovers 19 November 1988 Replay Tranmere Rovers 3–0 Preston North End 22 November 1988 14 Stafford Rangers 2–2 Crewe Alexandra 19 November 1988 
17751827 3 Bristol City 1–0 Aylesbury United 14 November 1987 5 Preston North End 1–1 Mansfield Town 14 November 1987 Replay Mansfield Town 4–2 Preston North End 17 November 1987 11 Macclesfield Town 4–2 Carlisle United 14 November 1987 12 Wolverhampton Wanderers 5–1 Cheltenham Town 14 November 1987 
17751837 4 Bournemouth 7–2 Fareham Town 15 November 1986 5 Bath City 3–2 Aylesbury United 15 November 1986 10 Notts County 1–1 Carlisle United 15 November 1986 Replay Carlisle United 0–3 Notts County 18 November 1986 12 Swindon Town 4–0 Farnborough Town 15 November 1986 
17751859 14 Tranmere Rovers 0–0 York City 22 November 1980 Replay York City 1–2 Tranmere Rovers 25 November 1980 16 Wycombe Wanderers 0–3 Bournemouth 22 November 1980 19 Northampton Town 1–4 Peterborough United 22 November 1980 23 Southend United 0–1 Hereford United 22 November 1980 
1778023 Ethnic group European 80,600 {{Percentage | 80600| 108820| 1}} Ethnic group Aboriginal 16,925 {{Percentage | 16925| 108820| 1}} Ethnic group Filipino 1,845 {{Percentage | 1845| 108820| 1}} Ethnic group South Asian 1,350 {{Percentage | 1350| 108820| 1}} Ethnic group Black 765 {{Percentage | 765| 108820| 1}} 
1778028 Ethnic group European 55,595 {{Percentage | 55595| 87920| 1}} Ethnic group Aboriginal 29,115 {{Percentage | 29115| 87920| 1}} Ethnic group South Asian 1,175 {{Percentage | 1175| 87920| 1}} Ethnic group Filipino 760 {{Percentage | 760| 87920| 1}} Ethnic group Southeast Asian 570 {{Percentage | 570| 87920| 1}} 
1781772 1941 {{Abbr|GNB|Green Bay Packers}} 9 4 16 4 25.0% 54 2 0 80.7 43 137 3.2 3 16 0 0 0 0 0 1942 {{Abbr|GNB|Green Bay Packers}} 11 5 59 24 40.7% 310 3 4 46.6 89 272 3.1 3 50 10 66 6.6 0 15 1943 {{Abbr|GNB|Green Bay Packers}} 10 8 129 56 43.4% 875 9 12 51.0 94 489 5.2 3 35 3 31 10.3 2 15 1944 {{Abbr|GNB|Green Bay Packers}} 3 0 20 9 45.0% 89 0 0 58.1 31 149 4.8 0 34 1 12 12.0 0 12 1945 {{Abbr|GNB|Green Bay Packers}} Did not play due to service in World War II Did not play due to service in World War II Did not play due to service in World War II Did not play due to service in World War II Did not play due to service in World War II Did not play due to service in World War II Did not play due to service in World War II Did not play due to service in World War II Did not play due to service in World War II Did not play due to service in World War II Did not play due to service in World War II Did not play due to service in World War II Did not play due to service in World War II Did not play due to service in World War II Did not play due to service in World War II Did not play due to service in World War II Did not play due to service in World War II Did not play due to service in World War II Did not play due to service in World War II 
17822543 Battle of Ongal 680 Asparukh Constantine IV Bulgarian victory Battle of Marcellae 756 Vinekh Constantine V Byzantine victory Battle of the Rishki Pass 759 Vinekh Constantine V Bulgarian victory Battle of Marcellae 792 Kardam Constantine VI Bulgarian victory Battle of Pliska 26 July 811 Krum Nicephorus I Bulgarian victory 
1782562 30 {{flagicon|CAN}} {{sortname|Martin|Brodeur}} G L 1991 Montreal, Quebec first 18 {{flagicon|RUS}} {{sortname|Sergei|Brylin}} C L 1992 Moscow, Soviet Union first 3 {{flagicon|CAN}} {{sortname|Ken|Daneyko}} D L 1982 Windsor, Ontario first 28 {{flagicon|USA}} {{sortname|Kevin|Dean|dab=ice hockey}} D L 1987 Madison, Wisconsin first {{small|(did not play)}} 11 {{flagicon|USA}} {{sortname|Jim|Dowd|dab=ice hockey}} C R 1987 Brick, New Jersey first 
17827859 2 5 Mark Winterbottom Ford BF Falcon Ford Performance Racing 1:10.0184   3 18 Will Davison Ford BF Falcon Dick Johnson Racing 1:10.0328   4 15 Rick Kelly Holden VE Commodore HSV Dealer Team 1:10.0588   5 111 Fabian Coulthard Ford BF Falcon Paul Cruickshank Racing 1:10.0800   6 39 Russell Ingall Holden VE Commodore Paul Morris Motorsport 1:10.1399   
1783490 43 {{flagicon|USA}} {{sortname|Bob|Beers|dab=ice hockey}} D R 1985 Pittsburgh, Pennsylvania first 77 {{flagicon|CAN}} {{sortname|Ray|Bourque}} – C D L 1979 Saint-Laurent, Quebec second {{small|({{scfy|1988}})}} 12 {{flagicon|CAN}} {{sortname|Randy|Burridge}} LW L 1985 Fort Erie, Ontario second {{small|({{scfy|1988}})}} 42 {{flagicon|USA}} {{sortname|John|Byce}} C L 1985 Madison, Wisconsin first 34 {{flagicon|CAN}} {{sortname|Lyndon|Byers}} RW R 1982 Nipawin, Saskatchewan second {{small|({{scfy|1988}})}} 
1784933 1985–86 Mount Saint Charles Academy HS-RI  19 3 27 30   — — — 1986–87 Cornwall Royals OHL  63 7 29 36 75  5 0 0 1987–88 Cornwall Royals OHL  48 21 40 61 83  11 2 6 1987–88 Sherbrooke Canadiens AHL  — — — — —  3 0 3 1987–88 Montreal Canadiens NHL  4 0 0 0 2  — — — 
1793476 1991–92 Medicine Hat Tigers WHL  68 6 24 30 157  4 0 0 1992–93 Medicine Hat Tigers WHL  14 0 13 13 83  — — — 1992–93 Spokane Chiefs WHL  46 3 44 47 134  6 1 5 1993–94 Spokane Chiefs WHL  64 22 62 84 218  3 0 4 1994–95 Spokane Chiefs WHL  42 14 39 53 115  — — — 
1796099 1 GK Brad Friedel May 18, 1971 21 ? UCLA       2 DF Cam Rast January 16, 1970 22 ? Santa Clara University       5 DF Erik Imler June 1, 1971 21 ? Virginia Cavaliers       6 MF Dario Brose January 27, 1970 22 ? Stade Briochin       10 MF Claudio Reyna July 20, 1973 19 ? Virginia Cavaliers       
1798022   1722 Richard Abell Whig John Guise    1741 Charles Pilsworth  Viscount Petersham    1761 John Wilkes  Welbore Ellis    1784 Sir Thomas Hallifax  William Wrightson    1790 Scrope Bernard  Gerard Lake  
17987295 1957 Manubhai Shah Indian National Congress 1962 Manubhai Shah Indian National Congress 1989 Chandresh Patel Kordia Bharatiya Janata Party 1991 Chandresh Patel Kordia Bharatiya Janata Party 1996 Chandresh Patel Kordia Bharatiya Janata Party 
17987325 1952 Khandubhai Kasanji Desai Indian National Congress 1962 U. N. Dhebar Swatantra Party 1967 Minocher Rustom Masani Swatantra Party 1971 Ghanshyambhai Oza Indian National Congress 1977 Keshubhai Patel Bharatiya Lok Dal 
17987456 1952 Balvantray Mehta Indian National Congress 1957 Balvantray Mehta Indian National Congress 1962 Jashvant Mehta Praja Socialist Party 1967 Jivraj N. Mehta Indian National Congress 1977 Prasannbhai Mehta Janata Party 
17987736 1952 Gulzarilal Nanda Indian National Congress 1957 Gulzarilal Nanda Indian National Congress 1962 Gulzarilal Nanda Indian National Congress 1967 C.C. Desai Swatantra Party 1977 H.M. Patel Bharatiya Lok Dal 
1800772 2. 2009 Tokyo Hard QF Li 7–6(9–7), 4–6, 7–6(7–4) 2:11 3. 2010 Montreal Hard R16 Azarenka 6–3, 6–3 1:24 4. 2011 Australian Open Hard R16 Li 6–3, 6–3 1:24 5. 2011 French Open Clay QF Li 7–5, 6–2 1:29 6. 2011 Istanbul Hard RR Azarenka 6–2, 6–2 N/A 
18020325 2009 TEN 16 6 42 701 16.7 3 57 2.6 43.8 2010 TEN 12 7 42 775 18.5 9 80 3.5 64.6 2011 TEN 3 3 17 289 17.0 3 80 5.7 96.3 2012 TEN 14 11 45 589 13.1 4 46 3.2 42.1 2013 TEN 12 3 11 96 8.7 0 15 0.9 8.0 
18023403 06–21 06–22 {{flag|JEY}} WS {{nowrap|World Series of Snooker Jersey}} Fort Regent Saint Helier John Higgins Mark Selby 6–3  07–08 07–13 {{flag|THA}} VE Six-red Snooker International Montien Riverside Hotel Bangkok Ricky Walden Stuart Bingham 8–3  07–12 07–13 {{flag|GER}} WS World Series of Snooker Berlin Tempodrom Berlin Graeme Dott Shaun Murphy 6–1  08–24 08–31 {{flag|NIR}} WR Northern Ireland Trophy Waterfront Hall Belfast {{flagicon|ENG}} Ronnie O'Sullivan Dave Harold 9–3  09–29 10–05 {{flag|CHN}} WR Shanghai Masters Shanghai Grand Stage Shanghai Ricky Walden {{nowrap|{{flagicon|ENG}} [[Ronnie O'Sullivan]]}} 10–8  
18051284 2005–06 Tri-City Americans WHL  26 9 9 1 1270 62 3 2.93 .897  — — — — — — 2006–07 Tri-City Americans WHL  29 17 10 1 1577 75 1 2.85 .903  1 0 0 20 1 0 2007–08 Tri-City Americans WHL  64 46 12 4 3779 146 2 2.32 .918  16 11 3 1010 30 3 2008–09 Tri-City Americans WHL  50 35 12 3 2947 112 6 2.28 .921  11 6 4 650 37 0 2009–10 Milwaukee Admirals AHL  36 14 16 3 2024 96 1 2.85 .892  1 0 0 12 1 0 
1807270 2005 SF 14 1 127 608 4.8 72T 3 15 131 8.7 47 0 2 2 2006 SF 16 16 312 1,695 5.4 72 8 61 485 8.0 39 1 6 5 2007 SF 15 15 260 1,102 4.2 43T 5 53 436 8.2 23T 1 4 3 2008 SF 14 14 240 1,036 4.3 41T 6 43 373 8.7 26 2 6 3 2009 SF 14 14 229 1,120 4.9 80T 10 52 406 7.8 48 3 4 2 
18162085 Ziv Better Men's 100 m freestyle – S12 1:01.13 13 Did not advance Did not advance Ziv Better Men's 50 m freestyle – S12 27.35 11 Did not advance Did not advance Inbal Pezaro Women's 100 m freestyle – S5 1:22.89 4 1:21.57 Image:Silver medal icon.svg Inbal Pezaro Women's 200 m freestyle – S5 2:53.94 1 2:49.51 Image:Silver medal icon.svg Inbal Pezaro Women's 100 m breaststroke – SB4 2:01.28 1 1:57.75 Image:Silver medal icon.svg 
18199492 Amurrio Club 2–3 AET Racing de Santander SD Eibar 0–0 (2–4 PP) Real Valladolid Terrassa FC 1–1 (4–2 PP) RCD Espanyol UE Lleida 1–0 Valencia CF Algeciras CF 0–1 Sevilla FC 
18220643 2009 Moortown Golf Club Niall Kearney 208* 2006 Ganton Golf Club Robert Dinwiddie 282 2005 The Oxfordshire Golf Club Lloyd Saltman 278 2002 Royal Cinque Ports Golf Club Charl Schwartzel 282 1998 Formby Golf Club Peter Hanson 287 
18275311 &nbsp;3 Joey Harrington SR QB 2002 1 3 Detroit Lions &nbsp;9 Maurice Morris SR RB 2002 2 54 Seattle Seahawks 17 Rashad Bauman SR CB 2002 3 79 Washington Redskins 84 Justin Peelle SR TE 2002 4 103 San Diego Chargers 18 Wesly Mallard SR TE 2002 6 188 New York Giants 
1827534 1993–94 Aquinas Institute HS-NY            1995–96 Niagara Scenic MetJHL  51 47 44 91 59  — — — — 1996–97 Niagara Scenic MetJHL  50 57 70 127 101  6 6 11 17 2001–02 Albany River Rats AHL  37 9 16 25 18  — — — — 2001–02 New Jersey Devils NHL  33 4 7 11 8  6 2 2 4 
1829666 1835  George Poulett Scrope Whig  Charles Richard Fox Whig 1852  George Poulett Scrope Whig  Lord Moreton Whig 1859  George Poulett Scrope Liberal  Edward Horsman Liberal 1868  Henry Winterbotham Liberal  Sebastian Dickinson Liberal Jan. 1874 by-election  John Dorington Conservative  Sebastian Dickinson Liberal 
18306140 Elche 2–3 Espanyol Alicante 1–2 Villarreal Badajoz 1–4 Real Betis Barakaldo 0–1 Racing Santander Gramenet 0–1 Barcelona 
18330785 Defensor Lima 1 1974 Palestino 1 1979 Jorge Wilstermann 1 1981 Deportes Tolima 1 1982 Sporting Cristal 1 1997 
18334562 1 1997 Los Angeles {{USA}} 2 2 1999 Marseille {{FRA}} 2 3 2001 Klagenfurt {{AUT}} 2 4 2003 Rio de Janeiro {{BRA}} 2 5 2005 Berlin {{GER}} 2 
18341377 2003–04 Lethbridge Hurricanes WHL  67 5 9 14 25  — — — 2004–05 Lethbridge Hurricanes WHL  70 35 51 86 40  5 1 2 2005–06 Lethbridge Hurricanes WHL  67 25 50 75 63  6 1 5 2006–07 Tri-City Americans WHL  59 40 37 77 57  6 1 2 2007–08 Tri-City Americans WHL  67 48 49 97 63  16 10 11 
18363166 1950 {{cbsb link|year=1950|team=Wake Forest Demon Deacons|school=Wake Forest University|title=Wake Forest}} Greensboro, North Carolina  1951 {{cbsb link|year=1951|team=Duke Blue Devils|school=Duke University|title=Duke}} Greensboro, North Carolina Bob Davis, Duke 1985 {{cbsb link|year=1985|team=Western Carolina Catamounts|school=Western Carolina University|title=Western Carolina}} Boone, North Carolina Mike Carson, Western Carolina 1987 {{cbsb link|year=1987|team=Western Carolina Catamounts|school=Western Carolina University|title=Western Carolina}} Asheville, North Carolina Clint Fairey, Western Carolina 1988 {{cbsb link|year=1988|team=Western Carolina Catamounts|school=Western Carolina University|title=Western Carolina}} Asheville, North Carolina Keith LeClair, Western Carolina 
18414537 1 6 Peter Gethin Yardley-BRM BRM 19:54.4 2 2 8 Emerson Fittipaldi Gold Leaf Team Lotus Lotus-Cosworth + 0.2 s 3 3 1 Jackie Stewart Elf Team Tyrrell Tyrrell-Cosworth + 5.4 s 6 4 5 Jo Siffert Yardley-BRM BRM + 12.8 s 1 5 12 Tim Schenken Motor Racing Developments Brabham-Cosworth + 15.6 s 7 
18415025 1977–78 Victoria Federal 1982–83 Dandy Independiente Villela 1985–86 Tela Timsa Universidad 1988–89 Curacao Universidad 1990–91 Tela Timsa Sula 
18435760 Arema Malang Kanjuruhan 35,000 Deltras Sidoarjo Gelora Delta 35,000 Pelita Jaya Bandung Si Jalak Harupat 27,000 Persela Lamongan Surajaya 15,000 Persib Bandung Siliwangi 15,000 
1844246 1998–99 HPK SM-l  28 0 1 1 0  8 0 0 1999–2000 HPK SM-l  50 4 3 7 18  8 0 0 2000–01 HPK SM-l  2 1 3 4 0  — — — 2001–02 Hershey Bears AHL  52 6 17 23 16  — — — 2001–02 Colorado Avalanche NHL  22 2 3 5 14  21 1 2 
18458163 1 4 James Courtney Ford BF Falcon Stone Brothers Racing 1:10.7351   2 5 Mark Winterbottom Ford BF Falcon Ford Performance Racing 1:10.7438   3 39 Russell Ingall Holden VE Commodore Supercheap Auto Racing 1:10.8066   5 2 Mark Skaife Holden VE Commodore Holden Racing Team 1:10.8887   6 1 Garth Tander Holden VE Commodore Holden Racing Team 1:10.9096   
18484319 1 17 August 2008 Adelaide United 1 – 0
Dodd {{goal|41}} Perth Glory 10,510 Hindmarsh Stadium 2 24 August 2008 Queensland Roar 1 – 1
Dodd {{goal|8|[[Penalty kick (association football)|pen]]}} Adelaide United 12,761 Suncorp Stadium 3 30 August 2008 Adelaide United 3 -0
Pantelis {{goal|15}}
Cristiano {{goal|49}}, {{goal|60}} Wellington Phoenix 7,832 Hindmarsh Stadium 4 12 September 2008 Melbourne Victory 1–0 Adelaide United 24,812 Telstra Dome 5 20 September 2008 Sydney FC 3–0 Adelaide United 12,462 Sydney Football Stadium 
18490944 Total 210 kg Hou Zhihui {{CHN}} 23 February 2019 World Cup {{flagicon|CHN}} Fuzhou, China  Clean & Jerk 128 kg Liao Qiuyun {{CHN}} 22 April 2019 Asian Championships {{flagicon|CHN}} Ningbo, China  Snatch 106 kg Kuo Hsing-chun {{TPE}} 23 April 2019 Asian Championships {{flagicon|CHN}} Ningbo, China  Clean & Jerk 137 kg Kuo Hsing-chun {{TPE}} 23 April 2019 Asian Championships {{flagicon|CHN}} Ningbo, China  Total 243 kg Kuo Hsing-chun {{TPE}} 23 April 2019 Asian Championships {{flagicon|CHN}} Ningbo, China  
18494173 {{leagueicon|Bradford|16}} Bradford Bulls Bradford, West Yorkshire Odsal Stadium 27,000 Super League {{leagueicon|crusaders|16}} Celtic Crusaders Wrexham, Wales Racecourse Ground 15,000 Super League {{leagueicon|featherstone|16}} Featherstone Rovers Featherstone, West Yorkshire Post Office Road 9,850 National League 1 {{leagueicon|halifax|16}} Halifax Halifax, West Yorkshire The Shay 15,000 National League 1 {{leagueicon|harlequins|16}} Harlequins Twickenham, London Twickenham Stoop 14,000 Super League 
1849606 {{dts|2002|04|15|format=y}} Spider-Man Harry Osborn &nbsp;  {{dts|2004|04|27|format=y}} Onimusha 3: Demon Siege Ranmaru Mori &nbsp;  {{dts|2004|11|17|format=y}} Metal Gear Solid 3: Snake Eater Major Ocelot &nbsp;  {{dts|2006|12|05|format=y}} Metal Gear Solid: Portable Ops Major Ocelot &nbsp;  {{dts|2007|10|02|format=y}} Spider-Man: Friend or Foe New Goblin &nbsp;  
1855173 Bulgaria Burgas Burgas Airport   Belarus Minsk Minsk National Airport   Israel Tel Aviv Ben Gurion Airport   Kazakhstan Aktau Aktau Airport   Kazakhstan Almaty Almaty International Airport   
18553497 1 8 August 2008 Ghazl El-Mehalla A 2 &ndash; 0 Amr Ramadan(og) 10', Mahmoud Fathalla 48'  2 14 August 2008 Ittihad H 1 &ndash; 1 Mahmoud Fathalla 6'  3 24 August 2008 Masry H 2 &ndash; 1 Wisam El-Abdi 2', Junior Agogo 52'  4 27 Sep 2008 Itesalat A 4 &ndash; 2 Gamal Hamza 45', Mahmoud Fathalla 67'(Pen), Mostafa Gaafar 81', Mahmoud Samir 94'  5 29 Sep 2008 Tersana H 1 &ndash; 0 Mostafa Gaafar 27'  
18574410 Edward Dowden Hamlet 1899 Edward Dowden Romeo and Juliet 1900 W. J. Craig King Lear 1901 Edward Dowden Cymbeline 1903 H. C. Hart Othello 1903 
18602462 Chantal Boonacker S7 50 m freestyle 34.98 3 Q 34.54 4 Chantal Boonacker S7 100 m freestyle N/A N/A 1:14.59 4 Chantal Boonacker S7 400 m freestyle 5:35.89 3 Q 5:35.31 4 Chantal Boonacker S7 100 m backstroke 1:26.68 3 Q 1:26.30 Image:Bronze medal icon.svg Mirjam de Koning S6 50 m freestyle 36.38 1 Q 35.60 WR Image:Gold medal icon.svg 
18604370 1 Barney Rock Dublin 0-11 11 Westmeath 1 Larry Tompkins Cork 0-11 11 Galway 3 Brian Stafford Meath 0-10 10 Kildare 5 Barney Rock Dublin 0-8 8 Wicklow 5 Larry Tompkins Cork 0-8 8 Kerry 
18605952 Serdica 1–9 Mura Triglav Kranj 0–6 Rudar Velenje Naklo 4–2 Svoboda Izola 2–0 Jadran Dekani Slovan 1–7 Korotan Prevalje 
18631275 1. FC Kaiserslautern 2 – 1 FC St. Pauli SV Werder Bremen 4 – 1 Hannover 96 Karlsruher SC 2 – 1 Stuttgarter Kickers Borussia Dortmund 6 – 0 Eintracht Braunschweig SV Meppen 1 – 2 Bayer 05 Uerdingen 
18638543 File:Barron falls january2005.JPG Barron Falls Barron Gorge National Park {{convert|125|m|ft|0|disp=table}} Cascade {{coord|16|50|19|S|145|38|45|E|type:landmark_region:AU-QLD|name=Barron Falls}}  File:Goomoolahra.jpg Bilbrough Falls Springbrook National Park   Cascade {{coord|28|13|22|S|153|17|06|E|type:landmark_region:AU-QLD|name=Bilbrough Falls}}  File:Blencoe falls.jpg Blencoe Falls Girringun National Park {{convert|320|m|ft|0|disp=table}} Segmented {{coord|18|13|27|S|145|32|23|E|type:landmark_region:AU-QLD|name=Blencoe Falls}}   Box Log Falls Lamington National Park    {{coord|28.242321|S|153.153448|E|type:landmark_region:AU-QLD|name=Box Log Falls}}   Clamshell Falls Wooroonooran National Park   Cascade {{coord|17|11|22|S|145|49|24|E|region:AU-QLD_type:landmark|name=Clamshell Falls}}  
18646246 Al Ahly Cairo Cairo Stadium Zamalek Giza Cairo Stadium Ismaily Ismailia Ismailia Stadium Al Itthad Al Sakandary Alexandria Alexandria Stadium Al Masry Port Said Port Said Stadium 
18657589 2 Bristol City 3–1 Bolton Wanderers 9 January 1979 4 Leicester City 3–0 Norwich City 6 January 1979 6 Nottingham Forest 2–0 Aston Villa 10 January 1979 11 Swindon Town 3–0 Cardiff City 9 January 1979 12 Shrewsbury Town 3–1 Cambridge United 6 January 1979 
18706 1952 High Noon Jack Colby Fred Zinnemann with Gary Cooper and Grace Kelly 1952 Untamed Frontier Dave Chittun Hugo Fregonese with Joseph Cotten and Shelley Winters 1952 Kansas City Confidential Tony Romano Phil Karlson with John Payne and Coleen Gray 1953 The Lawless Breed Dirk Hanley Raoul Walsh with Rock Hudson 1953 The Bandits of Corsica Nerva Ray Nazarro  
18711843 11 Sheffield Wednesday 2–0 Stockport County 20 November 1976 12 Crewe Alexandra 1–1 Preston North End 20 November 1976 Replay Preston North End 2–2 Crewe Alexandra 23 November 1976 Replay Crewe Alexandra 0–3 Preston North End 29 November 1976 14 Stafford Rangers 0–0 Halifax Town 20 November 1976 
18725594 "Stop Lying" 1996 Mr. Mike Wicked Wayz "The Player Way" 1997 Mase Harlem World "In My Nature" 1997 Luniz Lunitik Muzik "Sesshead Funk Junky" 1999 MC Breed 2 for the Show "Bobby & Whitney" 2006 Pimp C Pimpalation 
18726561 4 Notts County 0–1 Leeds United 3 January 1976 5 Nottingham Forest 0–0 Peterborough United 1 January 1976 Replay Peterborough United 1–0 Nottingham Forest 7 January 1976 8 West Bromwich Albion 3–1 Carlisle United 3 January 1976 11 Luton Town 2–0 Blackburn Rovers 3 January 1976 
18735456 5 Old Trafford 74,994 Manchester England Super League Grand Final 27 Henson Park 30,000 Sydney Australia Newtown Jets 29 Odsal Stadium 27,491 Odsal England Bradford Bulls 30 Robina Stadium 27,400 Gold Coast Australia Gold Coast Titans 31 RZD Arena 27,320 Moscow Russia RC Lokomotiv Moscow 
18747057 1992 Verdy Kawasaki J1 League - - 5 0 9 0 14 0 1993 Verdy Kawasaki J1 League 28 0 3 0 8 0 39 0 1994 Verdy Kawasaki J1 League 39 0 2 0 2 0 43 0 1995 Verdy Kawasaki J1 League 36 0 3 0 - - 39 0 1996 Verdy Kawasaki J1 League 30 0 5 0 15 0 50 0 
18749240 Ilet a Brouee {{HTI}} Caribbean Sea 500 0.004 125,000 {{coord|18|07|42|N|73|35|26|W}} Migingo Island {{KEN}} Lake Victoria 131 0.007 18,714 {{coord|0|52|59|S|33|56|20|E}} Ebeye {{MHL}} Pacific Ocean 15,000 0.360 41,667 {{coord|8|46|49|N|167|44|14|E}} Santa Cruz del Islote {{COL}} Caribbean Sea 485 0.012 40,417 {{coord|9|47|9|N|75|51|33|W}} Arwad {{SYR}} Mediterranean Sea 4,403 0.2 22,015 {{coord|34|51|22|N|35|51|32|E}} 
18769154 Mils Muliaina 15 Josh Lewsey Doug Howlett 14 Mark Cueto Aaron Mauger 12 Mike Tindall Dan Carter 10 Charlie Hodgson Byron Kelleher 9 Matt Dawson 
18784650 Brandon LaFell WR WR Doug Baldwin Nate Solder LT LT Russell Okung Bryan Stork C C Max Unger Ryan Wendell RG RG J. R. Sweezy Sebastian Vollmer RT RT Justin Britt 
18792950 895 Wet Hare LT Robert McKimson Bugs, Blacque Jacque Shellacque 1568 {{nowrap|January 20, 1962}} N/A  896 A Sheep in the Deep MM Chuck Jones Co-Director: Maurice Noble Ralph and Sam 1563 February 10, 1962 Laserdisc – Looney Tunes: Assorted Nuts Edited into Bugs Bunny's 3rd Movie: 1001 Rabbit Tales in 1982, but removed for future releases 898 Quackodile Tears MM Art Davis Daffy 1582 March 31, 1962 VHS – Looney Tunes Video Show #2  901 Bill of Hare MM Robert McKimson Bugs, Taz 1612 June 9, 1962 DVD – LTPC Volume 1, Disc 2  902 Zoom at the Top MM Chuck Jones Co-Director: Maurice Noble Wile E. and Road Runner 1574 June 30, 1962 VHS – Looney Tunes: The Collector's Edition - Volume 15 - A Battle of Wits  
18810468 1994 Silvia Hauser Michaela Brunngraber Christine Koschier-Bitante 1999 Ulrike Baumgartner Isabella Wieser Andrea Graus 2000 Andrea Purner-Koschier Ulrike Baumgartner Andrea Graus 2001 Andrea Purner-Koschier Andrea Graus Doris Posch 2003 Bernadette Schober Andrea Graus Doris Posch 
1884120 1995 July 22 23 Chad Little Mark Rypien Motorsports Ford 117 311.22 (500.86) 2:31:56 122.904 1996 July 27 29 Greg Sacks Diamond Ridge Motorsports Chevrolet 117 311.22 (500.86) 2:13:55 139.438 1997 April 26 60 Mark Martin Roush Racing Ford 117 311.22 (500.86) 1:50:32 168.937 1998 April 25 87 Joe Nemechek NEMCO Motorsports Chevrolet 113 300.58 (483.736) 2:32:35 118.196 1999 April 24 33 Terry Labonte Labonte Motorsports Chevrolet 113 300.58 (483.736) 1:59:36 150.793 
1892783 1983–84 Brantford Alexanders OHL  66 25 46 71 165  6 4 1 1985–86 Montreal Canadiens NHL  3 0 0 0 2  — — — 1986–87 Montreal Canadiens NHL  55 12 11 23 144  17 6 5 1987–88 Montreal Canadiens NHL  71 12 27 39 152  3 1 0 1988–89 Montreal Canadiens NHL  80 26 24 50 193  21 4 5 
18931416 SC Charlottenburg 0 – 3 SV Darmstadt 98 SV Werder Bremen 0 – 0 Alemannia Aachen (AET) Eintracht Frankfurt 3 – 1 Eintracht Braunschweig Hamburger SV 3 – 0 SG Union Solingen Tennis Borussia Berlin 0 – 5 Stuttgarter Kickers 
19025112 Al-Karamah Homs Khaled bin Walid Stadium Syrian Premier League Champions AFC Cup 2009 representative Al-Majd Damascus Abbasiyyin Stadium 2nd in Syrian Premier League AFC Cup 2009 representative Al-Ittihad Aleppo Aleppo International Stadium 3rd in Syrian Premier League 2008–09 Arab Champions League representative Al-Taliya Hamah Al Baladi Stadium Hama 4th in Syrian Premier League 2008–09 Arab Champions League representative Al-Jaish Damascus Abbasiyyin Stadium 5th in Syrian Premier League 
19044041 1. FSV Mainz 05 0 – 1 VfB Stuttgart FC 08 Homburg 0 – 6 Hertha BSC Alemannia Aachen 1 – 0 VfL Bochum Hamburger SV 4 – 1 Borussia Dortmund SV Waldhof Mannheim 3 – 1 Bayer 04 Leverkusen 
19061387 {{gold medal}} Mauro Maximo de Jesus Athletics Men's shot put F53/54 {{gold medal}} Perla Bustamante Athletics Women's 100m T42 {{gold medal}} Juan Ignacio Reyes Swimming Men's 50m backstroke S4 {{gold medal}} Pedro Rangel Swimming Men's 100m breaststroke SB5 {{gold medal}} Patricia Valle Swimming Women's 50m freestyle S3 
19062221 {{gold medal}} Maher Bouallegue Athletics Men's 1500m T13 {{gold medal}} Mohamed Charmi Athletics Men's 1500m T37 {{gold medal}} Maher Bouallegue Athletics Men's 5000m T12 {{gold medal}} Maher Bouallegue Athletics Men's 10000m T13 {{gold medal}} Afrah Gomdi Athletics Women's shot put F40 
19064195 {{gold medal}} Salvador Hernandez Athletics Men's 100m T52 {{gold medal}} Edgar Navarro Athletics Men's 200m T51 {{gold medal}} Mauro Maximo de Jesus Athletics Men's shot put F53 {{gold medal}} Luis Zepeda Athletics Men's javelin throw F54 {{gold medal}} Maria Salas Athletics Women's shot put F32-34/52/53 
19065453 1 {{flagicon|GBR}} Nigel Mansell Newman-Haas Racing Lola T93/06 Ford XB Cosworth 1:38.555 2 {{flagicon|BRA}} Emerson Fittipaldi Team Penske Penske PC-22-93 Chevrolet-Ilmor C 1:38.882 3 {{flagicon|CAN}} Paul Tracy Team Penske Penske PC-22-93 Chevrolet-Ilmor C 1:39.171 4 {{flagicon|USA}} Robby Gordon AJ Foyt Enterprises Lola T92/00 Ford XB Cosworth 1:39.435 5 {{flagicon|NED}} Arie Luyendyk Chip Ganassi Racing Lola T93/06 Ford XB Cosworth 1:39.635 
19070592 2 {{flagicon|USA}} Michael Andretti Newman-Haas Racing Lola T91/00 Ford XB Cosworth  3 {{flagicon|BRA}} Emerson Fittipaldi Team Penske Penske PC21-92 Chevrolet-Ilmor B  4 {{flagicon|USA}} Bobby Rahal Rahal-Hogan Racing Lola T92/00 Chevrolet-Ilmor A  5 {{flagicon|USA}} Rick Mears Team Penske Penske PC21-92 Chevrolet-Ilmor B  6 {{flagicon|USA}} Mario Andretti Newman-Haas Racing Lola T91/00 Ford XB Cosworth  
19078123 1 2 {{flagicon|USA}} Michael Andretti Newman-Haas Racing Lola T91/00 Chevrolet-Ilmor A 1:40.047 2 8 {{flagicon|USA}} Eddie Cheever Chip Ganassi Racing Lola T91/00 Chevrolet-Ilmor A 1:40.090 4 18 {{flagicon|USA}} Bobby Rahal Galles-Kraco Racing Lola T91/00 Chevrolet-Ilmor A 1:40.330 5 6 {{flagicon|USA}} Mario Andretti Newman-Haas Racing Lola T91/00 Chevrolet-Ilmor A 1:40.566 6 5 {{flagicon|BRA}} Emerson Fittipaldi Team Penske Penske PC-20-91 Chevrolet-Ilmor A 1:40.774 
19086 CZ 75 File:Cz75.jpg Pistol {{CZE}} 9×19mm CZ-99/999 File:Zastava CZ 99-IMG 6547-white.jpg Pistol {{YUG}} 9×19mm Daewoo DP-51 File:Daewoo DP51.JPG Pistol {{ROK}} 9×19mm HS2000 File:HS 2000 cal. 9x19.JPG Pistol {{CRO}} 9×19mm H&K MP5 File:MP5A3 Marinir.jpg Submachine gun {{FRG}} 9×19mm 
19110822 Winner 2. 15-Mar-2005 Orange Hard Jennifer Hopkins {{flagicon|NZL}} Leanne Baker
{{flagicon|ITA}} Francesca Lubiani 6–3, 6–4 Winner 3. 19-Apr-2005 Dothan Clay Galina Voskoboeva {{flagicon|USA}} Julie Ditty
{{flagicon|CZE}} Vladimíra Uhlířová 4–6, 6–1, 6–2 Winner 6. June 18, 2006 Allentown Hard Tetiana Luzhanska {{flagicon|USA}} Julie Ditty
{{flagicon|USA}} Ansley Cargill 6–3, 6–4 Runner-up 1. October 22, 2006 Houston Hard Laura Granville {{flagicon|USA}} Julie Ditty
{{flagicon|USA}} Tetiana Luzhanska 6–4, 4–6, 7–5 Winner 9. 14-Jan-2008 Surprise Hard Shenay Perry {{flagicon|BRA}} Maria Fernanda Alves
{{flagicon|ARG}} Betina Jozami 6–4, 7–5 
19142938 4 Preston North End 3–0 Nottingham Forest 4 January 1969 7 Blackburn Rovers 2–0 Stockport County 4 January 1969 8 Aston Villa 2–1 Queens Park Rangers 4 January 1969 9 Sheffield Wednesday 1–1 Leeds United 4 January 1969 Replay Leeds United 1–3 Sheffield Wednesday 8 January 1969 
19170576 12 Crewe Alexandra 3–0 Scunthorpe United 13 November 1965 15 Shrewsbury Town 2–1 Torquay United 13 November 1965 16 Doncaster Rovers 2–2 Wigan Athletic 13 November 1965 Replay Wigan Athletic 3–1 Doncaster Rovers 17 November 1965 18 Tranmere Rovers 0–1 Stockport County 13 November 1965 
19176993 SG Wattenscheid 09 0 – 3 Eintracht Braunschweig Hannover 96 II 2 – 3 Bayer 04 Leverkusen (AET) VfL Bochum 3 – 1 Karlsruher SC FSV Frankfurt 3 – 2 1. FC Kaiserslautern SV Waldhof Mannheim 2 – 0 Eintracht Frankfurt 
1917819 California State Polytechnic University, Pomona Pomona 1938 26,443 Broncos {{college color boxes|Cal Poly Pomona Broncos}} 1967 California State University, Chico Chico 1887 17,488 Wildcats {{college color boxes|Chico State Wildcats}} 1998 California State University, Dominguez Hills Carson 1960 15,741 Toros {{college color boxes|Cal State Dominguez Hills Toros}} 1980 California State University, East Bay Hayward 1957 14,525 Pioneers {{college color boxes|Cal State East Bay Pioneers}} 2009 California State University, Los Angeles Los Angeles 1947 27,685 Golden Eagles {{college color boxes|Cal State Los Angeles Golden Eagles}} 1950;
1974 
19207287 {{gold medal}} David Drahoninsky Archery Men's individual compound W1 {{gold medal}} Eva Kacanu Athletics Women's shot put F54-56 {{gold medal}} Jiri Jezek Cycling Men's road time trial LC2 {{gold medal}} Jiri Jezek Cycling Men's individual pursuit LC2 {{gold medal}} Bela Hlavackova Swimming Women's 50m backstroke S5 
19251517 2 4 James Courtney Ford BF Falcon Stone Brothers Racing 1:33.3345 3 1 Garth Tander Holden VE Commodore Holden Racing Team 1:33.3444 4 18 Will Davison Ford BF Falcon Dick Johnson Racing 1:33.3855 5 39 Russell Ingall Holden VE Commodore Paul Morris Motorsport 1:33.7452 6 3 Jason Richards Holden VE Commodore Tasman Motorsport 1:33.9237 
19273392 Hertha BSC 5 – 1 Bayer Leverkusen II VfB Stuttgart 5 – 0 FC Rastatt 04 SV 1916 Sandhausen 3 – 6 Arminia Bielefeld SpVgg Landshut 2 – 3 FV Hassia Bingen SV Werder Bremen 1 – 0 1. FC Kaiserslautern 
19298578 1 {{Flag icon|Australia}} Will Power KV Racing Technology  1:50.4357 1:40.4642 1:34.9451 2 {{Flag icon|New Zealand}} Scott Dixon Chip Ganassi Racing  1:50.7996 1:39.2049 1:35.7672 3 {{Flag icon|Australia}} Ryan Briscoe Team Penske 1:55.4900  1:40.3121 1:35.8007 4 {{Flag icon|UK}} Dario Franchitti Chip Ganassi Racing  1:51.3389 1:39.8594 1:35.9336 5 {{Flag icon|USA}} Ryan Hunter-Reay Rahal Letterman Racing 1:53.1807  1:40.8848 1:36.4030 
1934334 1993–94 Liga ASOBAL 1/4 City Cup 1/2 1994–95 Liga ASOBAL 6 EHF Cup Champion 1995–96 Liga ASOBAL 5 EHF Cup Champion 1996–97 Liga ASOBAL 11 EHF Cup 1/2 2004–05 Liga ASOBAL 6 EHF Cup 1/4 
19348929 Edward Robbins Democratic-Republican 1793–1802 Boston Elected Lieutenant Governor of Massachusetts Perez Morton Democratic-Republican 1806–1808 Dorchester Party lost majority Perez Morton Democratic-Republican 1810–1811 Dorchester Resigned Joseph Story Democratic-Republican 1811–1812 Salem Resigned when appointed Associate Justice of the Supreme Court of the United States Eleazer Ripley Democratic-Republican 1812 Waterville Joined United States Army 
19353194 KINY Juneau, Alaska 10 7.6 {{coord|58.301389|-134.440556|name=KINY - 10 kW day, 7.6 kW night}} KQAD Luverne, Minnesota 0.5 0.08 {{coord|43.650278|-96.171944|name=KQAD - 0.5 kW day, 0.08 kW night}} KREI Farmington, Missouri 1 0.15 {{coord|37.792222|-90.41|name=KREI - 1 kW day, 0.15 kW night}} KXIC Iowa City, Iowa 1 0.199 {{coord|41.6875|-91.544167|name=KXIC - 1 kW day, 0.199 kW night}} WDEH Sweetwater, Tennessee 1 0.379 {{coord|35.613611|-84.459167|name=WDEH - 1 kW day, 0.379 kW night}} 
19365468 October 31, 1990 Calgary Canada Olympic Saddledome November 2, 1990 Edmonton Canada Northlands Coliseum November 3, 1990 Saskatoon Canada Saskatchewan Place November 4, 1990 Winnipeg Canada Winnipeg Arena November 7, 1990 Indianapolis United States Market Square Arena 
1936626 2017 Tommy Fleetwood {{ENG}} Le Golf National 272 (−12) 1 stroke Peter Uihlein 2016 Thongchai Jaidee {{THA}} Le Golf National 273 (−11) 4 strokes Francesco Molinari 2012 Marcel Siem {{DEU}} Le Golf National 276 (−8) 1 stroke Francesco Molinari 2009 Martin Kaymer {{DEU}} Le Golf National 271 (−13) Playoff Lee Westwood 2002 Malcolm MacKenzie {{ENG}} Le Golf National 274 (−14) 1 stroke Trevor Immelman 
19367582 1 6 {{flagicon|Australia}} Mark Winterbottom
{{flagicon|New Zealand}} Steven Richards Ford BF Falcon Ford Performance Racing 2:07.1920  2 3 {{flagicon|New Zealand}} Jason Richards
{{flagicon|New Zealand}} Greg Murphy Holden VE Commodore Sprint Gas Racing 2:07.2333  4 4 {{flagicon|Australia}} James Courtney
{{flagicon|Australia}} David Besnard Ford BF Falcon Jeld-Wen Motorsport 2:07.2972  5 1 {{flagicon|Australia}} Garth Tander
{{flagicon|Australia}} Mark Skaife Holden VE Commodore Holden Racing Team 2:07.3645  6 18 {{flagicon|Australia}} Will Davison
{{flagicon|Australia}} Steven Johnson Ford BF Falcon Jim Beam Racing 2:07.4599  
19373397 1. FC Kaiserslautern 2 – 0 MSV Duisburg Karlsruher SC 5 – 1 SC Freiburg Alemannia Aachen 0 – 1 SV Werder Bremen Heidenheimer SB 0 – 4 Hertha BSC Hamburger SV 6 – 0 FC 1908 Villingen 
1938252 1962–63 DWS Go Ahead 1963–64 Sittardia Telstar 1965–66 Sittardia Xerxes 1967–68 Holland Sport AZ'67 1968–69 SVV HFC Haarlem 
19413144 1953 Boum sur Paris Herself Maurice de Canonge  1954 Royal Affairs in Versailles Madame Langlois Sacha Guitry  1955 Beautiful But Dangerous  Robert Z. Leonard  1956 The Singer from Mexico Cri-Cri Richard Pottier  1973 Le mataf Nina Serge Leroy  
19414081 AKM Assault Rifle File:AKM automatkarbin - 7,62x39mm.jpg Virtually phased out Kbs wz. 1996 Beryl Assault Rifle File:Rifle wz.1996 Beryl.jpg Most commonly used weapon. Pallad grenade launcher Grenade Launcher File:Grenade launcher wz.83 Pallad D.jpg  SWD Sniper Rifle File:SVDM sniper rifle at Military-technical forum ARMY-2016 01.jpg  Sako TRG Sniper Rifle File:Sako TRG folding stock + Zeiss 3-12x56 SSG P.JPG  
19425098 Freiburger FC 6 – 1 SpVgg Neckarelz Arminia Bielefeld 2 – 1 Hamburger SV (AET) MSV Duisburg 4 – 3 SG Wattenscheid 09 VfB Stuttgart 12 – 0 Spandauer SV SV Darmstadt 98 4 – 1 DJK Abenberg 
1945024 1 15 May 1976 Piccadilly Medal −15 (67-72-66-72=277) 2 strokes Bob Shearer 2 12 Jun 1976 Martini International −8 (69-67-71-73=280) 2 strokes Tommy Horton 5 7 Nov 1982 Portuguese Open −9 (71-67-69=207) 4 strokes Nick Faldo 6 3 Jul 1983 Scandinavian Enterprise Open −8 (73-69-68-70=280) 1 stroke Craig Stadler 7 6 Nov 1983 Portuguese Open −2 (72-73-71-70=286) 3 strokes Chris Moody 
19478656 Carl Barisich DT Princeton Cleveland Browns Nick Bebout OT Wyoming Atlanta Falcons Lyle Blackwood DB TCU Cincinnati Bengals Don Clune WR Pennsylvania New York Giants Rondy Colbert DB Lamar New York Giants 
19479147 5 Nottingham Forest 0–2 Stockport County 10 December 1949 6 Crewe Alexandra 1–1 Oldham Athletic 10 December 1949 Replay Oldham Athletic 0–0 Crewe Alexandra 13 December 1949 Replay Crewe Alexandra 0–3 Oldham Athletic 19 December 1949 7 Doncaster Rovers 1–0 Mansfield Town 10 December 1949 
19496022 {{gold medal}} Andriy Zhyltsov Athletics Men's 100m T36 {{gold medal}} Oleksandr Driha Athletics Men's 400m T37 {{gold medal}} Oleksandr Driha Athletics Men's 800m T37 {{gold medal}} Anton Skachkov Athletics Men's long jump F46 {{gold medal}} Anton Skachkov Athletics Men's triple jump F46 
19503170 1 Yomiuri Club 3 – 2 Yanmar Diesel 3 East Japan JR Furukawa 2 – 0 Fukuoka University 4 Osaka University of Health and Sport Sciences 1 – 4 Yamaha Motors 5 Toyota Motors 3 – 0 Keio University 6 Nippon Denso 1 – 6 Hitachi 
19519056 3 Preston North End 2–1 Mansfield Town 8 January 1949 7 Aston Villa 1–1 Bolton Wanderers 8 January 1949 Replay Bolton Wanderers 0–0 Aston Villa 15 January 1949 Replay Aston Villa 2–1 Bolton Wanderers 17 January 1949 14 Luton Town 3–1 West Ham United 8 January 1949 
195445 St. Martin Parish LA 48,583 27.4% 13,312 Evangeline Parish LA 35,434 25.7% 9,107 Vermilion Parish LA 53,807 24.9% 13,398 Aroostook County ME 73,938 22.4% 16,562 Lafourche Parish LA 89,974 19.1% 17,185 
1956714 February 10 Mississippi Mudcats Away Lost 27-57 February 26 Carolina Speed Away Lost 16-48 March 17 Tallahassee Titans Away Lost 26-30 March 24 Tallahassee Titans Home Lost 34-55 April 2 Mississippi Mudcats Home Lost 37-62 
1956941 2004 Europe/Africa Group I RR April 19, 2004 {{fed|EST}} Clay Kaia Kanepi W 6–3, 6–3 2004 Europe/Africa Group I RR April 21, 2004 {{fed|GRE}} Clay Eleni Daniilidou W 4–6, 6–3, 7–5 2004 Europe/Africa Group I RR April 22, 2004 {{fed|POL}} Clay Klaudia Jans-Ignacik W 6–3, 6–0 2005 Europe/Africa Group I RR April 20, 2005 {{fed|RSA}} Clay Chanelle Scheepers W 6–1, 6–2 2005 World Group II Play-Offs PO July 9, 2005 {{fed|JPN}} Hard (i) Akiko Morigami L 6–2, 6–7(4–7), 0–6 
19637190 KSV Hessen Kassel 2 – 2 FC Bayern Munich (AET) SG Wattenscheid 09 1 – 2 Hertha BSC VfR Heilbronn 2 – 0 Kickers Offenbach Borussia Neunkirchen 1 – 2 1. FC Kaiserslautern Tasmania 1900 Berlin 1 – 0 Eintracht Braunschweig 
19647192 4 December 1971 Tasmania 1900 Berlin 2 – 2 VfL Bochum 15 December 1971 VfL Bochum 2 – 0 Tasmania 1900 Berlin 4 December 1971 VfR Heilbronn 1 – 1 VfB Stuttgart 15 December 1971 VfB Stuttgart 4 – 0 VfR Heilbronn 4 December 1971 Kickers Offenbach 1 – 1 Borussia Dortmund 
19662456 TuS Neuendorf 0 – 2 Wuppertaler SV Borussia FC Schalke 04 1 – 2 SG Wattenscheid 09 FC Bayern Munich 3 – 1 MSV Duisburg Arminia Bielefeld 2 – 1 Alemannia Aachen Tennis Borussia Berlin 1 – 8 Eintracht Frankfurt 
19666785 2009 Antony and the Johnsons The Crying Light piano 2009 The Swell Season Strict Joy keyboards 2010 Antony and the Johnsons Swanlights piano 2011 Mike Doughty Yes and Also Yes piano, organ, clavinet 2011 Iron & Wine Kiss Each Other Clean piano, fender rhodes, wurlitzer, organ 
19669646 Karlsruher SC 4 – 2 SpVgg Bayreuth SpVgg Erkenschwick 2 – 3 VfL Bochum ASV Landau 1 – 7 Hannover 96 VfB Oldenburg 0 – 6 FC Schalke 04 Borussia Neunkirchen 2 – 0 Kickers Offenbach 
19683810 Hannover 96 0 – 1 MSV Duisburg SV Wiesbaden 1899 1 – 3 FC Schalke 04 1. FC Kaiserslautern 1 – 0 VfR Mannheim Karlsruher SC 2 – 0 1. FC Bocholt Hertha BSC 7 – 3 TuS 08 Langerwehe 
19686734 Eintracht Braunschweig 10 – 1 Eintracht Nordhorn Blumenthaler SV 1919 1 – 5 SV Werder Bremen FSV Ludwigshafen 0 – 3 1. FC Kaiserslautern VfB Oldenburg 0 – 2 VfL Bochum Wuppertaler SV Borussia 2 – 2 SC Herford (AET) 
19771299 VfB Friedberg 0 – 2 SV Waldhof Mannheim VfR Mannheim 4 – 1 Kickers Offenbach SV Ratibor 03 2 – 3 PSV Chemnitz SC Planitz 3 – 1 Beuthener SuSV 09 Minerva 93 Berlin 0 – 0 SC Victoria Hamburg (AET) 
19800184 12 Crewe Alexandra 4–0 Crook Town 26 November 1932 14 Swindon Town 4–1 Dulwich Hamlet 26 November 1932 15 Doncaster Rovers 4–1 Gainsborough Trinity 26 November 1932 20 Carlisle United 1–0 Denaby United 26 November 1932 23 Southend United 1–1 Exeter City 26 November 1932 
19864214 1961 {{sortname|Dick|Donovan}} L {{sort|03|3–4}} Chicago White Sox Griffith Stadium 26,725  1962 {{sortname|Bennie|Daniels}} W {{sort|04|4–1}} Detroit Tigers District of Columbia Stadium 44,383  1963 {{sortname|Don|Rudolph}} L {{sort|01|1–3}} Baltimore Orioles District of Columbia Stadium 43,022  1964 {{sortname|Claude|Osteen}} L {{sort|00|0–4}} Los Angeles Angels District of Columbia Stadium 40,145  1965 {{sortname|Phil|Ortega}} L {{sort|02|2–7}} Boston Red Sox District of Columbia Stadium 43,554  
19872615 Abha Saudi Arabia Abha Regional Airport || Aden Yemen Aden International Airport Base  Al Ghaydah Yemen Al Ghaydah Airport || Al Hudaydah Yemen Hodeida International Airport || Mukalla Yemen Riyan Airport || 
1987448 1953–54 Detroit Red Wings NHL &nbsp; 36 0 1 1 18 &nbsp; — — — 1954–55 Quebec Aces QHL &nbsp; 20 4 5 9 55 &nbsp; 4 0 0 1955–56 Detroit Red Wings NHL &nbsp; — — — — — &nbsp; 4 0 1 1956–57 Detroit Red Wings NHL &nbsp; 44 1 6 7 38 &nbsp; 5 0 0 1957–58 Detroit Red Wings NHL &nbsp; 69 1 6 7 104 &nbsp; 4 0 1 
1988545 1969–70 Kitchener Rangers OHA-Jr. &nbsp; 54 37 49 86 42 &nbsp; 8 5 10 1970–71 Kitchener Rangers OHA-Jr. &nbsp; 61 46 59 105 129 &nbsp; 4 2 3 1971–72 Kitchener Rangers OHA-Jr. &nbsp; 62 44 63 107 89 &nbsp; 5 2 7 1972–73 Richmond Robins AHL &nbsp; 11 9 5 14 4 &nbsp; 2 0 0 1972–73 Philadelphia Flyers NHL &nbsp; 69 30 34 64 46 &nbsp; 11 3 2 
19945495 2001-02 U-17 RVUFK Kyiv Dnipromain Dnipropetrovsk Shakhtar Donetsk 2001-02 U-16 Shakhtar Donetsk Dnipromain Dnipropetrovsk Dynamo Kyiv 2001-02 U-15 Zmina-Obolon Kyiv RVUFK Kyiv Lokomotyv Kyiv 2002-03 U-17 Shakhtar Donetsk Femida-Inter Lutsk Karpaty Lviv 2002-03 U-16 Lokomotyv Kyiv Shakhtar Donetsk Metalurh Zaporizhia 
2000858 14 years {{Template parameter value|Davey and Goliath|Infobox television||num_seasons|}} Davey and Goliath Syndicated February 25, 1961 June 29, 1975 {{Template parameter value|Davey and Goliath|Infobox television||num_episodes|}}  14 years {{Template parameter value|Futurama|Infobox television||num_seasons|}} Futurama FOX March 28, 1999 August 10, 2003 {{Template parameter value|Futurama|Infobox television||num_episodes|}}  14 years {{Template parameter value|Futurama|Infobox television||num_seasons|}} Futurama Comedy Central March 23, 2008 September 4, 2013 {{Template parameter value|Futurama|Infobox television||num_episodes|}}  14 years {{Template parameter value|Dora the Explorer|Infobox television||num_seasons|}} Dora the Explorer Nickelodeon August 14, 2000 June 5, 2014 {{Template parameter value|Dora the Explorer|Infobox television||num_episodes|}} Third longest-running Nickelodeon series, the ninth longest-running animated U.S. series, and the longest-running Nick Jr. series. 14 years 14 Watch Mr. Wizard NBC May 26, 1951 June 27, 1965 {{Template parameter value|Watch Mr. Wizard|Infobox television||num_episodes|}} Don Herbert was Mr. Wizard. 
20016429 2009 April 25 MLS Qwest Field Seattle Sounders 2–0 San Jose Earthquakes 28,838 SEA 1–0–0  2009 June 13{{double-dagger}} MLS Qwest Field Seattle Sounders 2–1 San Jose Earthquakes 28,999 SEA 2–0–0  2009 August 2{{double-dagger}} MLS Buck Shaw Stadium San Jose Earthquakes 4–0 Seattle Sounders 9,919 SEA 2–1–0  2010 May 22{{double-dagger}} MLS Qwest Field Seattle Sounders 0–1 San Jose Earthquakes 35,953 Tied 2–2–0  2010 July 31{{double-dagger}} MLS Buck Shaw Stadium San Jose Earthquakes 0–1 Seattle Sounders 10,351 SEA 3–2–0  
20046483 2004–05 Western Michigan University CCHA  36 6 16 22 56  — — — 2004–05 Gwinnett Gladiators ECHL  14 0 5 5 8  2 0 1 2005–06 Chicago Wolves AHL  73 16 29 45 49  — — — 2006–07 Albany River Rats AHL  79 16 25 41 39  5 0 1 2007–08 Albany River Rats AHL  59 13 12 25 29  7 0 2 
20051473 1 Ben McDonald Baltimore Orioles RHP Louisiana State University 13 Brent Mayne Kansas City Royals C Cal State Fullerton 14 Steve Hosey San Francisco Giants OF Fresno State University 17 Cal Eldred Milwaukee Brewers RHP University of Iowa 19 Eddie Zosky Toronto Blue Jays SS Fresno State University 
2006488 2017 Romain Wattel {{FRA}} The Dutch 269 (−15) 1 stroke Austin Connelly 2014 Paul Casey {{ENG}} Kennemer 266 (−14) 1 stroke Simon Dyson 2008 Darren Clarke {{NIR}} Kennemer 264 (−16) 4 strokes Paul McGinley 2007 Ross Fisher {{ENG}} Kennemer 268 (−12) 1 stroke Joost Luiten 2002 Tobias Dier {{DEU}} Hilversumsche 263 (−17) 1 stroke Jamie Spence 
20068752 Men 100 free Final Filippo Magnini Italy 48.12 Men 100 breast Heat 12 Kosuke Kitajima Japan 59.71* Men 100 breast Final Brendan Hansen USA 59.37 Women 50 back Semi-final 2 Gao Chang China 28.31 Women 50 breast Semi-final 2 Jade Edmistone Australia 30.61* 
20088122 AF Corse Ferrari F430 GTC Ferrari 4.0&nbsp;L V8 {{Michelin}} 50 Toni Vilander All AF Corse Ferrari F430 GTC Ferrari 4.0&nbsp;L V8 {{Michelin}} 50 Gianmaria Bruni All AF Corse Ferrari F430 GTC Ferrari 4.0&nbsp;L V8 {{Michelin}} 50 Jaime Melo 4 AF Corse Ferrari F430 GTC Ferrari 4.0&nbsp;L V8 {{Michelin}} 51 Pierre Kaffer 4 CRS Racing Ferrari F430 GTC Ferrari 4.0&nbsp;L V8 {{Michelin}} 55 Tim Mullen All 
2009698 1995–96 Green Bay Gamblers USHL  30    — 1,727 82 1 2.85   — — — — — — 1996–97 Green Bay Gamblers USHL  30 19 7 1 — 1,609 86 1 3.21 .908  17 8 9 980 56 1 2001–02 Edmonton Oilers NHL  4 2 0 0 — 148 4 0 1.62 .939  — — — — — — 2003–04 Edmonton Oilers NHL  38 17 14 4 — 2,086 84 1 2.42 .912  — — — — — — 2004–05 EHC Wolfsburg Grizzly Adams DEL  11    — 623 31 0 2.99 .920  7   414 11 2 
20134 Aitkin KKIN-FM 94.3 FM Alexandria KIKV-FM 100.7 FM Benson KSCR-FM 93.5 FM Blue Earth KBEW-FM 98.1 FM Dassel KARP-FM 106.9 FM 
20135063 1960 1st {{flag|Colombia}} August 12 Long Beach Municipal Auditorium Long Beach, California United States 52 1961 2nd {{flag|Holland}} July 28 Long Beach Municipal Auditorium Long Beach, California United States 52 1962 3rd {{flag|Australia}} August 18 Long Beach Municipal Auditorium Long Beach, California United States 50 1963 4th {{flag|Iceland}} August 16 Long Beach Municipal Auditorium Long Beach, California United States 46 1964 5th {{flag|Philippines}} August 14 Long Beach Municipal Auditorium Long Beach, California United States 42 
20145476 2010 5 13 March Adelaide Street Circuit Garth Tander Holden Racing Team Holden VE Commodore 2010 6 14 March Adelaide Street Circuit Garth Tander Holden Racing Team Holden VE Commodore 2010 9 1 May Queensland Raceway James Courtney Dick Johnson Racing Ford FG Falcon 2010 10 2 May Queensland Raceway James Courtney Dick Johnson Racing Ford FG Falcon 2010 11 15 May Winton Motor Raceway James Courtney Dick Johnson Racing Ford FG Falcon 
20169018 Hallescher FC Chemie II FC Vorwärts Frankfurt (Oder) 3:2 BSG Bergmann Borsig Pankow Berlin BSG Stahl Brandenburg 0:3 FC Energie Cottbus II Berliner FC Dynamo 0:4 BSG Stahl Riesa II 1. FC Lokomotive Leipzig 0:5 Berliner FC Dynamo II FC Karl-Marx-Stadt 1:3 (aet) 
20189150 1976 Czechoslovakia OG &nbsp; 6 0 1 1 4 1976 Czechoslovakia WC &nbsp; 7 1 4 5 2 1976 Czechoslovakia CC &nbsp; 7 1 1 2 10 1977 Czechoslovakia WC &nbsp; 10 0 0 0 2 1978 Czechoslovakia WC &nbsp; 3 1 0 1 0 
20208537 Zheng Zhi Shandong Luneng Taishan PSM Makassar 6–1 20 April 2005 Diego Alonso Shanghai Shenhua Persik Kediri 6–0 23 May 2007 Marquinhos Kashima Antlers Krung Thai Bank 9–1 12 March 2008 Nantawat Tansopa Krung Thai Bank Nam Dinh 9–1 9 April 2008 Luay Salah Arbil FC Al-Qadsia 4–2 21 May 2008 
20219213 5 April 1953 {{fb|HKG|1910}} L 0–4 Hong Kong Friendly match 6 April 1953 {{fb|CHN}} W 4–0 Hong Kong Friendly match 7 April 1953 {{fb|HKG|1910}} L 3–5 Hong Kong Friendly match 8 April 1953 {{fb|Taiwan}} L 2–4 Hong Kong Friendly match 11 April 1953 {{fb|SIN|colonial}} W 3–2 Singapore Friendly match 
2025381 Kilkenny 1958-59 Division 1A — — — — 1 0-02 1 Kilkenny 1959-60 Division 1A 5 5-10 2 1-09 — — 7 Kilkenny 1960-61 Division 1A 3 4-04 1 1-03 — — 4 Kilkenny 1961-62 Division 1B 4 2-23 2 1-07 — — 6 Kilkenny 1962-63 Division 1B 4 2-17 2 2-11 1 0-14 7 
20293497 C Johnny Roseboro Minnesota Twins  1B Don Mincher Seattle Pilots Replaced Mike Hegan 1B Harmon Killebrew Minnesota Twins  2B Mike Andrews Boston Red Sox Replaced Davey Johnson 2B Davey Johnson Baltimore Orioles Injured, did not play 
20319177 2008 FCS Pioneer 11 1 10 0 .091 8 0 8 0 .000 9th Dale Steele – 2009 FCS Pioneer 11 3 8 0 .273 8 2 6 0 .250 8th Dale Steele – 2010 FCS Pioneer 11 3 8 0 .273 8 2 6 0 .250 T-7th Dale Steele – 2011 FCS Pioneer 11 6 5 0 .545 8 5 3 0 .625 4th Dale Steele – 2012 FCS Pioneer 11 1 10 0 .091 8 0 8 0 .000 10th Dale Steele – 
20516880 Prime Minister of Canada Justin Trudeau November 4, 2015 – Present Minister for the Atlantic Canada Opportunities Agency Navdeep Bains November 4, 2015 – Present Minister responsible for the Canadian Dairy Commission Lawrence MacAulay November 4, 2015 – March 1, 2019 Minister responsible for the Canadian Dairy Commission Marie-Claude Bibeau March 1, 2019 – Present Minister for Canada Mortgage and Housing Corporation Jean-Yves Duclos November 4, 2015 – Present 
20571110 Omniworld 2006–07 Eerste Divisie 7 0 0 0 — — — — — — 7 Omniworld 2007–08 Eerste Divisie 29 3 0 0 — — — — — — 29 De Graafschap 2008–09 Eredivisie 12 1 1 0 — — — — 4 1 17 De Graafschap 2009–10 Eerste Divisie 5 5 0 0 — — — — — — 5 Heerenveen 2009–10 Eredivisie 20 1 3 1 — — 6 1 0 0 29 
20621493 Amaravathi Outer Ring road {{convert|220|km|mi|1|abbr=on}} Andhra Pradesh Kanpur Lucknow Expressway {{convert|75|km|mi|1|abbr=on}} Uttar Pradesh Amaravati Anantapur Expressway {{convert|371.03|km|mi|1|abbr=on}} Andhra Pradesh Bangalore-Mysore Infrastructure Corridor {{convert|111|km|mi|1|abbr=on}} Karnataka Chennai Elevated Expressways {{convert|10|km|mi|1|abbr=on}} Tamil Nadu 
20623117 Aug. 30, 2013 at 5 pm Oneonta  Stockton  Union, NJ Kean Cougar Classic Aug. 31, 2013 at 12 pm Oneonta  Kean  Union, NJ Kean Cougar Classic Sep. 7, 2013 at 1 pm RIT  Oneonta  Oneonta, NY 2013 Mayor's Cup Sep. 8, 2013 at 12 pm John Carroll  Oneonta  Oneonta, NY 2013 Mayor's Cup Sep. 14, 2013 at 1 pm Oneonta  Skidmore  Saratoga Springs, NY  
20632113 Ampara NE 136,423 101,628 5,696 ||238||||21,655||||||||||||||1,160||266,800||16,521||283,321||352,537||80.37% Anuradhapura NC 169,424 144,662 21,274 9,369 976 ||235||||2,461||||||||||2,181||350,582||20,561||371,143||472,661||78.52% Badulla UV 154,172 167,351 16,414 5,052 1,777 ||599||||2,022||||||12,092||||1,537||361,016||28,187||389,203||475,558||81.84% Batticaloa NE 16,510 29,165 295 53,646 135 54,448 6,571 3,325 ||6,968||3,909||||9,030||2,439||186,441||11,205||197,646||275,485||71.74% Colombo WE 394,146 440,684 78,133 27,067 49,671 ||1,528||||3,877||5,238||||4,588||||9,288||1,014,220||39,424||1,053,644||1,385,547||76.05% 
20637602 1999–00 U.S. National Development Team NAHL &nbsp; 55 13 10 23 69 &nbsp; 3 1 0 1 2000–01 U.S. National Development Team USDP &nbsp; 60 12 13 25 40 &nbsp; — — — — 2002–03 Colorado College WCHA &nbsp; 35 4 4 8 40 &nbsp; — — — — 2003–04 Colorado College WCHA &nbsp; 39 15 12 27 20 &nbsp; — — — — 2004–05 Colorado College WCHA &nbsp; 42 16 15 31 40 &nbsp; — — — — 
20637769 1970 Dick Coury California Collegiate Athletic Association — 6 4 1 — 1971 Dick Coury California Collegiate Athletic Association — 7 4 0 Won 1971 Mercy Bowl to Fresno State Bulldogs, 14–17 ^ 1972 Pete Yoder California Collegiate Athletic Association — 7 4 0 — 1973 Pete Yoder California Collegiate Athletic Association — 7 4 0 — 1974 Pete Yoder Pacific Coast Athletic Association — 4 7 0 — 
2064171 2002–05 MTV Select MTV Germany Presenter 2002–07 TRL Germany MTV Germany Co-presenter 2005
2007–08
2010– Life Ball ORF1 Co-presenter 2005 Song.Null.Fünf ORF1 Co-presenter 2006 Dancing on Ice RTL Co-presenter 
2064835 Asnuntuck Community College Enfield Public Associates college 1,945 1969 Capital Community College Hartford Public Associates college 3,302 1992 Gateway Community College New Haven Public Associates college 7,217 1992 Housatonic Community College Bridgeport Public Associates college 5,143 1967 Naugatuck Valley Community College Waterbury Public Associates college 6,651 1962 
2065129 1 1 {{sortname|Hakeem|Olajuwon|Hakeem Olajuwon}}^
{{Cref|1}} C {{NGA}}{{Cref|2}} Houston Rockets Houston (Jr.) 1 3 {{sortname|Michael|Jordan}}^ G/F {{flagu|United States}} Chicago Bulls North Carolina (Jr.) 1 7 {{sortname|Alvin|Robertson}}* G {{flagu|United States}} San Antonio Spurs Arkansas (Sr.) 1 9 {{sortname|Otis|Thorpe}}+ F/C {{flagu|United States}} Kansas City Kings Providence (Sr.) 1 11 {{sortname|Kevin|Willis}}* F/C {{flagu|United States}} Atlanta Hawks Michigan State (Sr.) 
2068336 1996–97 Hannover 96 Regionalliga Nord 25 5 1 0 - - 2 0 28 5 1997–98 Hannover 96 Regionalliga Nord 33 19 3 0 - - 2 1 38 20 1998–99 Hannover 96 2. Bundesliga 21 4 1 0 - - - - 22 4 1999–00 Schalke 04 Bundesliga 33 4 2 1 - - - - 35 5 2000–01 Schalke 04 Bundesliga 29 4 6 4 - - - - 35 8 
2068522 2 Vedraj Chauhan 1978/9 Pakistan India 3 0 0 3 7 Myluahanan Senthilnathan 1987/8 New Zealand New Zealand 1 0 1 0 8 Janardhanan Ramdas 1988/9 Pakistan Pakistan 4 1 0 3 9 Ranjib Biswal 1989/90 Pakistan India 4 1 0 3 11 Manoj Joglekar 1992/3 England India 3 1 1 1 
20728165 1971 Hitachi JSL Division 1 11 4 1972 Hitachi JSL Division 1 14 12 1973 Hitachi JSL Division 1 18 11 1974 Hitachi JSL Division 1 18 17 1975 Hitachi JSL Division 1 18 15 
20756992 2006–07 HK Riga 2000 LHL  23 5 7 12 40  — — — 2008–09 Dinamo Riga KHL  47 1 7 8 24  1 0 0 2009–10 Dinamo Riga KHL  53 7 10 17 51  9 0 3 2010–11 Dinamo Riga KHL  44 0 13 13 18  10 0 1 2011–12 Dinamo Riga KHL  54 8 21 29 28  7 0 3 
2076416 Beal College Bangor Private
(for-profit) Associates college 600 1891 Central Maine Community College Auburn Public Associates college 3,978 1963 Eastern Maine Community College Bangor Public Associates college 4,051 1966 Kennebec Valley Community College Fairfield Public Associates college 3,284 1969 Maine College of Art Portland Private School of art 495 1882 
2076626 Beloit College Beloit Private not-for-profit Baccalaureate college 1,397 1846 HLC DeVry University–Wisconsin Milwaukee Private for-profit Special-focus institution 521 1931 HLC High-Tech Institute–Brookfield Brookfield Private for-profit Associate's college 365 2006 ABHES Lac Courte Oreilles Ojibwa Community College Hayward Public Tribal college 489 1982 HLC Madison Media Institute Madison Private for-profit Associate's college 488 1969 ACICS 
20802559 December 31, 2016 ESPN Joe Tessitore Todd Blackledge Holly Rowe December 31, 2015 ESPN Dave Pasch Brian Griese Tom Luginbill December 31, 2011 ESPN Brad Nessler Todd Blackledge Holly Rowe December 31, 2009 ESPN Sean McDonough Matt Millen Holly Rowe December 30, 2006 ESPN Ron Franklin Ed Cunningham Jerry Punch 
20825848 {{dts|May 2, 2008}} Springfield United States Shrine Mosque {{dts|May 3, 2008}} Memphis United States Beale Street Music Festival {{dts|May 5, 2008}} North Myrtle Beach United States House of Blues {{dts|May 8, 2008}} Lake Buena Vista United States House of Blues {{dts|May 9, 2008}} Birmingham United States Sloss Furnace 
20830954 2nd Gianluigi Buffon {{flag|Italy}} Juventus 124 14 6 8 2 2 32 4th Ronaldinho {{flag|Brazil}} Barcelona 73 2 5 6 10 5 28 7th Miroslav Klose {{flag|Germany}} Werder Bremen 29 - 1 4 4 5 14 9th Andrea Pirlo {{flag|Italy}} Milan 17 - 2 1 2 2 7 11th Deco {{flag|Portugal}} Barcelona 11 - - 2 2 1 5 
20840534 1963† Northern California Athletic Conference 6–2–1 Herb Schmalenberger 1971† Northern California Athletic Conference 9–1 Jim Sochor 1972 Northern California Athletic Conference 6–2–2 Jim Sochor 1973† Northern California Athletic Conference 7–3 Jim Sochor 1974 Northern California Athletic Conference 9–1 Jim Sochor 
20850512 Andhra Pradesh Arma Konda Eastern Ghats 1680 m {{br}} 5,512 ft {{Coord|18.228|82.723|display=inline}} It is the highest peak in the Eastern Ghats. Bihar Fort Someshwar Sivalik Hills 880 m {{br}} 2,887 ft {{Coord|27.3876|84.3055|display=inline}}  Goa Sonsogor Western Ghats 1022 m {{br}} 3,353 ft {{Coord|15.5232|74.2795|display=inline}}  Gujarat Mount Girnar Girnar Hills 1145 m {{br}} 3,756 ft {{Coord|21.5281|70.527199|display=inline}}  Jammu and Kashmir Saltoro Kangri Karakoram Range 7742 m {{br}} 25,400 ft {{Coord|35.399|76.849|display=inline}} Saltoro Kangri lies along the AGPL in the Siachen area. 
20896746 Beaver Valley Mall Monaca {{convert|1153000|sqft|m2|-2|abbr=on}} 70 Capital City Mall Camp Hill {{convert|608911|sqft|m2|-2|abbr=on}} 90 Carbon Plaza Mall Lehighton  20 Chambersburg Mall Chambersburg {{convert|454350|sqft|m2|-2|abbr=on}} 30 Colonial Park Mall Harrisburg {{convert|743497|sqft|m2|-2|abbr=on}} 80 
20915268 2009 2009 FIG Artistic Gymnastics World Cup series 8 {{N/A}} {{N/A}} 2010 2010 FIG Artistic Gymnastics World Cup series 12 {{N/A}} {{N/A}} 2011 2011 FIG Artistic Gymnastics World Cup series {{N/A}} 4 8 2012 2012 FIG Artistic Gymnastics World Cup series {{N/A}} 3 7 2013 2013 FIG Artistic Gymnastics World Cup series 1 4 5 
20927692 2 1 {{flagathlete|[[David Frétigné|D. Frétigné]]|FRA}} Yamaha 3h 59' 20" + 00' 00" 1 {{flagathlete|D. Casteu|FRA}} Sherco 5h 50' 45" + 00' 00" 2 2 {{flagathlete|D. Casteu|FRA}} Sherco 4h 00' 03" + 00' 43" 2 {{flagathlete|C. Despres|FRA}} KTM 5h 52' 55" + 02' 10" 3 2 {{flagathlete|[[Helder Rodrigues|H. Rodrigues]]|POR}} Yamaha 3h 11' 49" + 10' 40" 2 {{flagathlete|D. Casteu|FRA}} Sherco 9h 04' 07" + 10' 03" 3 3 {{flagathlete|[[Paulo Gonçalves|P. Gonçalves]]|POR}} BMW 3h 13' 18" + 12' 09" 3 {{flagathlete|H. Rodrigues|POR}} Yamaha 9h 12' 01" + 17' 57" 4 3 {{flagathlete|C. Despres|FRA}} KTM 1h 50' 12" + 03' 14" 3 {{flagathlete|H. Rodrigues|POR}} Yamaha 11h 08' 01" + 23' 45" 
2095420 A Hawaii 7 Pennsylvania 1 4:00 pm (Lamade Stadium) A Florida 7 Iowa 3 8:00 pm (Volunteer Stadium) B Maine 2 Louisiana 3 11:00 am (Volunteer Stadium) B California 7 Kentucky 2 3:00 pm (Volunteer Stadium) A Florida 3 Pennsylvania 1 8:00 pm (Lamade Stadium) 
20977038 Craig Simpson Edmonton Oilers 22 16 15 31 +11 8 Mark Messier Edmonton Oilers 22 9 22 31 +5 20 Cam Neely Boston Bruins 21 12 16 28 +7 51 Jari Kurri Edmonton Oilers 22 10 15 25 +13 18 Esa Tikkanen Edmonton Oilers 22 13 11 24 +12 26 
21012435 2006–07 Spokane Chiefs WHL  30 13 11 2 1674 78 2 2.80 .903  6 2 4 364 17 0 2007–08 Spokane Chiefs WHL  45 30 10 3 2543 87 6 2.05 .922  21 16 5 1352 31 3 2008–09 Spokane Chiefs WHL  54 34 18 2 3264 107 7 1.97 .937  12 7 5 812 23 1 2009–10 Tampa Bay Lightning NHL  2 0 0 0 44 3 0 4.06 .813  — — — — — — 2011–12 Tampa Bay Lightning NHL  5 1 3 1 244 14 0 3.45 .879  — — — — — — 
21044436 1997 Buenos Aires Universidad de Buenos Aires No subject 1998 Mar del Plata Universidad Nacional de Mar del Plata No subject 2000 Rio de Janeiro Universidade Federal do Rio de Janeiro Construindo (n)o Espaço Digital 2002 Caracas Universidad Central de Venezuela No subject 2003 Rosario Universidad Nacional de Rosario Cultura Digital y Diferenciación 
2107768 Wayne Gretzky Los Angeles Kings 73 40 102 142 42 +8 10 4 4 Mark Messier Edmonton Oilers 79 45 84 129 79 +19 13 6 3 Steve Yzerman Detroit Red Wings 79 62 65 127 79 -6 16 7 8 Mario Lemieux Pittsburgh Penguins 59 45 78 123 78 -18 14 3 4 Brett Hull St. Louis Blues 80 72 41 113 24 -1 27 0 12 
2112026 2002 Tomoe Sakai NTV Beleza 2004 Kozue Ando Saitama Reinas F.C. 2005 Shinobu Ohno NTV Beleza 2006 Homare Sawa NTV Beleza 2007 Shinobu Ohno NTV Beleza 
211349 File:Christian Archibald Herter (politician).jpg Christian Herter December 10, 1962 December 30, 1966 John F. Kennedy File:Christian Archibald Herter (politician).jpg Christian Herter December 10, 1962 December 30, 1966 Lyndon Johnson File:No image.svg William Roth March 24, 1967 January 20, 1969 Lyndon Johnson File:No image.svg Carl Gilbert August 6, 1969 September 21, 1971 Richard Nixon File:No image.svg William Eberle November 12, 1971 December 24, 1974 Richard Nixon 
21213189 1973 Furukawa Electric JSL Division 1 17 0 1974 Furukawa Electric JSL Division 1 17 0 1975 Furukawa Electric JSL Division 1 18 0 1976 Furukawa Electric JSL Division 1 18 2 1977 Furukawa Electric JSL Division 1 16 2 
21221927 3 2 {{flagicon|FRA}} Jean-Louis Schlesser
{{flagicon|AND}} Henri Magne Renault 25:18 0:56 2 {{flagicon|DEU}} Jutta Kleinschmidt
{{flagicon|DEU}} Andreas Schulz Mitsubishi 32:56 0:53 3 3 {{flagicon|DEU}} Jutta Kleinschmidt
{{flagicon|DEU}} Andreas Schulz Mitsubishi 25:19 0:57 3 {{flagicon|FRA}} Stéphane Peterhansel
{{flagicon|FRA}} Jean-Paul Cottret Nissan 33:14 1:11 4 1 {{flagicon|ESP}} Fernando Gil
{{flagicon|ESP}} Rafael Tornabell SEAT 5:48  1 {{flagicon|BEL}} Grégoire De Mévius
{{flagicon|FRA}} Alain Guehennec Nissan 39:42  4 2 {{flagicon|BRA}} Klever Kolberg
{{flagicon|FRA}} Pascal Larroque Mitsubishi 5:55 0:07 2 {{flagicon|ESP}} Fernando Gil
{{flagicon|ESP}} Rafael Tornabell SEAT 39:56 0:14 4 3 {{flagicon|FRA}} Bruno Saby
{{flagicon|FRA}} Jérôme Boussier Ford 6:14 0:26 3 {{flagicon|FRA}} Stéphane Peterhansel
{{flagicon|FRA}} Jean-Paul Cottret Nissan 40:39 0:57 
21239248 2018-present Pinoy Big Brother Otso Himself Co-Host ABS-CBN 2015-16 Dance Kids Host/Himself ABS-CBN 2015–present Umagang Kay Ganda Host/Himself ABS-CBN 2015 Pinoy Big Brother: 737 Host/Himself ABS-CBN 2014 Pinoy Big Brother: All In Host/Himself ABS-CBN 
21247934 John Adams President of the United States 1800 Lost re-election to Thomas Jefferson Thomas Jefferson President of the United States 1796 Lost to John Adams. Won in 1800 and in 1804 Aaron Burr Governor of New York 1804 Lost to Morgan Lewis Daniel D. Tompkins Governor of New York 1820 Lost to DeWitt Clinton. Won in 1807, 1810, 1813, and 1816. Martin Van Buren Democratic nomination for
President of the United States 1844 Placed in distant third behind James K. Polk and Lewis Cass 
212681 Makarov File:Пистолет Макарова.png {{flag|Soviet Union}} Semi-automatic pistol   TT File:TT 1.jpg {{flag|Soviet Union}} Semi-automatic pistol   M9  {{flag|United States}} Semi-automatic pistol +15,700  FB PM-63  {{flag|Poland}} Submachine gun   Mosin-Nagant  {{flag|Soviet Union}} Bolt-action rifle  Ceremonial use. 
21312829 4 Giorgos Georgiadis PAOK 4 484' 4 Ola John Twente 4 658' 4 Dries Mertens PSV Eindhoven 4 754' 4 Diego Capel Sporting CP 4 862' 4 Cleiton Xavier Metalist Kharkiv 4 884' 
21324 Pashupatinagar {{coord|26|56|54|N|88|07|20|E|scale:250000}} Pashupatinagar Ilam Province No. 1 Sukhiapokhri Darjeeling West Bengal  {{coord|26|32|50|N|88|06|36|E|scale:250000}} Bhadrapur Jhapa district Province No. 1 Galgalia Kishanganj Bihar Biratnagar {{coord|26|24|09|N|87|15|57|E|scale:250000}} Biratnagar Morang Province No. 1 Jogbani Araria Bihar Rajbiraj {{coord|26|27|00|N|86|47|34|E|scale:250000}} Rajbiraj Saptari Province No. 2 Kunauli Supaul District Bihar  {{coord|26|39|29|N|86|04|04|E|scale:250000}} Thadi Jhijha Dhanusa Province No. 2 Laukaha Madhubani district Bihar 
21356629 1 Marjorie WU 胡凱欣 Honolulu {{flag|USA}} 23 Zhongshan 2 Vicky HAN 郝書婷 Taipei {{flag|Chinese Taipei}} 23 Taiwan 3 Titaua LAUX 劉金燕 Tahiti {{flag|French Polynesia}} 19 Guangdong 4 Beverly CHEN 陳思羽 Melbourne {{flag|Australia}} 23 Taiwan 5 Christie BARTRAM 白穎茵 Toronto {{flag|Canada}} 18 Shunde 
21364927 1 1 Holden Racing Team Craig Lowndes Holden VT Commodore 78 5 4 2 5 Ford Tickford Racing Glenn Seton Ford AU Falcon 78 2 6 3 34 Garry Rogers Motorsport Garth Tander Holden VT Commodore 78 4 1 7 35 Garry Rogers Motorsport Jason Bargwanna Holden VT Commodore 78 10 8 9 9 Stone Brothers Racing Tony Longhurst Ford AU Falcon 78 13  
21372684 Ballina National Sue Dakin Don Page (Nat) Jan Barham Darren May  Nic Faulkner (Ind) Bathurst Labor Gerard Martin Ann Thompson (Nat) Brian Shoebridge   Warren Rowe (Ind)
David Simpson (Ind)
John Wilkie (AAFI) Bligh Independent Barri Phatarfod Shayne Mallard (Lib) Anita Ceravolo  Jon Phillips Gary Burns (Ind)
Malcolm Duncan (Ind)
Clover Moore* (Ind)
Stephen Pong (Unity) Blue Mountains Labor Bob Debus Quentin Cook (Lib) Pippa McInnes George Grivas Brian Grigg Esther Scholem (Dem)
Ay Tan (Unity) Cabramatta Labor Reba Meagher Paul Newton (Lib) Lee Grant David Taunton-Webb Sean Hampsey Ross Treyvaud (Ind)
Christopher Wong (Unity) 
21377473 1 7 August 2009 Adelaide United 1 – 0
Dodd {{goal|30|pen.}} Perth Glory 13,847 Hindmarsh Stadium Report
Summary 2 16 August 2009 Sydney FC 1 – 0 Adelaide United 14,924 Sydney Football Stadium Report
Summary 3 21 August 2009 Adelaide United 0 – 2 Gold Coast United 12,741 Hindmarsh Stadium Report
Summary 4 28 August 2009 Adelaide United 3 – 3
Pantelis {{goal|23||90+2|pen.}}
Owusu {{goal|33}} North Queensland Fury 10,773 Hindmarsh Stadium Report
Summary 5 4 September 2009 Wellington Phoenix 1 – 1
Fyfe {{goal|42}} Adelaide United 7,523 Westpac Stadium Report
Summary 
21431697 Auburn Labor Peter Nagle Bulent Borluk (Lib) Geoff Ash Kane O'Connor Colin McDermott Shane Bentley (DSL)
Chris Johnson (AAFI)
Fatia Yakup (Unity) Bathurst Labor Gerard Martin David Berry (Lib)
Stan Wilson (Nat) Leonie Williams Warren Rowe Cecil Grivas Millman Ashton (AAFI)
Michael Bray (Ind)
Rod Gurney (ORP)
Joe McGinnes (Ind)
David Simpson (CEC)
Robert Thompson (NCPP) Bligh Independent Vic Smith Peter Fussell (Lib) Emelia Holdaway   Malcolm Duncan (Ind)
Bronia Hatfield (NLP)
Ariel Marguin (Unity)
Clover Moore* (Ind)
Julia Trubridge (ERP)
Change Upton (TCW) Blue Mountains Labor Bob Debus Jennifer Scott (Lib) Adele Doust Wayne Buckley Stephen Lear Margaret Anderson (AAFI)
Catherine Bell (ES)
Shirley Grigg (CDP) Cabramatta Labor Reba Meagher Glenn Watson (Lib) Lee Grant Peter Cornish Matthew Hua Ken Chapman (Ind)
Michael Kremec (AAFI)
Markus Lambert (Ind)
Jodi Luke (CDP)
Andrew Su (Unity) 
21556993 Election
Year Election
Year Prime Minister Prime Minister Summary Labor Labor United Australia Party United Australia Party Country Lang Labor Independent Other
parties Other
parties Total
seats Election
Year Election
Year Prime Minister Prime Minister Summary Labor Labor United Australia Party United Australia Party Country Lang Labor Independent Other
parties Other
parties Total
seats Election
Year Election
Year Prime Minister Prime Minister Summary Labor Labor United Australia Party United Australia Party Country Lang Labor Independent Other
parties Other
parties Total
seats Election
Year Election
Year Prime Minister Prime Minister Summary Labor Labor United Australia Party United Australia Party Country Lang Labor Independent Other
parties Other
parties Total
seats Election
Year Election
Year Prime Minister Prime Minister Summary Labor Labor United Australia Party United Australia Party Country Lang Labor Independent Other
parties Other
parties Total
seats 
21561643 1 1 Holden Racing Team Mark Skaife Holden VX Commodore 78 1 1 3 4 Stone Brothers Racing Marcos Ambrose Ford AU Falcon 78 12 3 4 00 Gibson Motorsport Craig Lowndes Ford AU Falcon 78 8 8 6 34 Garry Rogers Motorsport Garth Tander Holden VX Commodore 78 11 4 7 66 Briggs Motor Sport Tony Longhurst Ford AU Falcon 78 17  
2165161 1. Dubai Dubai International Airport Garhoud, Dubai, United Arab Emirates DXB/OMDB 83,105,798 {{steady}} {{increase}}7.3% 3. Hong Kong Hong Kong International Airport Chek Lap Kok, Islands, New Territories, Hong Kong HKG/VHHH 70,098,216 {{steady}} {{increase}}3.0% 4. Amsterdam Amsterdam Airport Schiphol Haarlemmermeer, North Holland, Netherlands AMS/EHAM 63,533,504 {{increase}}1 {{increase}}9.1% 6. Singapore Singapore Changi Airport Changi, East Region, Singapore SIN/WSSS 58,158,000 {{steady}} {{increase}}6.1% 8. Frankfurt Frankfurt Airport Flughafen, Frankfurt, Hesse, Germany FRA/EDDF 53,707,953 {{decrease}}1 {{decrease}}0.5% 
21668375 Wayne Gretzky Edmonton Oilers 19 13 22 35 +18 12 Jari Kurri Edmonton Oilers 19 14 14 28 +9 13 Mark Messier Edmonton Oilers 19 8 18 26 +9 19 Paul Coffey Edmonton Oilers 19 8 14 22 +18 21 Clark Gillies New York Islanders 21 12 7 19 +2 19 
2167686 03 Kathleen Hoelzel Rep Raymond 2008 (1988–1992) 05 Al Baldasaro Rep Londonderry 2006 05 Betsy McKinney Rep Londonderry 1984 05 Sherman Packard Rep Londonderry 1990 06 Phyllis Katsakiores Rep Derry 2014 (1982–2012) 
2168892 Arthur's Meadow File:Hemingford Grey Meadow 4.jpg {{convert|0.8 |ha|acre}} Hemingford Grey
{{coord|52.306| -0.108 |type:landmark_region:GB|name= Arthur's Meadow }}
{{gbmappingsmall|TL292692 }} YES SSSI The site is calcareous clay pasture with a wide variety of plant species, including the herbs oxeye daisy and yellow rattle. There are orchids such as common twayblades and common spotteds. Beechwoods File:Beechwoods - geograph.org.uk - 826879.jpg {{convert|10 |ha|acre}} Cambridge
{{coord|52.171 |0.170 |type:landmark_region:GB|name= Beechwoods }}
{{gbmappingsmall|TL485547 }} YES LNR Beeches were planted on chalky farmland in the 1840s, and medieval plough terraces are still visible. Birds include green and great spotted woodpeckers, and nuthatches. Brampton Wood File:Brampton Wood - Birch Quarter - geograph.org.uk - 444758.jpg {{convert| 132|ha|acre}} Brampton
{{coord| 52.316| -0.27 |type:landmark_region:GB|name= Brampton Wood }}
{{gbmappingsmall| TL184698 }} YES SSSI This is one of the few surviving areas of ancient woodland in the county. It is wet ash and maple on heavy clay soil, with rides which have a varied grassland flora, such as yellow pimpernel, greater bird's-foot-trefoil and devil's-bit scabious. Buff Wood File:Buffwood 4171.JPG {{convert| 16|ha|acre}} Hatley
{{coord| 52.136| -0.13 |type:landmark_region:GB|name= Buff Wood }}
{{gbmappingsmall| TL281503 }} WTPR SSSI This site is ecologically diverse boulder clay woodland, with a range of wildflowers, including oxlips and the uncommon green hellebore. There are butterflies such as brimstones, large whites, orange-tips and speckled woods. Chettisham Meadow File:Chettisham Meadow 2.jpg {{convert|0.7 |ha|acre}} Chettisham
{{coord| 52.423| 0.265|type:landmark_region:GB|name= Chettisham Meadow }}
{{gbmappingsmall| TL541830 }} YES SSSI The site is grassland on calcareous clay, and evidence survives of ridge and furrow medieval farming. Flowering plants include adder's tongue, cowslip and the uncommon green-winged orchid. 
2168930 1998–99 Jokerit SM-l  48 0 1 1 42  3 0 1 1999–2000 Jokerit SM-l  49 1 6 7 46  11 1 1 2000–01 Phoenix Coyotes NHL  81 4 12 16 90  — — — 2001–02 Phoenix Coyotes NHL  76 2 12 14 74  5 0 0 2002–03 Phoenix Coyotes NHL  67 2 7 9 82  — — — 
2170444 2016 Kevin Ashman Olav Bjortomt Pat Gibson 2015 Olav Bjortomt Kevin Ashman Pat Gibson 2013 Pat Gibson Tero Kalliolevo Kevin Ashman 2011 Pat Gibson Kevin Ashman Tero Kalliolevo 2010 Pat Gibson Kevin Ashman Ronny Swiggers 
21720 1988 8 Archie Manning QB 1971–1982 1988 46 Danny Abramowicz WR 1967–1973 1989 19 Tom Dempsey K 1969–1970 1990 17 Billy Kilmer QB 1967–1970 1991 74 Derland Moore NT 1973–1985 
2177993 6th June 27, 2006 Shrine Auditorium Los Angeles Damon Wayans 8th June 24, 2008 Shrine Auditorium Los Angeles D. L. Hughley 9th June 28, 2009 Shrine Auditorium Los Angeles Jamie Foxx 10th June 27, 2010 Shrine Auditorium Los Angeles Queen Latifah 11th June 26, 2011 Shrine Auditorium Los Angeles Kevin Hart 
21824714 Jequitinhonha Almenara Bandeira Jequitinhonha Almenara Felisburgo Jequitinhonha Almenara Jacinto Jequitinhonha Almenara Mata Verde Jequitinhonha Almenara Monte Formoso 
21832217 U.S. Alessandria Calcio 1912 Alessandria Stadio Giuseppe Moccagatta 8,182 2nd in Lega Pro Seconda Divisione A Benevento Calcio Benevento Stadio Santa Colomba 18,975 2nd in Lega Pro Prima Divisione B Calcio Como Como Stadio Giuseppe Sinigaglia 13,602 3rd in Lega Pro Seconda Divisione A U.S. Cremonese Cremona Stadio Giovanni Zini 20,034 9th in Lega Pro Prima Divisione A Foligno Calcio Foligno Stadio Enzo Blasone 5,650 15th in Lega Pro Prima Divisione B 
21894362 2 {{flagicon|Brazil}} Rallye Internacional de Curitiba
(March 5–7) 1 Kris Meeke Peugeot 207 S2000 2:08:05.7 2 {{flagicon|Brazil}} Rallye Internacional de Curitiba
(March 5–7) 2 Nicolas Vouilloz Peugeot 207 S2000 2:08:31.9 4 {{flagicon|Portugal}} Rally Açores
(May 7–9) 1 Kris Meeke Peugeot 207 S2000 2:36:48.3 4 {{flagicon|Portugal}} Rally Açores
(May 7–9) 3 Nicolas Vouilloz Peugeot 207 S2000 2:37:53.1 5 {{flagicon|Belgium}} Belgium Ypres Westhoek Rally
(June 18–20) 1 Kris Meeke Peugeot 207 S2000 2:32:16.3 
2192925 1997–98 Severstal Cherepovets RSL &nbsp; 2 0 0 0 2 &nbsp; — — — 1998–99 Severstal Cherepovets RSL &nbsp; 33 3 0 3 8 &nbsp; 1 0 0 1998–99 Yunost Minsk BLR &nbsp; 4 1 4 5 2 &nbsp; — — — 1998–99 Yunost Minsk EEHL &nbsp; 5 3 4 7 2 &nbsp; — — — 1999–2000 Metallurg Novokuznetsk RSL &nbsp; 31 3 4 7 12 &nbsp; 11 1 1 
2194769 1992–93 Stuttgarter Kickers 2. Bundesliga 30 10 1 0 - - - - 31 10 1993–94 Stuttgarter Kickers 2. Bundesliga 32 16 1 0 - - - - 33 16 1994–95 VfB Stuttgart Bundesliga 32 12 3 2 - - - - 35 14 1995–96 VfB Stuttgart Bundesliga 26 17 1 1 - - - - 27 18 1996–97 VfB Stuttgart Bundesliga 33 19 5 2 - - - - 38 21 
2196127 1998 March 1 6 Mark Martin Roush Racing Ford 267 400.5 (644.542) 2:43:58 146.554 Report 1999 March 7 99 Jeff Burton Roush Racing Ford 267 400.5 (644.542) 2:54:43 137.537 Report 2000 March 5 99 Jeff Burton Roush Racing Ford 148* 222 (357.274) 1:51:01 119.982 Report 2001 March 4 24 Jeff Gordon Hendrick Motorsports Chevrolet 267 400.5 (644.542) 2:57:17 135.546 Report 2002 March 3 40 Sterling Marlin Chip Ganassi Racing Dodge 267 400.5 (644.542) 2:55:43 136.754 Report 
21967975 {{JKR|6|png}} Malaysia Federal Route 6 Penang Island Gelugor Highway  {{JKR|16|png}} Malaysia Federal Route 16 Senai Airport Highway || {{JKR|17|png}} Malaysia Federal Route 17 Pasir Gudang Highway || {{JKR|20|png}} Malaysia Federal Route 20 North Klang Straits Bypass || {{JKR|26|png}} Malaysia Federal Route 26 KLIA Expressway || 
21973941 1977 Johnnie Jones 118 Big Eight  1977 Mike Land 126 Big Eight  1977 Frank Santana 190 Big Eight  1980 Nate Carr 150 Big Eight  1981 Nate Carr 150 Big Eight  
21980732 Trial St. George Illawarra Dragons Loss 6-54 February Members Equity Stadium Foundation Cup Wests Tigers Win 16-12 February Sydney Football Stadium Trial Parramatta Eels Loss 24-30 1 March Bluetongue Stadium Round 1 South Sydney Rabbitohs Loss 12-52 15 March Sydney Football Stadium Round 2 Canberra Raiders Win 28-4 22 March Canberra Stadium 
2199290 Winner 1. September 26, 1993 Tokyo Hard Chanda Rubin {{flagicon|RSA|1928}} Amanda Coetzer
{{flagicon|USA}} Linda Wild 6–4, 6–1 Winner 2. February 27, 1994 Indian Wells Hard Lindsay Davenport {{flagicon|NED}} Manon Bollegraf
{{flagicon|CZE}} Helena Suková 6–2, 6–4 Runner-up 1. June 5, 1994 French Open Clay Lindsay Davenport {{flagicon|USA}} Gigi Fernández
{{flagicon|BLR|1991}} Natasha Zvereva 6–2, 6–2 Winner 3. March 5, 1995 Indian Wells Hard Lindsay Davenport {{flagicon|ESP}} Arantxa Sánchez Vicario
{{flagicon|LAT}} Larisa Neiland 2–6, 6–4, 6–3 Runner-up 3. November 5, 1995 Quebec City Hard (i) Rennae Stubbs {{flagicon|USA}} Nicole Arendt
{{flagicon|NED}} Manon Bollegraf 7–6(6), 4–6, 6–2 
22010719 Al Shorta 2007–08 Iraqi Premier League 194 4 — — — — 204 Al Shorta 2008–09 Iraqi Premier League 194 6 — — — — 204 Al Shorta 2009–10 Iraqi Premier League 194 5 — — — — 204 Al Shorta 2010–11 Iraqi Premier League 194 10 — — — — 204 Al Shorta 2011–12 Iraqi Premier League 194 11 — — — — 204 
22076732 Season Conference Team name Finish GP W L PCT GB Stage Results 2004-05 Philippine Cup Red Bull Thunder 10th/10 18 6 12 .333 6 Wildcard phase Shell** 98, Red Bull 77 2004-05 Fiesta Conference Red Bull Thunder 6th/10 18 9 9 .500 3 Wildcard phase
Quarterfinals
Semifinals
3rd-place playoff Red Bull 2, Barangay Ginebra 0
Red Bull 2, Alaska 1
San Miguel 3, Red Bull 2
Shell 102, Red Bull 86* 2005-06 Fiesta Conference Red Bull Barako 3rd/9 16 9 7 .563 1 2nd-seed playoff
Quarterfinals
Semifinals
Finals Barangay Ginebra 109, Red Bull 102*
Red Bull 3, Alaska 0
Red Bull 4, Barangay Ginebra 3
Red Bull 4, Purefoods 2 2005-06 Philippine Cup Red Bull Barako 3rd/9 16 9 7 .563 3 Quarterfinals
Semifinals
Finals Red Bull 3, Barangay Ginebra 2
Red Bull 4, San Miguel 3
Purefoods 4, Red Bull 2 
22138649 1 Gangwon FC 0 – 2 Seongnam Ilhwa Chunma 6,733 2 Chunnam Dragons 3 – 2 Daegu FC 4,865 3 Incheon United 1 – 0 Daejeon Citizen 2,615 4 Daegu FC 2 – 1 Gangwon FC 3,077 5 Daejeon Citizen 2 – 1 Chunnam Dragons 3,302 
22148876 2 33 Lee Holdsworth Garry Rogers Motorsport 78 14.0s 10 138 3 22 Will Davison Holden Racing Team 78 26.1s 7 129 5 8 Jason Richards Brad Jones Racing 78 30.5s 8 111 6 9 Shane van Gisbergen Stone Brothers Racing 78 35.9s 12 102 7 7 Todd Kelly Jack Daniels Racing 78 36.3s 24 96 
22165672 Black Rat Snake Pantherophis obsoletus  File:Black_Rat_Snake2.jpg Brown Snake Storeria dekayi  File:Storeria_dekayi_1.jpg Bullsnake Pituophis catenifer sayi Special Concern File:Pituophis_catenifer_sayi_003.jpg Common Garter Snake Thamnophis sirtalis  File:Couleuvre_rayee_qc.JPG Copperbelly Water Snake Nerodia erythrogaster neglecta Endangered File:Iowaherps-nerodia erythrogaster neglecta.jpg 
22267027 29 October 1898 Dunstable Road 2–2 FA Cup 18 November 1899 Dunstable Road 3–2 FA Cup 14 November 1903 Dunstable Road 4–1 FA Cup 28 March 1921 Kenilworth Road 1–0 Third Division South 1 April 1922 Kenilworth Road 1–1 Third Division South 
22288866 1 8 March 2009 Seongnam Ilhwa H 1 – 1{{Dead link|date=November 2018 |bot=InternetArchiveBot |fix-attempted=yes }} Cho Hyung-Ik 22' 15,429 2 15 March 2009 Jeonbuk Hyundai A 0 – 2{{Dead link|date=November 2018 |bot=InternetArchiveBot |fix-attempted=yes }}  11,043 3 22 March 2009 Pohang Steelers H 2 – 2{{Dead link|date=November 2018 |bot=InternetArchiveBot |fix-attempted=yes }} Lee Sang-Deok 50', Lee Seul-Ki 71' 5,342 4 4 April 2009 Daejeon Citizen A 0 – 2{{Dead link|date=November 2018 |bot=InternetArchiveBot |fix-attempted=yes }}  4,724 5 12 April 2009 Jeju United H 2 – 1{{Dead link|date=November 2018 |bot=InternetArchiveBot |fix-attempted=yes }} Kim Ju-Hwan 42', Bang Dae-Jong 83' 3,215 
22342677 Wil 2009–10 Swiss Challenge League 25 3 0 0 — — 25 3 Wil 2010–11 Swiss Challenge League 15 6 0 0 — — 15 6 Thun 2010–11 Swiss Super League 17 3 1 0 6{{efn|name=UEL|Appearances in the [[UEFA Europa League]]}} 1 24 4 Thun 2011–12 Swiss Super League 17 1 0 0 — — 17 1 Luzern 2011–12 Swiss Super League 14 3 3 1 — — 17 4 
22380278 1 Yuzuru Hanyu Kanako Murakami {{flagicon|CHN}} Sui Wenjing / Han Cong {{flagicon|USA}} Maia Shibutani / Alex Shibutani 2 Ross Miner Polina Shelepen {{flagicon|JPN}} Narumi Takahashi / Mervin Tran {{flagicon|RUS}} Ksenia Monko / Kirill Khaliavin 3 Song Nan Kiri Baga {{flagicon|CAN}} Kaleigh Hole / Adam Johnson {{flagicon|RUS}} Elena Ilinykh / Nikita Katsalapov 4 Artur Gachinski Angela Maxwell {{flagicon|CHN}} Zhang Yue / Wang Lei {{flagicon|RUS}} Ekaterina Pushkash / Jonathan Guerreiro 5 Kento Nakamura Ksenia Makarova {{flagicon|RUS}} Tatiana Novik / Mikhail Kuznetsov {{flagicon|CAN}} Kharis Ralph / Asher Hill 
22415697 1 {{flagicon|Australia}} Ryan Briscoe Team Penske  1:29.8485 1:29.3527 1:29.3456 3 {{flagicon|USA}} Ryan Hunter-Reay Rahal Letterman Racing  1:30.1855 1:29.9757 1:29.6355 4 Zealand}} Scott Dixon Chip Ganassi Racing  1:30.1494 1:29.5743 1:29.6776 6 {{flagicon|Brazil}} Tony Kanaan Andretti Green Racing 1:30.6044  1:29.5724 1:29.9938 7 {{flagicon|USA}} Marco Andretti Andretti Green Racing 1:31.0299  1:29.9968  
2241841 1969 July 6 43 Richard Petty Petty Enterprises Ford 300 300 (482.803) 2:35:28 115.772 Report 1976 May 16 72 Benny Parsons L.G. DeWitt Chevrolet 500 500 (804.672) 4:19:53 115.436 Report 1977 May 15 11 Cale Yarborough Junior Johnson & Associates Chevrolet 500 500 (804.672) 4:03:26 123.327 Report 1980 May 18 15 Bobby Allison Bud Moore Engineering Ford 500 500 (804.672) 4:23:28 113.866 Report 1981 May 17 90 Jody Ridley Junie Donlavey Ford 500 500 (804.672) 4:17:18 116.595 Report 
22418873 North Iowa Cubs Chicago Cubs Des Moines, Iowa Principal Park 11,000 North Memphis Redbirds St. Louis Cardinals Memphis, Tennessee AutoZone Park 14,320 North Nashville Sounds Milwaukee Brewers Nashville, Tennessee Herschel Greer Stadium 10,052 North Omaha Royals Kansas City Royals Omaha, Nebraska Johnny Rosenblatt Stadium 23,100 South Albuquerque Isotopes Los Angeles Dodgers Albuquerque, New Mexico Isotopes Park 12,215 
22441776 Glen Rovers 1996 1 0-00 Glen Rovers 1997 1 0-01 Glen Rovers 1998 5 0-09 Glen Rovers 1999 2 0-02 Glen Rovers 2000 2 0-03 
22448289 Pole 5 Mark Winterbottom Ford FG Falcon Ford Performance Racing 1:23.8053 1:23.6730  5 2 Garth Tander Holden VE Commodore Holden Racing Team 1:24.0862 1:23.9327  6 33 Lee Holdsworth Holden VE Commodore Garry Rogers Motorsport 1:24.1885 1:24.1704  8 18 James Courtney Ford FG Falcon Dick Johnson Racing 1:24.4742 1:24.1192  9 15 Rick Kelly Holden VE Commodore Kelly Racing 1:24.5275 1:24.0438  
22460138 1992–93 Celje Slovan 15–10 1993–94 Celje Prevent 25–21 1994–95 Celje Gorenje 31–20 1995–96 Celje Slovan 27–22 1996–97 Celje Gorenje 29–19 
22487339 October 17, 2008 Charlottetown Canada Charlottetown Civic Center October 21, 2008 Winnipeg Canada Pantages Playhouse Theatre October 22, 2008 Brandon Canada Keystone Centre October 27, 2008 Saskatoon Canada Credit Union Centre March 5, 2009 Victoria Canada Victoria Memorial Arena 
22493265 2 Mar ATCC Round 1
Better Brakes/AMSCAR Round 1 Amaroo Park Sydney, New South Wales Robbie Francevic Mark Petch Motorsport Volvo 240T  9 Mar ATCC Round 2 Symmons Plains Raceway Launceston, Tasmania Robbie Francevic Mark Petch Motorsport Volvo 240T  4 Apr Better Brakes/AMSCAR Round 2 Amaroo Park Sydney, New South Wales Garry Rogers Garry Rogers Motorsport BMW 635 CSi  13 Apr ATCC Round 3 Sandown Raceway Melbourne, Victoria George Fury Peter Jackson Nissan Racing Nissan Skyline DR30 RS  27 Apr ATCC Round 4 Adelaide International Raceway Adelaide, South Australia Robbie Francevic Volvo Dealer Team Volvo 240T  
22511904 {{leagueicon|barrow|16}} Barrow Raiders Barrow, Cumbria Craven Park  Championship {{leagueicon|Bradford|16}} Bradford Bulls Bradford, West Yorkshire Odsal Stadium 27,000 Super League {{leagueicon|crusaders|16}} Celtic Crusaders Wrexham, Wales Racecourse Ground 15,000 Super League {{leagueicon|harlequins|16}} Harlequins Twickenham, London Twickenham Stoop 14,000 Super League {{leagueicon|hull|16}} Hull F.C. Hull, East Yorkshire KC Stadium 25,000 Super League 
22556616 2000–01 MIF Redhawks J20  20 4 4 8 8  3 0 0 2001–02 MIF Redhawks J20  33 13 17 30 50  8 8 4 2002–03 MIF Redhawks J20  17 5 12 17 14  — — — 2002–03 MIF Redhawks SEL  14 1 0 1 2  — — — 2002–03 IF Troja/Ljungby SWE.2  14 2 1 3 20  3 0 1 
22590160 1 12/128 22 {{cr|SA}} Sydney Cricket Ground Sydney Australia 1994 2 11/110 30 {{cr|ENG}} Brisbane Cricket Ground Brisbane Australia 1994 3 11/77 39 {{cr|PAK}} Brisbane Cricket Ground Brisbane Australia 1995 4 12/109 63 {{cr|SA}} Sydney Cricket Ground Sydney Australia 1998 5 11/229 92 {{cr|ENG}} Kennington Oval London England 2001 
22604378 1 4 Stone Brothers Racing Marcos Ambrose Ford BA Falcon 78 3 3 2 1 Holden Racing Team Mark Skaife Holden VY Commodore 78 2 2 3 50 Paul Weel Racing Jason Bright Holden VX Commodore 78 1 1 5 2 Holden Racing Team Todd Kelly Holden VY Commodore 78 8 8 7 9 Stone Brothers Racing Russell Ingall Ford BA Falcon 78 10 9 
22631824 1949 Western Kentucky (8–2) Western Kentucky Jefferson County Armory Louisville, Kentucky 1950 Western Kentucky (8–0) Eastern Kentucky Jefferson County Armory Louisville, Kentucky 1951 Murray State (9–3) Murray State Jefferson County Armory Louisville, Kentucky 1952 Western Kentucky (9–1) Western Kentucky Jefferson County Armory Louisville, Kentucky 1953 Eastern Kentucky (9–1) Western Kentucky Jefferson County Armory Louisville, Kentucky 
22648111 1 12 Jeremy Mayfield Penske Racing South Ford 35.116 158.779 2 24 Jeff Gordon Hendrick Motorsports Chevrolet 35.122 158.772 4 21 Elliott Sadler Wood Brothers Racing Ford 35.259 158.155 5 88 Darrell Waltrip Robert Yates Racing Ford 35.371 157.654 6 99 Jeff Burton Roush Racing Ford 35.399 157.530 
22673590 2000 Austin Powers: The Spy Who Shagged Me Mike Myers and Verne Troyer 2000 The Matrix Keanu Reeves and Laurence Fishburne 2000 The Sixth Sense Bruce Willis and Haley Joel Osment 2000 Toy Story 2 Tim Allen and Tom Hanks 2001 Cast Away Tom Hanks and Wilson the volleyball 
22675924 9th 1940–1944  James Popil Social Credit 10th 1944–1948  James Popil Social Credit 11th 1948–1952  Peter Chaba Social Credit 12th 1952–1955  Peter Chaba Social Credit 13th 1955–1959  Alfred Macyk Liberal 
2267857 1963 June 30 3 Junior Johnson Ray Fox Chevrolet 267 400.5 (644.542) 3:18:42 121.139 Report 1964 June 7 11 Ned Jarrett Bondy Long Ford 267 400.5 (644.542) 3:33:32 112.535 Report 1965 June 13 21 Marvin Panch Wood Brothers Racing Ford 267 400.5 (644.542) 3:38:13 110.12 Report 1967 August 6 29 Dick Hutcherson Bondy Long Ford 334 501 (806.281) 3:47:14 132.286 Report 1968 August 4 98 LeeRoy Yarbrough Junior Johnson & Associates Ford 334 501 (806.281) 3:56:34 127.068 Report 
2268332 1982 Via degli specchi Giovanna Gagliardo  1983 The World of Don Camillo Terence Hill  1984 Over the Brooklyn Bridge Menahem Golan  1985 The Adventures of Hercules Luigi Cozzi  1985 The Berlin Affair Liliana Cavani  
2275361 1984–85 Simcoe Penguins NDJHL  3    — 100 21  12.60   — — — — — — 1986–87 Norwich Merchants NDJHL  19    — 1091 55  3.03   — — — — — — 1987–88 Belleville Bobcats MetJHL  21 9 6 1 — 1070 60 2 3.36   — — — — — — 1988–89 Thorold Blackhawks GHJHL  27 15 6 4 — 1490 82 0 3.30   — — — — — — 1989–90 Thorold Blackhawks GHJHL  30 18 8 1 — 1683 108 0 3.85   — — — — — — 
22757232 2012 AFC Cup Group G Chonburi 1–1 0–1 4th 2012 AFC Cup Group G Citizen AA 1–2 1–2 4th 2012 AFC Cup Group G Home United 0–0 1–3 4th 2013 AFC Cup Group F Sun Hei 2–0 3–1 2nd 2013 AFC Cup Group F Persibo Bojonegoro 3–0 7–1 2nd 
22759707 LB&SCR {{whyte|0-6-0|T}} A1 Bluebell Railway No, 672 Fenchurch. Built in 1872. Arrived at Bluebell 1963. Returned to traffic in 2001 after a rebuild. This engine was withdrawn at the end of January 2011 following expiry of its boiler certificate. Overhaul is now likely to start as not much work is needed to be done on the locomotive for it to be running again, with an ambition to return the locomotive to steam for the 150th anniversary of its construction in 2022. There is possibility that Fenchurch will be rebuilt back to A1X condition for her next ticket. File:Bluebell Railway - geograph.org.uk - 435324.jpg LB&SCR {{whyte|0-6-0|T}} A1 Bluebell Railway No. 55 Stepney. Built in 1875. Seen by many as the flagship of the fleet, it was the first locomotive to be permanently based on the line in May 1960. The engine was relaunched into traffic in time for the 50th Anniversary of his arrival on the line on 17 May 2010, emerging in the black livery he wore during the 1960 season. Withdrawn from service in March 2014 after its main steam pipe failed. The engine requires a full overhaul, including a new cylinder block. It already has restored to its original Stroudley Golden Ochre colour. He has been known for starring in Wilbert Awdry's Stepney the "Bluebell" Engine, part of The Railway Series, and the famous children's TV show Thomas & Friends, created by Britt Allcroft. File:55StepneyHorstedKeynes.JPG LSWR {{whyte|0-4-0|T}} B4 The Bulleid Society No. 96 Normandy Built in 1893. Arrived at Bluebell 1978. Funds are now being raised by the owning society, and it is hoped that any overhaul may commence after 21C123 Blackmoor Vale and 34059 Sir Archibald Sinclair are complete and the good condition of the loco is established. The need for this locomotive has become less with the acquisition of a small diesel locomotive for shunting duties and the use of other tank engines for steam shunts. Has been painted as BR No. 30096 Normandy for the Branchline Weekend. File:NormandyHK.JPG LSWR {{whyte|4-4-2|T}} 0415 Bluebell Railway 
22871559 Cruise1323 Oldies Simulcast of 1323 AM ARN 0x1062 48kbit/s Mix102.3 Classic hits / Hot adult contemporary Simulcast of 102.3 FM ARN 0x1061 48kbit/s Chemist Warehouse Remix Classic hits / Hot adult contemporary Digital only ARN 0x106A 32kbit/s FIVEaa Talk radio Simulcast of 1395 AM NOVA 0x1089 64kbit/s Nova 919 Top 40 / Classic hits radio Simulcast of 91.9 FM NOVA 0x1088 64kbit/s 
22883216 2006 {{sortname|Christian|Bale}} {{double dagger|alt=Award winner}} {{sort|Wayne|[[Batman|Bruce Wayne / Batman]]}} Batman Begins 2006 {{sortname|Kate|Beckinsale}} Selene Underworld: Evolution 2012 {{sortname|Chris|Evans|dab=actor}} {{sortname|Steve|Rogers|dab=Marvel Cinematic Universe}} Captain America: The First Avenger 2013 {{sortname|Kristen|Stewart}} {{sortname|Snow|White}} Snow White and the Huntsman 2014 {{sortname|Robert|Downey Jr.}} {{sort|Stark|[[Tony Stark (Marvel Cinematic Universe)|Tony Stark / Iron Man]]}} Iron Man 3 
22945320 1 Nandurbar Gavit Manikrao Hodlya Indian National Congress 2 Dhule Pratap Narayanrao Sonawane Bharatiya Janata Party 3 Jalgaon A T Nana Patil Bharatiya Janata Party 4 Raver Haribhau Madhav Jawale Bharatiya Janata Party 5 Buldhana Prataprao Ganpatrao Jadhav Shivsena 
22977531 1 {{flagicon|US}} Scott Pruett Patrick Racing Reynard 98i Ford-Cosworth 31.249 2 {{flagicon|US}} Jimmy Vasser Chip Ganassi Racing Reynard 98i Honda 31.301 3 {{flagicon|US}} Michael Andretti Newman-Haas Racing Swift 009.c Ford-Cosworth 31.372 4 {{flagicon|US}} Richie Hearn Della Penna Motorsports Swift 009.c Ford-Cosworth 31.377 5 {{flagicon|US}} Bobby Rahal Team Rahal Reynard 98i Ford-Cosworth 31.394 
22990268 Aberavon Talbot Athletic Ground 3,000 Aberavon, Neath Port Talbot, Wales Bedford Blues Goldington Road 4,684 Bedford, Bedfordshire, England Cardiff Cardiff Arms Park 13,500 Cardiff, Wales Coventry Butts Park Arena 4,000 Coventry, West Midlands, England Doncaster Castle Park 3,075 Doncaster, South Yorkshire, England 
230014 Class Z File:Lough Erne, Whitehead.JPG Steam locomotive 1949 1969 Ex-SLNCR Lough class. Class WT File:NCC WT Class loco no 4.JPG Steam locomotive 1946–1950 1969–1971 2-6-4 tank engines nicknamed "Jeeps" due to their general purpose traffic ability. Used for Spoil trains from Magheramorne to shores of Belfast Lough as well as shunting, passenger and freight.Arguably the last steam locomotives in mainline operation in the British Isles. AEC File:Lambeg station (1971) - geograph.org.uk - 991887.jpg Diesel multiple unit 1948–1950 1972 10 Inherited from the UTA. BUT File:BUT railcar, Lisburn - geograph.org.uk - 1442604.jpg Diesel multiple unit 1956–1958 1975 – 1980 Nine vehicles converted to hauled stock over the 1970s, these lasted until 1980. MED File:Delayed train, Lisburn - geograph.org.uk - 1087236.jpg Diesel Multiple Unit 1952–1954 1973–1978 Intended for local services around Belfast. 
23011091 1 2 Garth Tander Holden VE Commodore Holden Racing Team 51.7043 51.6615  2 51 Greg Murphy Holden VE Commodore Sprint Gas Racing 51.7574 51.5554  4 39 Russell Ingall Holden VE Commodore Supercheap Auto Racing 51.8956 51.6319  5 18 James Courtney Ford FG Falcon Jim Beam Racing 51.9352 51.5702  6 15 Rick Kelly Holden VE Commodore Jack Daniel's Racing 52.0238 51.6595  
23055775 2010
19th Male Performance Robert Pattinson The Twilight Saga: New Moon Edward Cullen 2010
19th Male Performance Taylor Lautner The Twilight Saga: New Moon Jacob Black 2010
19th Female Performance Kristen Stewart The Twilight Saga: New Moon Bella Swan 2011
20th Male Performance Robert Pattinson The Twilight Saga: Eclipse Edward Cullen 2011
20th Male Performance Taylor Lautner The Twilight Saga: Eclipse Jacob Black 
23166636 File:Dorothy of Denmark, Norway & Sweden (1445) 1440s.jpg Dorothea of Brandenburg John, Margrave of Brandenburg-Kulmbach
(Hohenzollern) 1430/31 28 October 1449 5 March 1460
husband's ascession 21 May 1481
husband's death 10 November 1495 Christian I File:Dronning-Christine.jpg Christina of Saxony Ernest, Elector of Saxony
(Wettin) 25 December 1461 6 September 1478 21 May 1481
husband's ascession 20 February 1513
husband' death 8 December 1521 John File:Isabella of Spain Denmark.jpg Isabella of Austria Philip I of Castile
(Habsburg) 18 July 1501 12 August 1515 12 August 1515 20 January 1523
husband's desposition 19 January 1526 Christian II File:Bordesholm Klosterkirche Grab 1.jpg Anna of Brandenburg John Cicero, Elector of Brandenburg
(Hohenzollern) 27 August 1487 10 April 1502
as co-duchess 10 April 1502
as co-duchess 3 May 1514 3 May 1514 Frederick I File:Dronning-Sophie.jpg Sophie of Pomerania Bogislaw X, Duke of Pomerania
(Pomerania) 1498 9 October 1518
as co-duchess 9 October 1518
as co-duchess 10 April 1533
husband's death 13 May 1568 Frederick I 
23208511 1949 Tobacco Bowl Richmond Spiders W 14–7 1952 Tobacco Bowl Virginia Cavaliers L 33–14 1963 Oyster Bowl Navy Midshipmen L 21–12 1964 Tobacco Bowl Virginia Cavaliers L 20–19 1967 Tobacco Bowl William & Mary L 33–28 
23210488 Suzann Pettersen {{flagicon|USA}} 3 & 2 Paula Creamer Becky Brewerton {{flagicon|USA}} 5 & 4 Angela Stanford Helen Alfredsson {{flagicon|USA}} 1 up Michelle Wie Laura Davies halved Brittany Lang Gwladys Nocera halved Juli Inkster 
23232095 1 ISTAF Berlin Berlin Germany GL GL GL GL GL 2 Bislett Games Oslo Norway GL GL GL GL GL 3 Golden Gala Rome Italy GL GL GL GL GL 5 Memorial Van Damme Brussels Belgium GL GL GL GL GL 6 Meeting Areva Saint-Denis France GL GL GL GL GL 
23266440 1 8 Jason Richards Holden VE Commodore Brad Jones Racing 1:09.4908 1:09.3342  3 2 Garth Tander Holden VE Commodore Holden Racing Team 1:09.5595 1:09.6419  5 7 Todd Kelly Holden VE Commodore Jack Daniel's Racing 1:09.7586 1:09.3957  6 5 Mark Winterbottom Ford FG Falcon Ford Performance Racing 1:09.7629 1:09.6319  7 33 Lee Holdsworth Holden VE Commodore Garry Rogers Motorsport 1:09.9014 1:09.5438  
23349634 38 Mulhouse 2 – 2 (aet)
7–6 p. Sarre-Union 46 Rouen 2 – 4 (aet) Beauvais 47 Caen 1–0 Dunkerque 48 Aire-sur-la-Lys 5–0 Feignies 49 Calais 1–3 Sedan 
23379761 II 1934 London {{ENG}} {{flagCGF|AUS|1934}},
{{flagCGF|CAN|1934}} IV 1950 Auckland {{NZL}} {{flagCGF|AUS|1950}} VI 1958 Cardiff {{WAL}} {{flagCGF|ENG|1958}} VIII 1966 Kingston {{JAM}} {{flagCGF|ENG|1966}} IX 1970 Edinburgh {{SCO}} {{flagCGF|AUS|1970}} 
23387112 1 Garrett Ghee Longford 1-12 15 Warwickshire 1 Garrett Ghee Longford 1-12 15 Leitrim 3 Joe O'Brien Longford 4-1 13 South Down 3 Paul McGoldrick Fermanagh 0-13 13 Cavan 5 Garrett Ghee Longford 1-9 12 Donegal 
23454291 Nik Antropov New York Rangers 4 years, $16 million Joel Kwiatkowski Severstal Cherepovets undisclosed Jason Krog Manitoba Moose undisclosed Drew MacIntyre Milwaukee Admirals undisclosed Peter Mannino New York Islanders undisclosed 
2348032 103 Eisenstadt-Umgebung 1921 EU Eisenstadt 41,474 204 Klagenfurt-Land 1868 KL Klagenfurt 58,435 207 Villach-Land 1868 VL Villach 64,268 313 Krems 1868 KR Krems an der Donau 55,945 410 Linz-Land 1868 LL Linz 141,540 
23492920 1 18 James Courtney Dick Johnson Racing Ford FG Falcon 1:12.4747 3 111 Fabian Coulthard Paul Cruickshank Racing Ford FG Falcon 1:12.8161 4 2 Garth Tander Holden Racing Team Holden VE Commodore 1:12.8248 5 9 Shane van Gisbergen Stone Brothers Racing Ford FG Falcon 1:12.8251 8 33 Lee Holdsworth Garry Rogers Motorsport Holden VE Commodore 1:12.8635 
2349974 2004–05 Lincoln Stars USHL  12 0 3 3 4  4 2 3 2005–06 University of North Dakota WCHA  43 3 22 25 44  — — — 2006–07 University of North Dakota WCHA  38 2 24 26 69  — — — 2007–08 Binghamton Senators AHL  55 3 22 25 51  — — — 2007–08 Ottawa Senators NHL  6 0 1 1 4  4 0 0 
23511064 1984
{{small|(11th)}} Dolly Parton "Potential New Boyfriend"  1985
{{small|(12th)}} Anne Murray "A Little Good News"  1985
{{small|(12th)}} The Statler Brothers "Elizabeth"  1985
{{small|(12th)}} Willie Nelson "Tougher Than Leather"  1987
{{small|(14th)}} The Judds "Grandpa (Tell Me 'Bout the Good Ol' Days)"  
23528996 1990
{{small|(17th)}} Clint Black  1990
{{small|(17th)}} Cee Cee Chapman  1990
{{small|(17th)}} Skip Ewing  1991
{{small|(18th)}} The Kentucky Headhunters  1991
{{small|(18th)}} Alan Jackson  
23594483 F
E
B 14 Kannathil Muthamittal Maniratnam R. Madhavan, Simran, Nandita Das, P. S. Keerthana, J. D. Chakravarthy, Pasupathy, Prakash Raj A. R. Rahman A
P
R 12 Sri Bannari Amman Bharathi Kannan Karan, Kushboo, Vijayashanti T. Rajendar A
P
R 12 Thamizhan Majith Vijay, Priyanka Chopra D. Imaan M
A
Y 10 Thulluvadho Ilamai Kasthuri Raja Dhanush, Sherin Yuvan Shankar Raja M
A
Y 10 Unnai Ninaithu Vikraman Suriya, Laila, Sneha Sirpi 
23598418 1938 Claudia Testoni {{ITA}} Women 80 m hurdles 11.6 sec 1954 Vladimir Kuts {{URS}} Men 5000 metres 13:56.6 min 1954 Mikhail Krivonosov {{URS}} Men Hammer throw 63.34 m 1962 Salvatore Morale {{ITA}} Men 400 m hurdles 49.2 sec 1962 Maria Itkina {{URS}} Women 400 metres 53.4 sec 
2371556 1998–99 Jokerit SM-l &nbsp; 41 3 2 5 39 &nbsp; — — — 1999–2000 Jokerit SM-l &nbsp; 49 6 3 9 10 &nbsp; 11 1 0 2000–01 Jokerit SM-l &nbsp; 50 5 10 15 18 &nbsp; 5 0 0 2001–02 Edmonton Oilers NHL &nbsp; 1 0 0 0 0 &nbsp; — — — 2002–03 Edmonton Oilers NHL &nbsp; 12 3 1 4 0 &nbsp; — — — 
23725 1961 The Law and Mr. Jones Supporting Role in a Single Program {{nom}} 1962 The Dick Powell Theatre Lead Actor - Miniseries TV Movie {{win}} 1972 Columbo Lead Actor - Drama Series {{win}} 1973 Columbo Lead Actor - Drama Series {{nom}} 1974 Columbo Lead Actor - Limited Series {{nom}} 
23728877 Cheryl Angelelli S4 50m freestyle 53.37 2 Q 53.23 4 Cheryl Angelelli S4 100m freestyle 1:52.56 4 Q 1:52.07 4 Cheryl Angelelli S4 200m freestyle 3:57.44 3 Q 3:51.41 {{bronze03}} Melanie Benn S4 50m freestyle 56.42 6 Q 52.50 {{silver02}} Melanie Benn S4 100m freestyle 1:51.56 3 Q 1:51.59 {{bronze03}} 
23749385 1 3 Max Biaggi Aprilia RSV4 20 40:18.306 3 25 2 7 Carlos Checa Honda CBR1000RR 20 +3.631 10 20 3 65 Jonathan Rea Honda CBR1000RR 20 +9.948 4 16 5 11 Troy Corser BMW S1000RR 20 +14.599 6 11 8 41 Noriyuki Haga Ducati 1098R 20 +20.731 14 8 
23759576 {{Flag|Cambodia}} Phnom Penh Phnom Penh International Airport {{Airline hub}}  {{Flag|Cambodia}} Siem Reap Siem Reap International Airport {{Airline hub}}  {{Flag|China}} Beijing Beijing Capital International Airport   {{Flag|China}} Changsha Changsha Huanghua International Airport {{Airline seasonal|''Charter''}}  {{Flag|China}} Chengdu Chengdu Shuangliu International Airport {{Airline seasonal|''Charter''}}  
23762701 3 Ingvild Snildal {{NOR}} 25.62 13 7 NR 6 Silvia di Pietro {{ITA}} 25.84 13 6 NR 7 Jeanette Ottesen {{DEN}} 25.86 14 3 NR 8 Yafei Zhou {{CHN}} 26.00 14 2 AS 10 Gabriella Silva {{BRA}} 26.07 13 2 SA 
2377478 Wayne Gretzky Edmonton Oilers 303 60 1 0 Dale Hawerchuk Winnipeg Jets 91 1 23 17 Pelle Lindbergh Philadelphia Flyers 56 0 15 11 Rod Langway Washington Capitals 28 1 6 5 Raymond Bourque Boston Bruins 21 0 5 6 
23823885 1 6 Ryan Briscoe Penske Racing 200 1:28:24:3246 3 38 50 3 11 Tony Kanaan Andretti Green Racing 200 + 0.1614 9 1 35 5 02 Graham Rahal Newman/Haas/Lanigan Racing 200 + 0.6346 10 0 30 6 10 Dario Franchitti Chip Ganassi Racing 200 + 1.7670 2 0 28 7 9 Scott Dixon Chip Ganassi Racing 200 + 3.2512 1 94 28 
23833420 L. Hutton {{Cr|ENG}} Leg-Spin Bowler 0. 6  2 1 1/2 2. 00   R. G. Archer {{Cr|AUS}} Right-Arm Fast Bowler 97. 6 32 215 13 4/33 16. 53   F. H. Tyson {{Cr|ENG}} Right-Arm Fast Bowler 151 16 583 28 7/27 20. 82 2 1 R. R. Lindwall {{Cr|AUS}} Right-Arm Fast Bowler 130. 6 28 381 14 3/27 27. 21   J. B. Statham {{Cr|ENG}} Right-Arm Fast-Medium Bowler 143. 3 16 499 18 5/60 27. 72 1  
23876150 {{gold medal}} Bart Dodson Athletics Men's club throw 1A {{gold medal}} Bart Dodson Athletics Men's pentathlom 1A {{gold medal}} Maureen Gaynor Athletics Women's distance throw C1 {{gold medal}} Maureen Gaynor Athletics Women's slalom C1 {{gold medal}} Steve Roloff Equestrian Dressage - elementary walk/trot C3/6 
2388252 1996–97 Saint-Gabriel Blizzard Acton Vale Nova 1998–99 Joliette Blizzard Saint-Georges Garaga 2000–01 Joliette Mission Saint-Georges Garaga 2001–02 Laval Chiefs Thetford Mines Prolab 2002–03 Laval Chiefs Thetford Mines Prolab 
23967409 2 Darren Tilley Rochester Rhinos 21 6 48 3 Amos Magee Minnesota Thunder 15 10 40 4 Kirk Wilson El Paso Patriots 15 7 37 6 Gary Glasgow New Orleans Storm 15 4 34 6 Antonio Robles San Diego Flash 15 4 34 
23979511 2000-01 12 Malvern Luctonians Lichfield, Belgrave, Moseley Oak Midlands Division 2 West 2003-04 12 Bromsgrove Derby Bedworth, Hereford, Barkers Butts Midlands Division 2 West 2004-05 12 Burton Malvern Nuneaton Old Edwardians, Old Coventrians, Aston Old Edwardians Midlands Division 2 West 2005-06 12 Broadstreet Kenilworth Old Laurentians, Leamington, Stoke-on-Trent Midlands Division 2 West 2007-08 12 Malvern Hereford Newbold-on-Avon, Barkers Butts, Lichfield Midlands Division 2 West 
2399487 1934–35 Trust 0–0 / 1–0 (R) APOEL 1936–37 APOEL 2–1 Trust 1937–38 Trust 2–1 AEL Limassol 1938–39 AEL Limassol 3–1 APOEL 1939–40 AEL Limassol 3–1 Pezoporikos Larnaca 
2400830 1993 Bobby Labonte 22 Ford DAY
20 CAR
33 RCH
29 ATL
18 DAR
18 BRI
24 NWS
25 MAR
12 TAL
35 SON
16 CLT
8 DOV
19 POC
20 MCH
36 DAY
41 NHA
10 POC
15 TAL
15 GLN
7 MCH
8 BRI
15 DAR
14 RCH
13 DOV
7 MAR
32 NWS
12 CLT
28 CAR
22 PHO
8 ATL
14       19th 3221 1994 Bobby Labonte 22 Pontiac DAY
16 CAR
19 RCH
24 ATL
15 DAR
39 BRI
6 NWS
26 MAR
19 TAL
22 SON
17 CLT
40 DOV
20 POC
25 MCH
15 DAY
22 NHA
13 POC
13 TAL
12 IND
16 GLN
18 MCH
5 BRI
31 DAR
36 RCH
24 DOV
17 MAR
31 NWS
15 CLT
42 CAR
28 PHO
16 ATL
37      21st 3038 1995 Randy LaJoie 22 Pontiac DAY
29 CAR
25 RCH
27 ATL
39 DAR
16 BRI
12 NWS
23 MAR
DNQ TAL
13 SON
32 CLT
23 DOV
23 POC
40 MCH
41                       30th 2448 1995 Jimmy Hensley 22 Pontiac               DAY
30 NHA
41 POC
32 TAL
DNQ IND
32  MCH
22                30th 2448 1995 Ward Burton 22 Pontiac                      BRI
34 DAR
4 RCH
11 DOV
21 MAR
21 NWS
DNQ CLT
7 CAR
1 PHO
42 ATL
5      30th 2448 
2400919 1992 Dinamo Minsk Dnepr Mogilev 6–1 Dinamo Stadium, Minsk 2,500 1993 Neman Grodno Vedrich Rechitsa 2–1 Dinamo Stadium, Minsk 11,000 1994 Dinamo Minsk Fandok Bobruisk 3–1 Dinamo Stadium, Minsk 3,000 1995 Dinamo-93 Minsk Torpedo Mogilev 1–1 (p.7–6) Dinamo Stadium, Minsk 2,500 1996 MPKC Mozyr Dinamo Minsk 4–1 Dinamo Stadium, Minsk 7,600 
24037660 1= Patrick Long Flying Lizard Motorsports 20 20 25 8 20 10 16 20 18 157 2 Gianmaria Bruni Risi Competizione 30 10 15 20 0 20 6 16 23 140 4 Jaime Melo Risi Competizione 30 10 15 20 0 20 6  14 115 5 Oliver Gavin Corvette Racing 12 2 18 1 8 16 13 10 30 110 6 Jan Magnussen Corvette Racing 13 16 11 13 0 0 10 10 30 103 
24051939 2 5 Mark Winterbottom Ford FG Falcon Ford Performance Racing 1:10.8590 1:10.9075  3 18 James Courtney Ford FG Falcon Dick Johnson Racing 1:10.9178 1:10.8912  4 2 Garth Tander Holden VE Commodore Holden Racing Team 1:10.9715 1:11.0162  7 9 Shane van Gisbergen Ford FG Falcon Stone Brothers Racing 1:11.1024 1:11.1231  8 111 Fabian Coulthard Ford FG Falcon Paul Cruickshank Racing 1:11.2470 1:11.0057  
2407155 1998–99 Edmonton Oilers NHL  73 5 16 21 42  4 0 1 1999–2000 Edmonton Oilers NHL  76 9 26 35 65  5 0 1 2000–01 Edmonton Oilers NHL  81 12 20 32 60  6 0 2 2001–02 Edmonton Oilers NHL  55 1 16 17 32  — — — 2001–02 New York Rangers NHL  11 1 7 8 2  — — — 
2410581 1981–82 Saskatoon Blades WHL &nbsp; 6 1 0 1 0 &nbsp; — — — 1982–83 Saskatoon Blades WHL &nbsp; 59 6 31 37 44 &nbsp; 6 0 2 1983–84 Saskatoon Blades WHL &nbsp; 72 13 46 59 81 &nbsp; — — — 1984–85 Saskatoon Blades WHL &nbsp; 72 16 51 67 158 &nbsp; 3 1 6 1987–88 Chicago Blackhawks NHL &nbsp; 15 2 8 10 15 &nbsp; 5 0 4 
24107780 2008–09 Krylia Sovetov RUS 2  44 11 6 17 12  — — — 2009–10 Dinamo Riga KHL  32 3 4 7 4  3 1 0 2009–10 Dinamo-Juniors Riga BXL  18 13 10 23 12  — — — 2010–11 Dinamo Riga KHL  43 4 2 6 8  3 0 0 2010–11 HK Riga MHL  43 12 21 14 6  3 3 2 
24121217 100 m 9.97 (+0.8&nbsp;m/s) Abdul Hakim Sani Brown 7 June 2019 NCAA Division I Championships {{flagicon|USA}} Austin, United States  200 m 20.03 (+0.6&nbsp;m/s) Shingo Suetsugu 7 June 2003 Japanese Championships {{flagicon|JPN}} Yokohama, Japan  400 m 44.78 Susumu Takano 16 June 1991 Japanese Championships {{flagicon|JPN}} Tokyo, Japan  800 m 1:45.75 Sho Kawamoto 11 May 2014 Golden Grand Prix {{flagicon|JPN}} Tokyo, Japan  1500 m 3:37.42 Fumikazu Kobayashi 31 July 2004 KBC Night of Athletics {{flagicon|BEL}} Heusden-Zolder, Belgium  
2416915 1998–99 St. Louis Blues NHL  22 3 7 10 8  — — — 1998–99 Worcester IceCats AHL  44 17 22 39 24  4 2 1 1999–2000 Worcester IceCats AHL  44 23 28 51 39  — — — 1999–2000 St. Louis Blues NHL  32 10 14 24 20  7 2 1 2000–01 Worcester IceCats AHL  34 17 18 35 25  — — — 
2417454 200 m 22.57 Hana Benesova {{CZE}} 13 July 1997 1997 {{flagicon|FIN}} Turku, Finland  400 m 50.72 Olga Zaytseva {{RUS}} 16 July 2005 2005 {{flagicon|GER}} Erfurt, Germany  800 m 1:58.94 Yelena Kofanova {{RUS}} 18 July 2009 2009 {{flagicon|LTU}} Kaunas, Lithuania  400 m hurdles 54.50 Angela Morosanu {{ROM}} 14 July 2007 2007 {{flagicon|HUN}} Debrecen, Hungary  High jump 1.98 m Svetlana Lapina {{RUS}} 1 August 1999 1999 {{flagicon|SWE}} Gothenburg, Sweden  
24202978 Sahara Park Newlands Cape Town 25,000 Cape Cobras Boland Park Paarl 10,000 Cape Cobras Sahara Park Kingsmead Durban 25,000 Dolphins Pietermaritzburg Oval Pietermaritzburg 12,000 Dolphins OUTsurance Oval Bloemfontein 20,000 Diamond Eagles 
24207627 {{baseball year|1950}} {{sortname|Nobuo|Oshima}} Shochiku Robins P {{baseball year|1951}} {{sortname|Kiyoshi|Matsuda}} Yomiuri Giants P {{baseball year|1952}} {{sortname|Takao|Sato}} Kokutetsu Swallows SS {{baseball year|1953}} {{sortname|Masatoshi|Gondo}} Taiyō-Shochiku Robins P {{baseball year|1954}} {{sortname|Tatsuro|Hirooka}} Yomiuri Giants SS 
2421304 1983–84 Hull Olympiques QMJHL  70 8 38 46 42  — — — 1984–85 Hull Olympiques QMJHL  67 21 56 77 98  5 2 1 1985–86 Hull Olympiques QMJHL  71 14 52 66 166  15 1 7 1986–87 Hull Olympiques QMJHL  33 6 22 28 74  8 3 4 1987–88 Baltimore Skipjacks AHL  22 0 3 3 6  — — — 
24226816 {{nlcsy|1977}} {{sortname|Dusty|Baker}} Los Angeles Dodgers Outfielder .357 batting average
2 home runs
8 runs batted in  {{nlcsy|1978}} {{sortname|Steve|Garvey}} Los Angeles Dodgers First baseman .389 batting average
4 home runs
7 runs batted in  {{nlcsy|1979}}* {{sortname|Willie|Stargell}}† Pittsburgh Pirates First baseman .455 batting average
2 home runs
6 runs batted in  {{nlcsy|1980}} {{sortname|Manny|Trillo}} Philadelphia Phillies Second baseman .381 batting average
8 hits
4 runs batted in  {{nlcsy|1981}} {{sortname|Burt|Hooton}} Los Angeles Dodgers Starting pitcher 2–0 record over 2 games started
0 earned runs allowed over 14 {{frac|2|3}} innings
1.16 WHIP  
24231014 1 Herlev Hospital 1976 {{convert|120|m|ft|0|abbr=on}} Herlev Denmark's tallest building, 8th tallest modern hospital in the world. File:Kas-herlev-2004.jpg 2 Christiansborg Palace 1928 {{convert|106|m|ft|0|abbr=on}} Copenhagen Home to the Danish parliament, Prime Minister's Office and the Supreme Court. File:Christiansborg Slot Copenhagen 2014 01.jpg 3 Copenhagen City Hall 1905 {{convert|105.6|m|ft|0|abbr=on}} Copenhagen City hall File:Copenhagen City Hall.jpg 4 Domus Vista 1969 {{convert|102|m|ft|0|abbr=on}} Frederiksberg Tallest residential building in Denmark. File:Domus vista 3.jpg 6 Aarhus Cathedral {{Start date and age|df=yes|1300}} {{convert|96|m|ft|0|abbr=on}} Aarhus Cathedral in Aarhus. Tallest building in the city. Tallest church in Denmark. File:Aarhus domkirke tower.jpg 
24237169 Davenport Panthers Davenport University Grand Rapids GLIAC {{ya}} {{ya}} {{ya}} {{ya}} {{ya}} {{na}} {{na}} {{ya}} {{ya}} Ferris State Bulldogs Ferris State University Big Rapids GLIAC {{ya}} {{ya}} {{ya}} {{na}} {{ya}} {{ya}} {{efn|name=wh|Ferris State, Lake Superior State, Michigan Tech, and Northern Michigan's men's ice hockey teams all compete in Division I as members of the [[Western Collegiate Hockey Association]].}} {{na}} {{na}} {{ya}} Grand Valley State Lakers Grand Valley State University Allendale GLIAC {{ya}} {{ya}} {{ya}} {{ya}} {{ya}} {{na}} {{na}} {{na}} {{ya}} Hillsdale Chargers Hillsdale College Hillsdale Great Midwest {{ya}} {{ya}} {{ya}} {{ya}} {{ya}} {{na}} {{na}} {{na}} {{na}} Lake Superior State Lakers Lake Superior State University Sault Ste. Marie GLIAC {{na}} {{ya}} {{ya}} {{na}} {{na}} {{ya}} {{efn|name=wh}} {{na}} {{na}} {{na}} 
24240907 {{silver medal}} Colin Keay Athletics Men's 100m C6 {{silver medal}} Nigel Coultas Athletics Men's 400m A6/A8-9/L4 {{silver medal}} Noel Thatcher Athletics Men's 1500m B2 {{silver medal}} Steven Varden Athletics Men's club throw C2 {{silver medal}} Kevan McNicholas Athletics Men's shot put 2 
24305511 1 22 Paul Dumbrell Holden VE Commodore Holden Racing Team 1:33.3204 2 7 Todd Kelly Holden VE Commodore Kelly Racing 1:33.3314 3 2 Will Davison Holden VE Commodore Holden Racing Team 1:33.4363 5 18 Warren Luff Ford FG Falcon Dick Johnson Racing 1:33.5769 6 6 Steven Richards Ford FG Falcon Ford Performance Racing 1:33.7058 
24322465 13 Luke Daniels Tranmere Rovers 21 July End of season 25 Joss Labadie Shrewsbury Town 3 August 3 September 29 David Worrall Shrewsbury Town 6 August 6 September 8 Jonathan Greening Fulham 22 August End of season 28 Borja Valero RCD Mallorca 31 August End of season 
24343772 Gelasius II 1118–1119 Article 1 1 Callixtus II 1119–1124 Article 5 23 Honorius II 1124–1130 Article 7 to 9 14 Innocent II 1130–1143 Article 26 to 30 46 to 53 Antipope Anacletus II 1130–1138 Article ? 14 to 17 
24385119 1 {{sortname|Lewis|Hamilton}} {{GBR}} {{F1stat|HAM|poles}} {{F1stat|HAM|entries}} {{F1|2007}}– 2007 Canadian Grand Prix 2019 German Grand Prix 2 {{sortname|Michael|Schumacher}} {{DEU}} 68 308 {{F1|1991}}–{{F1|2006}}
{{F1|2010}}–{{F1|2012}} 1994 Monaco Grand Prix 2006 French Grand Prix 3 {{sortname|Ayrton|Senna}} {{BRA}} 65 162 {{F1|1984}}–{{F1|1994}} 1985 Portuguese Grand Prix 1994 San Marino Grand Prix 4 {{sortname|Sebastian|Vettel}} {{DEU}} {{F1stat|VET|poles}} {{F1stat|VET|entries}} {{F1|2007}}– 2008 Italian Grand Prix 2019 Canadian Grand Prix 5 {{sortname|Jim|Clark}} {{GBR}} 33 73 {{F1|1960}}–{{F1|1968}} 1962 Monaco Grand Prix 1968 South African Grand Prix 
24388166 Dublin 2009 Division 1 6 3-04 3 0-07 1 0-01 10 3-12 Dublin 2010 Division 1 6 0-08 1 0-00 1 0-00 8 0-08 Dublin 2011 Division 1 1 0-01 2 0-00 1 0-00 4 0-01 Dublin 2012 Division 1A 7 1-04 2 1-03 1 0-01 10 2-08 Dublin 2013 Division 1B 7 0-15 5 0-02 1 1-01 13 1-18 
24391225 1 9 Scott Dixon Chip Ganassi Racing 200 1:51:37.6411 1 139 53 2 10 Dario Franchitti Chip Ganassi Racing 200 + 1.4475 3 53 40 3 02 Graham Rahal Newman/Haas/Lanigan Racing 200 + 3.2002 5 3 35 5 5 Mario Moraes KV Racing Technology 200 + 12.7643 2 0 30 6 7 Danica Patrick Andretti Green Racing 200 + 16.1392 6 0 28 
24397880 1st 1980–1984 1st  Akbar Hashemi Rafsanjani  Ali Akbar Parvaresh  Mohammad Mousavi Khoeiniha 1st 1980–1984 2nd  Akbar Hashemi Rafsanjani  Mohammad Mousavi Khoeiniha  Habibollah Asgaroladi 1st 1980–1984 2nd  Akbar Hashemi Rafsanjani  Mohammad Mousavi Khoeiniha  Mohammad Yazdi 1st 1980–1984 4th  Akbar Hashemi Rafsanjani  Mohammad Yazdi  Mohammad Mousavi Khoeiniha 2nd 1984–1988 2nd  Akbar Hashemi Rafsanjani  Mohammad Yazdi  Mehdi Karroubi 
24410195 2 File:Simonyi-Semadam in 1920.jpg Sándor Simonyi-Semadam
(1864–1946)
acting 15 March 1920 19 April 1920 KNEP Simonyi-Semadam
KNEP–OKGFP 17 (1920) 3 File:Dömötör Mihály.jpg Mihály Dömötör
(1875–1962) 19 April 1920 19 July 1920 KNEP Simonyi-Semadam
KNEP–OKGFP 17 (1920) 6 File:Ráday VII Gedeon 1920.jpg Gedeon Ráday
(1872–1937) 14 April 1921 3 December 1921 KNEP Bethlen
(KNEP–OKGFP)→EP 17 (1920) 7 File:KlebelsbergKuno1900s.jpg Kunó Klebelsberg
(1875–1932) 3 December 1921 2 February 1922 KNEP Bethlen
(KNEP–OKGFP)→EP 17 (1920) (10) File:Keresztes-FischerFerenc.jpg Ferenc Keresztes-Fischer
(1881–1948)
2nd term 16 February 1939 3 April 1941 MÉP Teleki II
MÉP 21 (1935) 
24424950 2012–2016 Strictly Come Dancing: It Takes Two Panellist BBC Two 3 episodes 2012–2019 Have I Got News for You Guest panellist BBC One Numerous episodes 2013 The Big Fat Quiz of the Year Himself Channel 4 TV special 2013–2017 8 Out of 10 Cats Does Countdown Contestant Channel 4 5 episodes 2013 QI Guest BBC Two 4 episodes 
24438420 1 10 Dario Franchitti Chip Ganassi Racing 200 1:28:28.3117 1 25 51 2 6 Ryan Briscoe Penske Racing 200 + 4.7888 3 103 42 3 9 Scott Dixon Chip Ganassi Racing 200 + 6.0206 2 70 35 4 11 Tony Kanaan Andretti Green Racing 199 + 1 Lap 15 0 32 6 27 Hideki Mutoh Andretti Green Racing 198 + 2 Laps 19 0 28 
24448734 2017 ESPN Bob Wischusen Fran Fraschilla 2016 ESPN Mike Tirico Dan Dakich 2015 ESPN Bob Wischusen Jim Calhoun 2014 ESPN Bob Wischusen Malcolm Huckaby 2013 ESPN Bob Wischusen Stephen Bardo 
24453206 1972 Ben Vereen Jesus Christ Superstar {{nom}}  1973 Gilbert Price Lost in the Stars {{nom}}  1975 Ted Ross The Wiz {{won}}  1975 Gilbert Price The Night That Made America Famous {{nom}}  1981 Hinton Battle Sophisticated Ladies {{won}}  
2451654 1896 Athens {{FlagIOCathlete|[[Sumner Paine]]|USA|1896 Summer}} Smith & Wesson New Model 3 Revolver 1908 Vienna {{Flagathlete|[[Richard Fischer]]|GER|empire}} Büchel Stecherspanner {{Flag|Italy|1861}} Alfred Lane at the 1912 Olympics Alfred Lane at the 1912 Olympics 1908 London {{FlagIOCathlete|[[Paul Van Asbroeck]]|BEL|1908 Summer}} Sauveur HS-6 {{FlagIOC|USA|1908 Summer}} Alfred Lane at the 1912 Olympics Alfred Lane at the 1912 Olympics 1912 Stockholm {{FlagIOCathlete|[[Alfred Lane]]|USA|1912 Summer}} Smith & Wesson Perfected Model Third Model {{FlagIOC|USA|1912 Summer}} 1920 Antwerp {{FlagIOCathlete|[[Karl Frederick]]|USA|1920 Summer}} Smith & Wesson Perfected Third Model {{FlagIOC|USA|1920 Summer}} Aleksandr Melentiev, the 1980 Olympic Champion and Current Olympic record holder Aleksandr Melentiev, the 1980 Olympic Champion and Current Olympic record holder 
2452540 1948 West Frankfort Cardinals 3–0 Mattoon Indians 1949 Paducah Chiefs 4–3 Mattoon Indians 1952 Decatur Commodores 3–1 Hannibal Stags 1953 Decatur Commodores 3–2 Paris Lakers 1955 Dubuque Packers 3–0 Mattoon Phillies 
24551898 1 41 Noriyuki Haga Ducati 1098R 21 38:32.199 4 25 2 3 Max Biaggi Aprilia RSV4 21 +2.074 6 20 4 19 Ben Spies Yamaha YZF-R1 21 +5.438 2 13 7 65 Jonathan Rea Honda CBR1000RR 21 +26.822 3 9 9 66 Tom Sykes Yamaha YZF-R1 21 +33.817 16 7 
24572232 Speaker of the Dead {{dts|February 15, 2011|format=mdy}} Emmure Engineer, mastering, mixing, producer The End of the World Party {{dts|February 22, 2011|format=mdy}} I See Stars Mastering Reckless & Relentless {{dts|April 5, 2011|format=mdy}} Asking Alexandria Engineer, mastering, mixing, producer Digital Renegade {{dts|March 13, 2012|format=mdy}} I See Stars Engineer, mastering, mixing, producer Slave to the Game {{dts|April 10, 2012|format=mdy}} Emmure Engineer, mastering, mixing, producer 
24573097 1992 Kashima Antlers J1 League - - 3 1 9 7 - - 12 8 1993 Kashima Antlers J1 League 30 9 5 4 5 3 - - 40 16 1994 Kashima Antlers J1 League 43 21 1 0 0 0 - - 44 21 1995 Kashima Antlers J1 League 42 16 4 2 - - - - 46 18 1996 Kashima Antlers J1 League 25 12 3 0 11 0 - - 39 12 
2457313 2nd 1909 - 1913  James Holden Liberal 3rd 1913 - 1917  Joseph McCallum Liberal 4th 1917 - 1921  Joseph McCallum Liberal 5th 1921 - 1926  Archie Matheson United Farmers 6th 1926 - 1930  Archie Matheson United Farmers 
2457321 1st 1905–1909  John Moore Liberal 2nd 1910–1913  Edward Michener Conservative 3rd 1913–1917  Edward Michener Conservative 4th 1917–1918  Edward Michener Conservative 4th 1918–1921  John Gaetz Liberal 
2462893 2002–03 Philadelphia Phantoms AHL  40 14 21 2 — 2283 98 0 2.58 .903  — — — — — — 2003–04 Philadelphia Flyers NHL  3 3 0 0 — 180 3 0 1.00 .961  — — — — — — 2003–04 Philadelphia Phantoms AHL  49 24 13 6 — 2728 92 7 2.02 .924  12 6 6 796 24 0 2004–05 Philadelphia Phantoms AHL  58 33 21 4 — 3453 119 6 2.07 .924  21 15 5 1269 37 3 2005–06 Philadelphia Flyers NHL  46 23 15 — 6 2690 133 2 2.97 .895  2 0 0 72 5 0 
24641577 2 10 September 1910 Worcester City A 1–4 2,000 Peart 3 17 September 1910 Birmingham Reserves A 3–2 2,000 Peart (2), Baddeley 4 24 September 1910 West Bromwich Albion Reserves H 2–0 5,000 Peart (2) 8 22 October 1910 Stourbridge A 1–2 3,000 Thornton 12 26 November 1910 Wolverhampton Wanderers Reserves H 6–1 5,000 Peart (3), A Smith (2), Turner 
24673645 APIA Tigers Leichhardt Oval 20,000 Bankstown City Lions FC Jensen Oval 5,000 Blacktown City Demons FC Lily Homes Stadium 7,500 Bonnyrigg White Eagles FC Bonnyrigg Sports Club 5,000 Manly United FC Cromer Park 5,000 
2470228 2006 27 Jan 2006 Cortina d'Ampezzo, Italy Super-G 2nd 2006 4 Feb 2006 Ofterschwang, Germany Giant slalom 3rd 2007 14 Jan 2007 Altenmarkt, Austria Super combined 1st 2007 19 Jan 2007 Cortina d'Ampezzo, Italy Super-G 1st 2007 21 Jan 2007 Cortina d'Ampezzo, Italy Giant slalom 2nd 
24718258 3 {{flagicon|AUS}} Michael Dighton 24 April 1976 Toowoomba, Queensland RH Bat W/K 27 {{flagicon|AUS}} Ed Cowan 16 June 1982 Sydney, New South Wales LH Bat LH LS 14 {{flagicon|AUS}} Ricky Ponting 19 December 1974 Launceston, Tasmania RH Bat RH M 4 {{flagicon|AUS}} Daniel Marsh 14 June 1973 Subiaco, Western Australia RH Bat L ORTH 99 Lanka}} Lasith Malinga 28 August 1983 Galle, Sri Lanka RH Bat RH F 
24726636 Bradenton Pittsburgh Pirates (1969–present) LECOM Park 6,602 St. Louis Cardinals (1923–24)
Philadelphia Phillies (1925–27)
Boston Red Sox (1928–29)
Boston Braves/Milwaukee Braves (1928–40, 1948–61)
Kansas City/Oakland Athletics (1963–68) Clearwater Philadelphia Phillies (1947–present) Spectrum Field 8,500 Brooklyn Dodgers (1923–32, 1936–41)
Cleveland Indians (1942, 1946) Fort Myers Boston Red Sox (1992–present) Jet Blue Park 11,000 Fort Myers Minnesota Twins (1991–present) Hammond Stadium 7,500 Philadelphia Athletics (1925–36)
Cleveland Indians (1941–42)
Pittsburgh Pirates (1955–68)
Kansas City Royals (1969–87) Jupiter Florida/Miami Marlins (2002–present)
St. Louis Cardinals (1998–present) Roger Dean Stadium 6,871 Montreal Expos (1998–2001) 
24728117 1 File:Coat of Arms of Hungary (oak and olive branches).svg Lajos Für
(1930–2013) 23 May 1990 21 December 1993 MDF Antall
MDF–FKGP–KDNP 34 (1990) 1 File:Coat of Arms of Hungary (oak and olive branches).svg Lajos Für
(1930–2013) 21 December 1993 15 July 1994 MDF Boross
MDF–EKGP–KDNP 34 (1990) 2 File:Keleti György (crop).jpg György Keleti
(1946– ) 15 July 1994 8 July 1998 MSZP Horn
MSZP–SZDSZ 35 (1994) 3 File:Szabó János FKgP (crop).jpg János Szabó
(1941– ) 8 July 1998 27 May 2002 FKGP Orbán I
Fidesz–FKGP–MDF 36 (1998) 4 File:Juhász Ferenc 2005.jpg Ferenc Juhász
(1960– ) 27 May 2002 29 September 2004 MSZP Medgyessy
MSZP–SZDSZ 37 (2002) 
24767685 2005–06 Texarkana Bandits NAHL  57 23 37 60 61  — — — 2006–07 St. Louis Bandits NAHL  57 40 55 95 152  — — — 2007–08 London Knights OHL  64 35 55 90 57  5 0 1 2007–08 Philadelphia Phantoms AHL  1 0 0 0 0  — — — 2008–09 Philadelphia Phantoms AHL  80 23 31 54 62  4 1 2 
2476892 Atlantic College of Puerto Rico Private Guaynabo Carlos Albizu University Private San Juan Centro de Estudios Avanzados de Puerto Rico y el Caribe Private San Juan Conservatorio de Música de Puerto Rico Public San Juan Polytechnic University of Puerto Rico Private San Juan 
24778783 1 5 Mark Winterbottom Ford FG Falcon Ford Performance Racing 1:50.9325 1:49.2866  2 2 Garth Tander Holden VE Commodore Holden Racing Team 1:51.2265 1:49.7201  4 25 Jason Bright Ford FG Falcon Britek Motorsport 1:51.5550 1:49.7725  5 22 Will Davison Holden VE Commodore Holden Racing Team 1:51.6711 1:49.7273  6 10 Paul Dumbrell Holden VE Commodore Walkinshaw Racing 1:51.7666 1:49.7663  
24786894 3 RB {{flagicon|WAL}} Lee Beevers 8 August 2009 Norwich City Carrow Road  4 CB {{flagicon|ENG}} Magnus Okuonghae 8 August 2009 Norwich City Carrow Road  7 WG {{flagicon|ENG}} Ashley Vincent 8 August 2009 Norwich City Carrow Road {{efn|name=2deb|Second debut for the club}} 20 FW {{flagicon|JAM}} Kevin Lisbie 8 August 2009 Norwich City Carrow Road {{efn|name=2deb}} 15 FW {{flagicon|NGA}} Kayode Odejayi 19 September 2009 Hartlepool United Colchester Community Stadium  
24816592 1 13 40 Adrian Fernandez Patrick Racing 250 10 2hr 57min 17sec Running 20 2 2 7 Max Papis Team Rahal 250 112 +7.634 sec Running 17 3 9 11 Christian Fittipaldi Newman/Haas Racing 250 37 +8.843 sec Running 14 4 3 4 Juan Pablo Montoya Chip Ganassi Racing 250 13 +14.316 sec Running 12 5 4 12 Jimmy Vasser Chip Ganassi Racing 250 0 +20.706 sec Running 10 
24855539 Bopha Angkor Dy Saveth Yang Chin, Dy Saveth Action Present Existence Bong Kos Hauy Oun  Vichara Dany Drama Not yet remade Chek Deth Yvon Hem Kong Som Eun, Vichara Dany Legendary Not yet remade Dav Bak Dong Meas So Min Chiv Vann Vannak, Vichara Dany Legendary Not yet remade Kompull Boros Mok 2 Tat Somang Kong Som Eun, Vichara Dany Legendary Not yet remade 
24891011 1st 103 RA White & NJ O’Brien Glamorgan Northampton 2008  2nd 109 RA White & J Botha Derbyshire Derby 2011  3rd 107* CL White & AG Wakely Surrey Birmingham 2013  4th 123 BM Duckett & AG Wakely Nottinghamshire Birmingham 2016  5th 110* RA White & N Boje Gloucestershire Milton Keynes 2008  
24923009 1 1966 Paris {{FRA}}   2 1967 London {{UK}}   3 1968 Paris {{FRA}}   4 1969 London {{UK}}   5 1970 Hamburg {{GER}}   
24940969 Battle of Hjörungavágr
(986) Norway Jomsvikings Victory
Danish fleet defeated Battle of Maldon
(991) Norway Anglo-Saxons Victory
First English payment of Danegeld Invasions of Denmark
(1048–1064) Norway Denmark Stalemate
Peace agreement, mutual recognition and withdrawal Battle of Fulford
(1066) Norway England Victory
Norwegians gain Fulford and later York Battle of Stamford Bridge
(1066) Norway England Defeat
Death of King Harald Hardrada 
24998088 2008 ADAC Formel Masters Team Abt Sportsline 16 0 1 1 3 91 8th 2009 ADAC Formel Masters Team Abt Sportsline 16 8 7 3 10 224 1st 2009 German Formula 3 Championship Performance Racing 2 0 0 0 0 0 NC 2010 German Formula 3 Championship Van Amersfoort Racing 18 2 6 5 10 112 2nd 2010 Macau Grand Prix Signature 1 0 0 0 0 0 NC 
25002156 June 6, 1802 December 6, 1808 Theodore Foster Pro-Administration/
Federalist/
Democratic-Republican Rhode Island June 7, 1790 - March 3, 1803 4651 dd December 6, 1808 December 25, 1811 James Hillhouse Federalist Connecticut March 12, 1796 - June 10, 1810 5202 dd December 25, 1811 May 12, 1822 Joseph Anderson Democratic-Republican Tennessee September 26, 1797 - March 3, 1815 6366 dd May 12, 1822 March 5, 1841 John Gaillard Democratic-Republican South Carolina December 6, 1804 - February 26, 1826 7752 dd March 5, 1841 December 11, 1845 William R. King Democratic-Republican/
Democratic Alabama December 14, 1819 - April 15, 1844 8889 dd 
25012770 2 7 Max Papis Team Rahal 31.483 228.695 +0.153 4 26 Paul Tracy Team Green 31.609 227.783 +0.279 5 55 Tony Kanaan Mo Nunn Racing 31.626 227.661 +0.296 7 77 Bryan Herta Forsythe Racing 31.726 226.943 +0.396 9 11 Christian Fittipaldi Newman/Haas Racing 31.766 226.657 +0.436 
2506023 1982–83 Silver Lake Regional High School HS-MA &nbsp; 18 24 27 51 — &nbsp; — — — 1987–88 Pittsburgh Penguins NHL &nbsp; 16 5 2 7 8 &nbsp; — — — 1988–89 Pittsburgh Penguins NHL &nbsp; 24 12 3 15 19 &nbsp; 11 3 7 1989–90 Pittsburgh Penguins NHL &nbsp; 76 29 41 70 171 &nbsp; — — — 1990–91 Pittsburgh Penguins NHL &nbsp; 80 40 46 86 133 &nbsp; 24 17 16 
25084550 Two Anthony Calvillo Joe Lobendahn Rene Paredes Jerome Messam Three Brandon Whitaker Chip Cox Justin Medlock Jermaine Reid Four Buck Pierce Greg Peach Damon Duval Cory Watson Six Anthony Calvillo Solomon Elimimian Larry Taylor Jerome Messam Ten Travis Lulay Jerrell Freeman Chad Owens Akeem Foster 
2512878 2005 NE 2 0 13 24 183 2 1 89.4 6 12 2.0 0 2 0 2006 NE 6 0 5 8 32 0 0 70.8 2 4 2.0 0 1 1 2007 NE 6 0 4 7 38 0 1 32.7 4 12 3.0 1 1 0 2008 NE 16 15 327 516 3,693 21 11 89.4 73 270 3.7 2 7 4 2009 KC 15 15 271 493 2,924 16 16 69.9 50 189 3.8 0 14 3 
25137900 2000 Jennifer Lopez  2000 Aaliyah  2000 Janet Jackson  2000 Sisqo  2001 Craig David  
25145334 Abilene Christian Lone Star Conference 8&ndash;3 Albany State Southern Intercollegiate Athletic Conference 8&ndash;2 Arkansas Tech Gulf South Conference 8&ndash;2 California (PA) Pennsylvania State Athletic Conference 8&ndash;3 Carson-Newman South Atlantic Conference 9&ndash;2 
251561 1921 304,719 (7th) 4.6 {{Composition bar|15|535|hex={{Italian Communist Party/meta/color}}}} – Amedeo Bordiga 1924 268,191 (5th) 3.7 {{Composition bar|19|535|hex={{Italian Communist Party/meta/color}}}} {{increase}}4 Antonio Gramsci 1929 Banned – {{Composition bar|0|535|hex={{Italian Communist Party/meta/color}}}} {{decrease}} 19 Palmiro Togliatti 1934 Banned – {{Composition bar|0|535|hex={{Italian Communist Party/meta/color}}}} – Palmiro Togliatti 1946 4,356,686 (3rd) 18.9 {{Composition bar|104|556|hex={{Italian Communist Party/meta/color}}}} {{increase}} 104 Palmiro Togliatti 
2518539 2007 BUF 13 13 280 1,115 4.0 56T 7 18 184 10.2 30 0 2 1 2008 BUF 15 15 250 1,036 4.1 50 8 47 300 6.4 42 1 2 1 2009 BUF 13 6 120 450 3.8 47 2 28 179 6.4 35 0 3 1 2010 BUF 4 3 37 164 4.4 17 0 1 7 7.0 7 0 1 1 2010 SEA 12 11 165 573 3.5 39 6 21 138 6.6 22 0 3 3 
25200461 Alum Rock CDP 11,814 60.5% 25.7% 11.3% 2.0% 0.5% 73.0% Burbank CDP 5,827 67.3% 19.2% 11.6% 1.5% 0.3% 48.5% Cambrian Park CDP 3,581 78.6% 9.0% 3.9% 0.3% 8.2% 16.8% Campbell City 39,108 68.7% 12.0% 16.9% 1.4% 0.9% 16.8% Cupertino City 57,459 34.6% 3.9% 60.7% 0.4% 0.4% 4.3% 
25208616 2 39 Michael Andretti Team Green 24.928 213.591 +0.020 3 6 Cristiano da Matta Newman/Haas Racing 24.954 213.369 +0.046 5 27 Dario Franchitti Team Green 25.001 212.967 +0.093 6 3 Bruno Junqueira Chip Ganassi Racing 25.003 212.950 +0.095 7 26 Paul Tracy Team Green 25.034 212.687 +0.126 
25234703 Aberdare 63 mins Transport for Wales Rhymney 60 mins Transport for Wales Barry 24 mins Transport for Wales Ebbw Vale 56 mins Transport for Wales Maesteg 54 mins Transport for Wales 
252385 File:BYoung.jpg &nbsp; Brigham Young February 3, 1851 April 12, 1858 Millard Fillmore  File:BYoung.jpg &nbsp; Brigham Young February 3, 1851 April 12, 1858 Franklin Pierce  File:John W Dawson.jpg &nbsp; John W. Dawson December 7, 1861 December 31, 1861 Abraham Lincoln {{refn|Resigned after three weeks in office; combative feelings existed between the governor and the state's Mormon population.|group=note}} File:Stephen Selwyn Harding.jpg &nbsp; Stephen S. Harding July 7, 1862 June 11, 1863 Abraham Lincoln  File:James Duane Doty.jpg &nbsp; James Duane Doty June 22, 1863 June 13, 1865 Abraham Lincoln  
252629 1967 John Surtees Honda Italian Grand Prix Monza Report 1963 Graham Hill BRM Monaco Grand Prix Monaco Report 1962 Graham Hill BRM Dutch Grand Prix Zandvoort Report 1956 Stirling Moss Maserati Italian Grand Prix Monza Full Circuit Report 1955 Maurice Trintignant Ferrari Monaco Grand Prix Monaco Report 
25297399 Language English 48.6% Language Mandarin 8.8% Language Korean 8.4% Language Cantonese 5.9% Language Persian 4.0% 
25312769 FC Luch Tula 0–4 FC MChS-Selyatino Selyatino FC Torgmash Lyubertsy 2–1 FC Fabus Bronnitsy FC Kosmos Dolgoprudny 6–0 FC Krasnogvardeyets Moscow FC Titan Reutov 1–1; 1–4 in shootout FC Spartak Shchyolkovo FC Olimp Kislovodsk 1–3 a.e.t. FC Druzhba Maykop 
25362929 2010 Fed Cup World Group II Tallinn Hard (i) Estonia Kaia Kanepi 1–6, 5–7 1–4 2010 Fed Cup World Group II Tallinn Hard (i) Estonia Maret Ani 2–6, 3–6 1–4 2010 Fed Cup World Group II Play-offs Montreal Carpet (i) Canada Aleksandra Wozniak 4–6, 2–6 0–5 2012 Fed Cup Americas Zone Curitiba Clay Canada Aleksandra Wozniak 7–5, 6–4 3–0 2013 Fed Cup World Group II Buenos Aires Clay Sweden Johanna Larsson 6–3, 6–0 2–3 
2542912 1996–97 Khimik Voskresensk RSL  43 8 4 12 32  2 1 1 1997–98 Khimik Voskresensk RSL  43 10 5 15 83  &nbsp;— &nbsp;— &nbsp;— 1998–99 Dynamo Moscow RSL  38 10 11 21 32  16 3 6 1999–00 Dynamo Moscow RSL  29 11 12 23 28  17 4 3 2000–01 Quebec Citadelles AHL  14 0 5 5 4  7 1 1 
254414 1 A Dan Fabian Republican Roseau 2010 1 B Deb Kiel Republican Crookston 2010 2 A Matt Grossell Republican Clearbrook 2016 4 A Ben Lien DFL Moorhead 2012 4 B Paul Marquart DFL Dilworth 2000 
25449430 1989–90 Torpedo Ust-Kamenogorsk USSR  28 6 8 14 16  — — — 1990–91 Torpedo Ust-Kamenogorsk USSR  40 16 6 22 32  — — — 1995–96 Fort Wayne Komets IHL  74 46 28 74 26  5 1 2 1996–97 St. Louis Blues NHL  5 2 1 3 0  — — — 1996–97 Worcester IceCats AHL  62 23 25 48 16  5 0 2 
25467256 1 2 Garth Tander Holden Racing Team Holden VE Commodore 1:29.5840 3 18 James Courtney Dick Johnson Racing Ford FG Falcon 1:29.7457 4 33 Lee Holdsworth Garry Rogers Motorsport Holden VE Commodore 1:29.7802 5 10 Paul Dumbrell Walkinshaw Racing Holden VE Commodore 1:29.7807 6 5 Mark Winterbottom Ford Performance Racing Ford FG Falcon 1:29.8795 
25511683 AV-021 February 11, 2010,
15:23 Atlas V 401 CCAFS SLC-41 SDO 290 kg GTO NASA {{Success}} AV-030 February 24, 2012,
22:15 Atlas V 551 CCAFS SLC-41 MUOS-1 6,740 kg GTO DoD {{Success}} AV-032 August 30, 2012,
08:05 Atlas V 401 CCAFS SLC-41 Van Allen Probes 3000 kg Highly elliptical NASA {{Success}} AV-040 July 19, 2013,
13:00 Atlas V 551 CCAFS SLC-41 MUOS-2 6,740 kg GTO DoD {{Success}} AV-038 November 18, 2013,
18:28 Atlas V 401 CCAFS SLC-41 MAVEN 2,454 kg Heliocentric NASA {{Success}} 
25537075 3 İsmail Köybaşı {{flagicon|Turkey}} LB {{birth date and age|1989|7|10}} Gaziantepspor  19 İbrahim Üzülmez (c) {{flagicon|Turkey}} LB {{birth date and age|1974|3|10}} Gaziantepspor  44 Erhan Güven {{flagicon|Turkey}} RB {{birth date and age|1982|5|15}} Ankaraspor  5 Michael Fink {{flagicon|Germany}} DM {{birth date and age|1982|2|1}} Eintracht Frankfurt  10 Matías Delgado {{flagicon|Argentina}}{{flagicon|Italy}} AM {{birth date and age|1983|12|15}} Basel  
25538763 2008 Formula BMW Europe EuroInternational 16 2 4 1 5 237 4th 2008 Formula BMW Americas Euro Junior Team 6 1 0 0 3 54 NC† 2009 Formula BMW Europe EuroInternational 16 1 0 0 7 288 2nd 2010 Formula 3 Euro Series Prema Powerteam 18 1 1 4 3 35 8th 2010 GP3 Series Tech 1 Racing 10 0 0 0 1 10 14th 
25547747 581 ISN 581 PAK Abdur Sayed Rahaman 2002-06-16 2005-03-11 NLEC 730 ISN 730 MAL Ibrahim Fauzee 2002-08-05 2005-03-11 NLEC 298 ISN 298 TUR Salih Uyar 2002-02-15 2005-04-18 NLEC 459 ISN 459 AFG Gul Zaman 2003-02-07 2005-04-18 NLEC 561 ISN 561 AFG Abdul Rahim Muslimdost 2002-05-01 2005-04-18 NLEC 
25618232 LB Ashlee Palmer UFA Buffalo Bills February 18 WR Nate Burleson UFA Seattle Seahawks March 5 DE Kyle Vanden Bosch UFA Tennessee Titans March 5 CB Jonathan Wade UFA St. Louis Rams March 8 QB Shaun Hill RFA San Francisco 49ers March 14 
25655037 Art Attack 2001-2005 Children Jordi Cruz Club Disney 1998-2000 Children Jordi Cruz El comisario 1999-2009 Drama series Tito Valverde Dama velada, La 2015 Drama series Miriam Leone De buena Ley 2009–2014 Court show Sandra Barneda 
25662203 1988–89 Dinamo Minsk USSR &nbsp; 2 0 0 0 0 &nbsp; — — — 1989–90 Dinamo Minsk USSR &nbsp; 20 1 0 1 6 &nbsp; — — — 1990–91 Dinamo Minsk USSR &nbsp; 27 5 0 5 18 &nbsp; — — — 1992–93 Tivali Minsk BLR &nbsp; 2 1 0 1 4 &nbsp; — — — 1993–94 Tivali Minsk BLR &nbsp; 16 6 3 9 12 &nbsp; — — — 
25663745 2000 Sex and the City "La Douleur Exquise!" Patricia Field, Molly Rogers, Rebecca Weinberg HBO 2000 The Sopranos "Commendatori" Gail A. Fitzgibbons, Kevin P. Faherty, Juliet Polcsa, Lauren Press, Kim Wilcox HBO 2000 Star Trek: Voyager "Muse" Robert Blackman, Carol Kunz UPN 2000 The West Wing "The State Dinner" Alice Daniels, Lyn Paolo NBC 2001 Sex and the City "Sex and Another City" Kevin Draves, Patricia Field, Molly Rogers, Rebecca Weinberg HBO 
2567121 2015 Kris TV Guest co-host ABS-CBN 2015 3-in-1 Host ABS-CBN 2014 Tunay na Buhay Herself GMA Network 2013 Wansapanataym: Ang Batang Buhawi Maring ABS-CBN 2011 Entertainment Live Herself / Host ABS-CBN 
25728241 14–17 Apr Portuguese Open Portugal {{flagicon|ESP|1945}} Salvador Balbuena (1)  6–9 May French Open France {{flagicon|ZAF|1928}} Vincent Tshabalala (1)  12–15 May Piccadilly Medal England {{flagicon|SCO}} Sam Torrance (1)  28–31 May Penfold PGA Championship England {{flagicon|ENG}} Neil Coles (5)  4–7 Jun Kerrygold International Classic Republic of Ireland {{flagicon|ENG}} Tony Jacklin (5)  
25730178 6–9 Apr Portuguese Open Portugal {{flagicon|ESP|1977}} Manuel Ramos (1)  5–8 May French Open France {{flagicon|ESP|1977}} Seve Ballesteros (2)  11–14 May Benson and Hedges International Open England {{flagicon|ESP|1977}} Antonio Garrido (3)  18–21 May Sun Alliance Match Play Championship England {{flagicon|ZAF|1928}} Hugh Baiocchi (4)  25–28 May Penfold PGA Championship England {{flagicon|ESP|1977}} Manuel Piñero (3)  
25740467 2013 An Rinn Gaoth Dobhair An Rinn 2011 Cloich Cheann Fhaola Cloich Cheann Fhaola Maigh Cuilinn 2007 Beal Átha an Ghaorthaigh Gaoth Dobhair Tuar Mhic Éadaigh 2005 Cill Na Martra Naomh Abán Gaoth Dobhair 2003 Baile Bhúirne Naomh Abán An Cheathrú Rua 
25745906 1 Renault Captur 84,085 164,801 194,847 215,493 211,321 {{decrease}} –1.9% 2 Peugeot 2008 58,672 135,541 154,325 175,079 179,529 {{increase}} +2.5% 4 Dacia Duster 88,082 127,772 125,416 139,826 145,682 {{increase}} +4.2% 5 Nissan Juke 106,411 97,538 102,574 98,108 91,774 {{decrease}} –6.5% 6 Fiat 500X — 135 74,262 104,931 90,049 {{decrease}} –14.2% 
2574656 2005 Battle Creek Knights 124-121 Dayton Jets 2006 Elkhart Express 119-108 (OT) Columbus Cyclones 2007 Elkhart Express 113-109 Portland Chinooks 2008 Bellingham Slam 118-111 Elkhart Express 2009 Los Angeles Lightning 2-1 (best-of 3) Oregon Waves 
25751998 1984   Cho Young-Jeung  1  1986 Kim Hyeon-Tae Cho Young-Jeung Cho Min-Kook  3  1988   Choi Jin-Han  1  1995   Kim Pan-Keun  1  2000 Shin Eui-Son  Andre Choi Yong-Soo 3  
25767392 1007 Max Webster High Class in Borrowed Shoes 1977  1008 A Foot in Coldwater Breaking Through 1977  1012 Max Webster Mutiny Up My Sleeve 1978  1018 Max Webster A Million Vacations 1979  1019 Max Webster Live Magnetic Air 1979  
25793608 Cerezo Osaka 2009 J2 League 3 0 0 0 – – – – – – Cerezo Osaka 2010 J1 League 2 0 0 0 2 0 – – – – Cerezo Osaka 2011 J1 League 17 1 4 0 0 0 2 0 – – Cerezo Osaka 2012 J1 League 30 2 4 2 6 0 – – – – Cerezo Osaka 2013 J1 League 34 6 0 0 8 1 – – – – 
25794183 Antigua and Barbuda Bassa 2009–10 Antigua and Barbuda Premier Division champion Cayman Islands Bodden Town 2009–10 CIFA National League runner-up Dominica Bath Estate 2009–10 Dominica Championship champion Guyana Alpha United 2010 GFF National Super League champion Guyana Milerock 2010 GFF National Super League runner-up 
25827996 2 3 {{flagathlete|[[Francisco López Contardo|F. López]]|CHI}} Aprilia 3h 23' 17" + 04' 06" 3 {{flagathlete|R. Faria|POR}} KTM 5h 23' 55" + 06' 13" 3 3 {{flagathlete|[[Paulo Gonçalves|P. Gonçalves]]|POR}} BMW 4h 22' 31" + 03' 36" 3 {{flagathlete|R. Faria|POR}} KTM 9h 48' 36" + 09' 38" 4 2 {{flagathlete|F. López |CHI}} Aprilia 2h 06' 05" + 02' 05" 2 {{flagathlete|C. Despres|FRA}} KTM 11h 53' 14" + 10' 02" 4 3 {{flagathlete|[[Olivier Pain|O. Pain]]|FRA}} Yamaha 2h 10' 20" + 06' 20" 3 {{flagathlete|F. López|CHI}} Aprilia 12h 03' 24" + 20' 12" 5 1 {{flagathlete|P. Gonçalves|POR}} BMW 5h 12' 23" + 00' 00" 1 {{flagathlete|M. Coma|ESP}} KTM 16h 59' 33" + 00' 00" 
25840474 12–15 Apr Tunisian Open Tunisia {{flagicon|SCO}} Sam Torrance (8)  26–29 Apr Cepsa Madrid Open Spain {{flagicon|ENG}} Howard Clark (3)  10–13 May Car Care Plan International England {{flagicon|ENG}} Nick Faldo (11)  17–20 May Peugeot Open de France France {{flagicon|FRG}} Bernhard Langer (8)  25–28 May Whyte & Mackay PGA Championship England {{flagicon|ENG}} Howard Clark (4)  
25865596 1992 Verdy Kawasaki J1 League - - 0 0 0 0 0 0 1993 Verdy Kawasaki J1 League 34 2 2 0 7 0 43 2 1994 Verdy Kawasaki J1 League 21 0 1 0 1 0 23 0 1995 Verdy Kawasaki J1 League 42 0 2 1 - - 44 1 1996 Verdy Kawasaki J1 League 27 1 4 0 16 0 47 1 
25926339 18 Ashlyn Harris North Carolina Tar Heels {{birth date and age2|df=yes|2002|8|17|1985|10|19}} 0 0 0 0 0 2 Rachel Buehler Stanford Cardinal {{birth date and age2|df=yes|2002|8|17|1985|8|26}} 0 0 0 0 0 6 Amy Steadman North Carolina Tar Heels {{birth date and age2|df=yes|2002|8|17|1984|9|8}} 0 0 0 0 0 8 Kendall Fletcher North Carolina Tar Heels {{birth date and age2|df=yes|2002|8|17|1984|11|6}} 0 0 0 0 0 10 Leslie Osborne Santa Clara Broncos {{birth date and age2|df=yes|2002|8|17|1983|5|27}} 0 0 0 0 0 
2598766 Winner 1. 13 November 1983 Taipei Carpet (i) Kim Warwick {{flagicon|AUS}} Ken Flach
{{flagicon|USA}} Robert Seguso 7–6, 6–4 Winner 7. 27 November 1988 Brussels Indoor Carpet (i) Tom Nijssen {{flagicon|AUS}} John Fitzgerald
{{flagicon|TCH}} Tomáš Šmíd 7–5, 7–6 Winner 8. 15 January 1989 Sydney Hardcourt Darren Cahill {{flagicon|RSA|1928}} Pieter Aldrich
{{flagicon|RSA|1928}} Danie Visser 6–4 6–3 Winner 9. 6 August 1989 Stratton Mountain Hardcourt Mark Kratzmann {{flagicon|RSA|1928}} Pieter Aldrich
{{flagicon|RSA|1928}} Danie Visser 6–3, 4–6, 7–6 Winner 10. 15 April 1990 Tokyo Hardcourt Mark Kratzmann {{flagicon|USA}} Kent Kinnear
{{flagicon|USA}} Brad Pearce 6–4, 6–3 
25988292 Round 1
Gangwon bye 22 May Chunnam Dragons 2 – 3 Suwon Samsung Bluewings 9,575 Round 1
Gangwon bye 22 May Jeonbuk Hyundai Motors 2 – 1 Gyeongnam FC 4,491 Round 2
Suwon bye 26 May Gyeongnam FC 1 – 0 Chunnam Dragons 5,816 Round 2
Suwon bye 26 May Gangwon FC 1 – 4 Jeonbuk Hyundai Motors 5,112 Round 3
Gyeongnam bye 29 May Suwon Samsung Bluewings 2 – 0 Gangwon FC 18,277 
26034356 16 May 1966 The Beach Boys Pet Sounds US 10 October 1966 The Beach Boys Good Vibrations US January 1967 Miles Davis Miles Smiles US February 1967 Jefferson Airplane Surrealistic Pillow US 6 February 1967 The Byrds Younger Than Yesterday US 
2606897 1920 Terrorism 38  Wall Street bombing Manhattan, New York  1883 Tornado 37 $700,000 (1883) 1883 Rochester tornado Rochester, Minnesota F5 tornado killed 37 and injured hundreds more. It led to the creation of the Mayo Clinic. 1887 Structural failure 30  Forest Hills disaster Boston, Massachusetts  1997 Tornado 27  Jarrell tornado Jarrell, Texas  2017 Mass shooting 27  Sutherland Springs church shooting Sutherland Springs, Texas 26 murdered, gunman committed suicide 
26112717 1978 AA Niskayuna 2 Jamesville-DeWitt 3 75 55  1978 C Pierson (Sag Harbor) 11 Alexander Hamilton (Elmsford) 1 71 68 1 1979 AA Lackawanna 6 Scarsdale 1 57 55 3 1980 A Ward Melville (East Setauket) 11 Union-Endicott 4 56 51  1980 B Bellport 11 Rush-Henrietta Roth 5 63 61  
26144632 18 Apr Token Homemate Cup Mie 130,000,000 {{flagicon|JPN}} Koumei Oda (4) 18 2 May The Crowns Aichi 120,000,000 {{flagicon|JPN}} Ryo Ishikawa (7) 20 16 May Japan PGA Championship Nissin Cupnoodle Cup Nagasaki 140,000,000 {{flagicon|JPN}} Toru Taniguchi (16) 20 30 May Diamond Cup Golf Saitama 120,000,000 {{flagicon|KOR}} Kim Kyung-tae (1) 20 6 Jun Japan Golf Tour Championship Citibank Cup Shishido Hills Ibaraki 120,000,000 {{flagicon|JPN}} Katsumasa Miyamoto (8) 22 
26166836 Houston Marathon Marathon Houston {{flag|United States}} {{sort|01|January}} Kagawa Marugame Half Marathon Half marathon Marugame {{flag|Japan}} {{sort|02|February}} New Taipei City Wan Jin Shi Marathon Marathon New Taipei City {{flag|Taiwan}} {{sort|03|March}} Daegu Marathon Marathon Daegu {{flag|South Korea}} {{sort|04|April}} Milano Marathon Marathon Milano {{flag|Italy}} {{sort|04|April}} 
26202788 427 Doha 1/3 250 Outdoor Hard R32 David Ferrer W 6–1, 6–1 428 Doha 1/3 250 Outdoor Hard R16 Greg Rusedski W 6–3, 6–4 429 Doha 1/3 250 Outdoor Hard Q Feliciano Lopez W 6–1, 6–2 430 Doha 1/3 250 Outdoor Hard S Nikolay Davydenko W 6–3, 6–4 438 Rotterdam 2/14 500 Indoor Hard R32 Bohdan Ulihrach W 6–3, 6–4 
26214564 1 Gstaad Switzerland 7/6/1998 WC 250 Outdoor Clay R32 Lucas Arnold Ker L 4–6, 4–6 2 Toulouse France 9/28/1998 QF 250 Indoor Hard R32 Guillaume Raoux W 6–2, 6–2 3 Toulouse France 9/28/1998 QF 250 Indoor Hard R16 Richard Fromberg W 6–1, 7–6(7–5) 4 Toulouse France 9/28/1998 QF 250 Indoor Hard Q Jan Siemerink L 6–7(5–7), 2–6 5 Basel Switzerland 10/5/1998 WC 250 Indoor Hard R32 Andre Agassi L 3–6, 2–6 
26233368 3 Tanni Grey-Thompson Athletics 1988 – 2000 F 11 4 1 16 5 Lee Pearson Equestrian 2000 - 2016 M 11 2 1 14 8 Robin Surgeoner Swimming 1984 - 1988 M 9 0 0 9 10 Sophie Christiansen Equestrian 2004 - 2016 F 8 1 1 10 14 Darren Kenny Cycling 2004 - 2012 M 6 3 1 10 
26249437 22 G {{Sortname|Benoit|St-Armand}} {{Convert|5|ft|10|in|cm|abbr=on}} {{Convert|165|lb|kg|abbr=on}} {{Dts|format=dmy|1978|4|19}} St-Hubert, QC Team Canada 57 G {{Sortname|Paul|Rosen}} {{Convert|6|ft|0|in|cm|abbr=on}} {{Convert|205|lb|kg|abbr=on}} {{Dts|format=dmy|1960|4|26}} Thornhill, ON Team Canada 11 D {{Sortname|Adam|Dixon}} {{Convert|5|ft|9|in|cm|abbr=on}} {{Convert|168|lb|kg|abbr=on}} {{Dts|format=dmy|1989|9|13}} Midland, ON Team Canada 17 D {{Sortname|Jean|Labonté}} {{Convert|5|ft|11|in|cm|abbr=on}} {{Convert|205|lb|kg|abbr=on}} {{Dts|format=dmy|1969|3|20}} Hull, QC Team Canada 21 D {{Sortname|Raymond|Grassi}} {{Convert|6|ft|3|in|cm|abbr=on}} {{Convert|260|lb|kg|abbr=on}} {{Dts|format=dmy|1983|2|11}} Windsor, ON Team Canada 
26251047 2 9 Shane van Gisbergen Stone Brothers Racing Ford FG Falcon 1:58.405 4 5 Mark Winterbottom Ford Performance Racing Ford FG Falcon 1:58.521 5 22 Will Davison Holden Racing Team Holden VE Commodore 1:58.709 6 18 James Courtney Dick Johnson Racing Ford FG Falcon 1:58.897 7 4 Alex Davison Stone Brothers Racing Ford FG Falcon 1:58.979 
262534 Ave Maria University Ave Maria, Florida 2003 1,080 Gyrenes 2017 Football Sun Conference Bluefield College Bluefield, Virginia 1922 793 Rams 2014–15 Football Appalachian Cincinnati Christian University Cincinnati, Ohio 1924 800 Eagles 2015–16 Football River States Faulkner University Montgomery, Alabama 1942 2,212 Eagles 2008–09 Football Southern States Keiser University West Palm Beach, Florida 1977 16,760 Seahawks 2018 Football & Wrestling Sun Conference 
26269721 Test 1933 16–20 November MS Dhoni Kumar Sangakkara Sardar Patel Stadium, Ahmedabad Match Drawn Test 1935 24–28 November MS Dhoni Kumar Sangakkara Green Park, Kanpur {{cr|IND}} by an inning and 144 runs Test 1937 2–6 December MS Dhoni Kumar Sangakkara Brabourne Stadium, Mumbai {{cr|IND}} by an inning and 24 runs T20l 126 9 December MS Dhoni Kumar Sangakkara Vidarbha Cricket Association Stadium, Nagpur {{cr|SRI}} by 29 runs T20l 127 12 December MS Dhoni Kumar Sangakkara Punjab Cricket Association Stadium, Mohali {{cr|IND}} by 6 wickets 
262825 1933 {{Composition bar|8|153|hex={{Labour Party (Ireland)/meta/color}}}} {{increase}}1 {{decrease}}4th 79,221 5.7% Confidence and supply (FF minority) William Norton 1937 {{Composition bar|13|138|hex={{Labour Party (Ireland)/meta/color}}}} {{increase}}5 {{increase}}3rd 135,758 10.3% Confidence and supply (FF minority) William Norton 1938 {{Composition bar|9|138|hex={{Labour Party (Ireland)/meta/color}}}} {{decrease}}4 {{steady}}3rd 128,945 10.0% Opposition (FF) William Norton 1943 {{Composition bar|17|138|hex={{Labour Party (Ireland)/meta/color}}}} {{increase}}8 {{steady}}3rd 208,812 15.7% Opposition (FF minority) William Norton 1944 {{Composition bar|8|138|hex={{Labour Party (Ireland)/meta/color}}}} {{decrease}}9 {{decrease}}4th 106,767 8.8% Opposition (FF) William Norton 
26304717 2 9 Shane van Gisbergen Ford FG Falcon Stone Brothers Racing 2:04.7601 2:05.6061 3 5 Mark Winterbottom Ford FG Falcon Ford Performance Racing 2:04.8245 2:05.8189 4 2 Garth Tander Holden VE Commodore Holden Racing Team 2:05.1780 2:05.5089 5 18 James Courtney Ford FG Falcon Dick Johnson Racing 2:05.2142 2:05.7921 6 22 Will Davison Holden VE Commodore Holden Racing Team 2:05.4901 2:06.0064 
26305111 Benowa State High School Benowa 1980 Website  Coombabah State High School Coombabah 1996 Website  Elanora State High School Elanora 1990 Website  Helensvale State High School Helensvale 1990 Website  Keebra Park State High School Southport 1973 Website  
26330317 2002-03 BEC Tero Sasana 2-2 Kashima Antlers Suphachalasai Stadium, Thailand 2002-03 BEC Tero Sasana 2-1 Shanghai Shenhua Suphachalasai Stadium, Thailand 2002-03 BEC Tero Sasana 3-1 FC Pakhtakor Tashkent Suphachalasai Stadium, Thailand 2002-03 FC Pakhtakor Tashkent 1-0 BEC Tero Sasana Pakhtakor Stadium, Uzbekistan 2002-03 Al-Ain 2-0 BEC Tero Sasana Tahnoun Bin Mohamed Stadium, UAE 
26337457 2013 K. Michelle Rebellious Soul Main Writer ("V.S.O.P.") 2013 B.o.B Underground Luxury Co-writer, Featured Vocalist ("John Doe") 2015 Mariah Carey #1 to Infinity Co-writer ("Infinity") 2015 Currensy Canal Street Confidential Co-writer ("Bottom of the Bottle") 2015 Charlie Puth Nine Track Mind Co-writer ("River") 
26358474 3 41 Noriyuki Haga Ducati 1098R 22 +0.769 10 16 4 65 Jonathan Rea Honda CBR1000RR 22 +10.201 7 13 5 3 Max Biaggi Aprilia RSV4 1000 F 22 +10.782 11 11 6 50 Sylvain Guintoli Suzuki GSX-R1000 22 +11.079 5 10 7 7 Carlos Checa Ducati 1098R 22 +11.208 4 9 
26379068 60 m 6.51 {{AthAbbr|NR|Iranian}} Hassan Taftian {{flagu|Iran}} 1 February 2018 2018 {{flagicon|IRN}} Tehran, Iran  400 m 45.88 Abdelalelah Haroun {{flagu|Qatar}} 20 February 2016 2016 {{flagicon|QAT}} Doha, Qatar  800 m 1:46.92 Musaeb Abdulrahman Balla {{flagu|Qatar}} 21 February 2016 2016 {{flagicon|QAT}} Doha, Qatar  1500 m 3:36.35 {{AthAbbr|NR|Qatari}} Mohamed Al-Garni {{flagu|Qatar}} 20 February 2016 2016 {{flagicon|QAT}} Doha, Qatar  3000 m 7:39.23 Mohamed Al-Garni {{flagu|Qatar}} 21 February 2016 2016 {{flagicon|QAT}} Doha, Qatar  
26407378 Joseph Palmer Abbott &nbsp; Protectionist Wentworth 1880–1901 James Brunker &nbsp; Free Trade East Maitland 1880–1904 John Burns &nbsp; Free Trade Hunter 1861–1869, 1872–1891 Joseph Carruthers &nbsp; Free Trade Canterbury 1887–1908 John Chanter &nbsp; Protectionist Murray 1885–1901 
26459246 30 July 1977 Toledo United States Toledo Sports Arena 31 July 1977 Wheeling United States Wheeling Civic Center 1 August 1977 Hampton United States Hampton Coliseum 8 August 1977 New Haven United States New Haven Coliseum 9 August 1977 New Haven United States New Haven Coliseum 
26478758 2 2 Garth Tander Holden VE Commodore Holden Racing Team 1:21.7839 1:21.3155 3 5 Mark Winterbottom Ford FG Falcon Ford Performance Racing 1:21.8360 1:21.7426 4 55 Paul Dumbrell Ford FG Falcon Rod Nash Racing 1:22.1511 1:21.5772 5 8 Jason Richards Holden VE Commodore Brad Jones Racing 1:22.1685 1:21.6925 6 24 Fabian Coulthard Holden VE Commodore Walkinshaw Racing 1:22.1874 1:21.8328 
2648233 1997 TEN 16 14 - 186 13.3 38 0 8 1 1 1998 TEN 16 25 - 333 13.3 47 3 19 0 0 1999 TEN 13 8 - 89 11.1 31 0 5 0 0 2000 TEN 16 63 - 895 14.2 34 5 45 0 0 2001 TEN 15 73 - 1,128 15.5 71 9 50 0 0 
264920 1968 Rod Laver Billie Jean King {{flagicon|Australia}} John Newcombe
{{flagicon|Australia}} Tony Roche {{flagicon|USA}} Rosemary Casals
{{flagicon|USA}} Billie Jean King {{flagicon|Australia}} Margaret Court
{{flagicon|Australia}} Ken Rosewall 1969 Rod Laver Ann Haydon-Jones {{flagicon|Australia}} John Newcombe
{{flagicon|Australia}} Tony Roche {{flagicon|AUS}} Margaret Court
{{flagicon|AUS}} Judy Tegart {{flagicon|GBR}} Ann Haydon-Jones
{{flagicon|AUS}} Fred Stolle 1970 John Newcombe Margaret Court {{flagicon|Australia}} John Newcombe
{{flagicon|Australia}} Tony Roche {{flagicon|USA}} Rosemary Casals
{{flagicon|USA}} Billie Jean King {{flagicon|USA}} Rosemary Casals
{{flagicon|Romania|1965}} Ilie Năstase 1971 John Newcombe Evonne Goolagong {{flagicon|Australia}} Roy Emerson
{{flagicon|Australia}} Rod Laver {{flagicon|USA}} Rosemary Casals
{{flagicon|USA}} Billie Jean King {{flagicon|USA}} Billie Jean King
{{flagicon|Australia}} Owen Davidson 1972 Stan Smith Billie Jean King {{flagicon|South Africa|1928}} Bob Hewitt
{{flagicon|South Africa|1928}} Frew McMillan {{flagicon|USA}} Billie Jean King
{{flagicon|Netherlands}} Betty Stöve {{flagicon|USA}} Rosemary Casals
{{flagicon|Romania|1965}} Ilie Năstase 
2665139 Antipolo Cathedral Image:Antipolo Cathedral facade 2014.JPG Antipolo City Rizal CALABARZON On 14 January 1954, the Catholic Bishops Conference of the Philippines declared the new Antipolo Church as declared the National Shrine to Our Lady of Peace and Good Voyage. The church was elevated to the status of cathedral on 25 June 1983, upon the canonical erection of the Diocese of Antipolo. Baclayon Church Image:Baclayon church 1596.jpg Baclayon Bohol Central Visayas It was severely damaged when a 7.2 magnitude earthquake struck Bohol and other parts of Central Visayas on October 15, 2013. Barasoain Church Image:Barasoain Church facade.JPG Malolos Bulacan Central Luzon Site of the First Philippine Republic. Basilica Minore of Our Lady of Charity Image:Agoo Basilica facade & fountain.jpg Agoo La Union Ilocos Region On July 15, 1982, Pope John Paul II gave due course to the petition of Bishop Salvador Lazo of the Diocese of San Fernando, La Union that the Shrine of Our Lady of Charity be endowed with the title of a Minor Basilica. Basilica of Our Lady of Piat Image:Our Lady of Piat church.jpg Piat Cagayan Cagayan Valley On June 22, 1989, it was made into a minor basilica by Pope John Paul II. 
2666523 1 Batha Ati 2 Chari-Baguirmi Massenya 3 Hadjer-Lamis Massakory 4 Wadi Fira Biltine 6 Borkou Faya-Largeau 
26677236 Pole 2 Garth Tander Holden VE Commodore Holden Racing Team 1:57.1666 1:57.9965 2 18 James Courtney Ford FG Falcon Dick Johnson Racing 1:57.3429 1:58.3377 3 7 Todd Kelly Holden VE Commodore Kelly Racing 1:57.4077 1:58.4513 4 15 Rick Kelly Holden VE Commodore Kelly Racing 1:57.6746 1:58.3992 5 9 Shane van Gisbergen Ford FG Falcon Stone Brothers Racing 1:57.8137 1:58.5116 
2668173 {{ushr|PA|1|X}} Joel B. Sutherland Jacksonian 1826 Incumbent lost re-election.
New member elected.
Democratic hold. {{Plainlist | * '''{{Aye}} [[Lemuel Paynter]]''' (Democratic) 55.3% * [[Joel Barlow Sutherland|Joel B. Sutherland]] (Whig){{efn | name="pc" | Changed parties}} 44.7%}} {{ushr|PA|2|X}}
{{Small|[[Plural district]] with 2 seats}} Joseph R. Ingersoll Anti-Jacksonian 1834 Incumbent retired.
New member elected.
Whig gain. {{Plainlist | * '''{{Aye}} [[John Sergeant (politician)|John Sergeant]]''' (Whig) 63.1% * '''{{Aye}} [[George W. Toland]]''' (Whig) 63.0% * Read Longstreth (Democratic) 37.7% * John M. Morris (Democratic) 36.3%}} {{ushr|PA|3|X}} Michael W. Ash Jacksonian 1834 Incumbent retired.
New member elected.
Democratic gain.
Harper died March 18, 1837, leading to a special election, which was won by Naylor. {{Plainlist | * '''{{Aye}} [[Francis J. Harper]]''' (Democratic) 50.5% * [[Charles Naylor]] (Whig) 49.5%}} {{ushr|PA|4|X}}
{{Small|Plural district with 3 seats}} Edward Darlington Anti-Masonic 1832 Incumbent re-elected. {{Plainlist | * '''{{Aye}} [[David Potts Jr.]]''' (Anti-Masonic){{efn | name="wam" | Joint Whig/Anti-Masonic ticket}} 53.8% * '''{{Aye}} [[Edward Darlington]]''' (Anti-Masonic){{efn | name="wam"}} 53.6% * '''{{Aye}} [[Edward Davies (Pennsylvania)|Edward Davies]]''' (Anti-Masonic){{efn | name="wam"}} 53.6% * Samuel Leiper (Democratic) 46.4% * John K. Findley (Democratic) 46.3% * John W. Cunningham (Democratic) 46.3%}} {{ushr|PA|6|X}} Mathias Morris Anti-Jacksonian 1834 Incumbent re-elected as a Whig. {{Plainlist | * '''{{Aye}} [[Mathias Morris]]''' (Whig) 51.4% * John Rockman (Democratic) 48.6%}} 
2668329 {{ushr|New York|1|X}}
{{Small|[[Plural district]] with 2 seats}} Silas Wood Federalist 1818 Incumbent re-elected. {{Plainlist | * '''{{Aye}} [[Silas Wood]]''' (Federalist) 27.1% * '''{{Aye}} [[Peter Sharpe]]''' (Democratic-Republican) 23.1%{{efn | name="NY01"}} * [[Cadwallader D. Colden]] (Federalist) 22.9%{{efn | name="NY01"}} * Joshua Smith (Democratic-Republican) 22.8% * "Cadwallader Colden" 2.7%{{efn | name="NY01"}} * "Cadwallader D. Colder" 1.5%{{efn | name="NY01"}}}} {{ushr|New York|2|X}}
{{Small|Plural district with 2 seats}} Henry Meigs Democratic-Republican 1818 Incumbent retired.
New member elected.
Democratic-Republican hold. {{Plainlist | * '''{{Aye}} [[John J. Morgan]]''' (Democratic-Republican) 49.5% * '''{{Aye}} [[Churchill C. Cambreleng]]''' (Democratic-Republican) 29.6% * [[Henry Eckford (shipbuilder)|Henry Eckford]] (Clintonian/Federalist) 20.9%}} {{ushr|New York|2|X}}
{{Small|Plural district with 2 seats}} Peter H. Wendover Democratic-Republican 1814 Incumbent retired.
New member elected.
Democratic-Republican hold. {{Plainlist | * '''{{Aye}} [[John J. Morgan]]''' (Democratic-Republican) 49.5% * '''{{Aye}} [[Churchill C. Cambreleng]]''' (Democratic-Republican) 29.6% * [[Henry Eckford (shipbuilder)|Henry Eckford]] (Clintonian/Federalist) 20.9%}} {{ushr|New York|3|X}} Caleb Tompkins Democratic-Republican 1816 Incumbent retired.
New member elected.
Democratic-Republican hold. {{Plainlist | * '''{{Aye}} [[Jeremiah H. Pierson]]''' (Democratic-Republican) 59.2% * John T. Smith (Clintonian/Federalist) 37.7% * Peter S. Van Orden (Democratic-Republican) 9.4%}} {{ushr|New York|4|X}} Randall S. Street Federalist 1818 Incumbent retired.
New member elected.
Democratic-Republican gain. {{Plainlist | * '''{{Aye}} [[William W. Van Wyck]]''' (Democratic-Republican) 56.8% * William Taber (Clintonian/Federalist) 43.2%}} 
2668387 {{ushr|New York|2|X}}
and
{{ushr|New York|3|X}}
{{Small|Joint ticket}} Samuel L. Mitchill Democratic-Republican 1800 Incumbent re-elected but later resigned November 22, 1804 to become U.S. Senator, triggering a special election, see above. {{Plainlist | * '''{{Aye}} [[Samuel L. Mitchill]]''' (Democratic-Republican) 27.8% * '''{{Aye}} [[Daniel D. Tompkins]]''' (Democratic-Republican) 27.7% * [[Nicholas Fish]] (Federalist) 22.3% * Wynandt Van Zandt (Federalist) 22.2%}} {{ushr|New York|4|X}} Philip Van Courtlandt Democratic-Republican 1793 Incumbent re-elected. {{Plainlist | * '''{{Aye}} [[Philip Van Courtlandt]]''' (Democratic-Republican) 64.8% * John Herring (Democratic-Republican) 35.2%}} {{ushr|New York|5|X}} Andrew McCord Democratic-Republican 1802 Incumbent retired.
New member elected.
Democratic-Republican hold. {{Plainlist | * '''{{Aye}} [[John Blake Jr. (politician)|John Blake Jr.]]''' (Democratic-Republican) 63.1% * David M. Westcott (Federalist) 36.9%}} {{ushr|New York|8|X}} Henry W. Livingston Federalist 1802 Incumbent re-elected. {{Plainlist | * '''{{Aye}} [[Henry W. Livingston]]''' (Federalist) 54.8% * [[Edward P. Livingston]] (Democratic-Republican) 45.2%}} {{ushr|New York|9|X}} Killian Van Rensselaer Federalist 1800 Incumbent re-elected. {{Plainlist | * '''{{Aye}} [[Killian K. Van Rensselaer|Killian Van Rensselaer]]''' (Federalist) 56.4% * David McCarty (Democratic-Republican) 43.6%}} 
2668401 {{ushr|Virginia|4|X}} Abram Trigg Democratic-Republican 1797 Incumbent re-elected. {{Plainlist | * '''{{Aye}} [[Abram Trigg]]'''{{efn | name="nr"}} (Democratic-Republican)}} {{ushr|Virginia|5|X}} John J. Trigg Democratic-Republican 1797 Incumbent re-elected. {{Plainlist | * '''{{Aye}} [[John J. Trigg]]'''{{efn | name="nr"}} (Democratic-Republican)}} {{ushr|Virginia|6|X}} Matthew Clay Democratic-Republican 1797 Incumbent re-elected. {{Plainlist | * '''{{Aye}} [[Matthew Clay]]'''{{efn | name="nr"}} (Democratic-Republican)}} {{ushr|Virginia|7|X}} John Randolph Democratic-Republican 1799 Incumbent re-elected. {{Plainlist | * '''{{Aye}} [[John Randolph of Roanoke|John Randolph]]'''{{efn | name="nr"}} (Democratic-Republican)}} {{ushr|Virginia|8|X}} Samuel Goode Federalist 1799 Unknown if incumbent retired or lost re-election.
New member elected.
Democratic-Republican gain. {{Plainlist | * '''{{Aye}} [[Thomas Claiborne (1749-1812)|Thomas Claiborne]]'''{{efn | name="nr"}} (Democratic-Republican)}} 
26698209 1996 Internazionale 3–0 Manchester United 1997 Internazionale 1–1 (4–1) pen. Manchester United 1998 Liverpool 2–1 Internazionale 1999 Real Madrid 3–2 Internazionale 2001 Internazionale 2–1 Watford 
26707735 RAF Breighton No. 78 Squadron RAF Handley Page Halifax Mk.III RAF Burn No. 578 Squadron RAF Handley Page Halifax Mk.III RAF Driffield No. 466 Squadron RAAF Handley Page Halifax Mk.III RAF Full Sutton No. 77 Squadron RAF Handley Page Halifax Mk.III RAF Holme-on-Spalding Moor No. 76 Squadron RAF Handley Page Halifax Mk.III 
26732758 1990 Noureddine Morceli Athletics 1991 Hassiba Boulmerka Athletics 1991 Noureddine Morceli Athletics 1992 Hassiba Boulmerka Athletics 1992 Noureddine Morceli Athletics 
26733175 1 3 Max Biaggi Aprilia RSV4 1000 F 22 37:59.283 2 25 3 65 Jonathan Rea Honda CBR1000RR 22 +6.901 5 16 4 7 Carlos Checa Ducati 1098R 22 +7.457 3 13 5 2 Leon Camier Aprilia RSV4 1000 F 22 +7.564 11 11 7 52 James Toseland Yamaha YZF-R1 22 +18.391 15 9 
26734971 1992 Urawa Reds J1 League - - 4 0 7 2 11 2 1993 Urawa Reds J1 League 27 0 2 0 5 0 34 0 1994 Urawa Reds J1 League 41 1 0 0 2 0 43 1 1995 Urawa Reds J1 League 31 2 3 0 - - 34 2 1996 Urawa Reds J1 League 26 4 4 2 10 0 40 6 
26758472 400 m 55.89 Xiomara Larios 24 May 1980  {{flagicon|CUB}} Havana, Cuba  800 m 2:07.1 Xiomara Larios 6 June 1980  {{flagicon|CUB}} Santiago, Cuba  1500 m 4:46.1 Xiomara Larios 2 December 1979  {{flagicon|NCA}} Managua, Nicaragua  10000 m 40:13.2 Martha Portobanco 22 October 1993  Granada, Nicaragua  10000 m 39:49.30 Yelka Mairena 11 December 2017 Central American Games {{flagicon|NCA}} Managua, Nicaragua  
26762380 30 October 2010 DF Hwang Sun-Pil Daegu FC  30 October 2010 MF Kang Gu-Nam Daejeon Citizen  30 October 2010 DF Choi Won-Kwon FC Seoul  30 October 2010 MF Chun Je-Hun FC Seoul  30 October 2010 GK Seong Kyung-Il Gyeongnam FC  
26859272 18 Kyle Busch Joe Gibbs Racing Toyota 21.247 1 00 David Reutimann Michael Waltrip Racing Toyota 21.324 2 48 Jimmie Johnson Hendrick Motorsports Chevrolet 21.350 3 24 Jeff Gordon Hendrick Motorsports Chevrolet 21.365 4 12 Brad Keselowski Penske Racing Dodge 21.388 6 
26902062 Ethnic group European 208,575 {{Percentage | 208575| 288900| 1}} Ethnic group Aboriginal 32,430 {{Percentage | 32430| 288900| 1}} Ethnic group South Asian 13,670 {{Percentage | 13670| 288900| 1}} Ethnic group Filipino 11,345 {{Percentage | 11345| 288900| 1}} Ethnic group Chinese 7,815 {{Percentage | 7815| 288900| 1}} 
26905546 2 3 Max Biaggi Aprilia RSV4 1000 F 23 +1.757 3 20 3 52 James Toseland Yamaha YZF-R1 23 +3.621 9 16 4 11 Troy Corser BMW S1000RR 23 +4.209 5 13 5 41 Noriyuki Haga Ducati 1098R 23 +4.378 11 11 6 65 Jonathan Rea Honda CBR1000RR 23 +9.834 7 10 
26970931 2 2 Garth Tander Holden VE Commodore Holden Racing Team 1:23.4213 1:23.0653 6 24 Fabian Coulthard Holden VE Commodore Walkinshaw Racing 1:23.6586 1:23.4416 7 15 Rick Kelly Holden VE Commodore Kelly Racing 1:23.6760 1:23.5070 9 18 James Courtney Ford FG Falcon Dick Johnson Racing 1:23.9163 1:23.2135 10 5 Mark Winterbottom Ford FG Falcon Ford Performance Racing 1:23.9946 1:23.4899 
27038053 17 September 1904 Notts County A Trent Bridge 1 &ndash; 1 Thornley 10,000 24 September 1904 Sheffield United H Hyde Road 1 &ndash; 1 Thornley 23,000 15 October 1904 Middlesbrough A Ayresome Park 1 &ndash; 0 Gillespie 12,000 12 November 1904 Blackburn Rovers A Ewood Park 1 &ndash; 3 Turnbull 10,000 26 November 1904 The Wednesday A Owlerton 1 &ndash; 2 Turnbull 15,000 
27041365 50 Oita Trinita 3–2 Tokyo Verdy 1969 52 Omiya Ardija 1–0 Kyoto Purple Sanga 53 Urawa Red Diamonds 2–1 Montedio Yamagata 54 FC Tokyo 2–0 Avispa Fukuoka 55 Yokohama F. Marinos 4–0 Vegalta Sendai 
2707417 1995–96 Spartak Moscow RSL &nbsp; 38 2 0 2 12 &nbsp; 2 0 0 1996–97 Spartak Moscow RSL &nbsp; 39 3 6 9 41 &nbsp; — — — 1997–98 Toronto Maple Leafs NHL &nbsp; 25 2 5 7 28 &nbsp; — — — 1998–99 Toronto Maple Leafs NHL &nbsp; 57 4 8 12 47 &nbsp; 17 0 6 1999–2000 Toronto Maple Leafs NHL &nbsp; 59 0 10 10 28 &nbsp; 12 0 3 
27091762 1 65 Jonathan Rea Honda CBR1000RR 22 35:38.483 1 25 2 52 James Toseland Yamaha YZF-R1 22 +1.106 10 20 3 2 Leon Camier Aprilia RSV4 1000 F 22 +1.249 5 16 4 7 Carlos Checa Ducati 1098R 22 +1.548 6 13 5 11 Troy Corser BMW S1000RR 22 +2.738 3 11 
2709523 Tipperary 1956-57 Division 1B 2 0-06 1 0-02 — — 3 Tipperary 1957-58 Division 1B 3 1-15 3 1-12 2 1-11 8 Tipperary 1958-59 Division 1B 3 1-14 2 1-03 — — 5 Tipperary 1959-60 Division 1B 5 5-26 3 5-17 1 0-01 9 Tipperary 1960-61 Division 1B 3 2-04 2 2-08 1 0-09 6 
2710204 State House Legislature Dover 1980 January 13, 1981 January 11, 1983 State House Legislature Dover 1982 January 11, 1983 January 15, 1985 State House Legislature Dover 1984 January 15, 1985 January 13, 1987 State House Legislature Dover 1986 January 13, 1987 January 10, 1989 State House Legislature Dover 1988 January 10, 1989 January 8, 1991 
27136127 {{flagicon|GER}} Willi Multhaup DFB Cup 2 0 0 2 {{Pct|0|2|2}} 1963–65  {{flagicon|GER}} Fritz Langner DFB Cup      1967–69  {{flagicon|GER}} Hans Tilkowski DFB Cup      1970  {{flagicon|GER}} Robert Gebhardt DFB Cup      1970–71  {{flagicon|GER}} Willi Multhaup DFB Cup      1971  
2715064 32 Franklin D. Roosevelt Democrat 3,728 6071–9537 12.11 307.8 March 4, 1933 – April 12, 1945 33 Harry S. Truman Democrat 907 9538–10431 7.77 116.7 April 12, 1945 – January 20, 1953 34 Dwight D. Eisenhower Republican 484 10432–10913 8 60.5 January 20, 1953 – January 20, 1961 35 John F. Kennedy Democrat 214 10914–11127 2.84 75.4 January 20, 1961 – November 22, 1963 36 Lyndon B. Johnson Democrat 325 11128–11451 5.16 62.9 November 22, 1963 – January 20, 1969 
27161632 January 22, 2010 Oklahoma City United States Diamond Ballroom January 24, 2010 Indianapolis United States Murat Center January 28, 2010 Columbus United States Newport Music Hall January 29, 2010 Towson United States Recher Theatre January 30, 2010 Norfolk United States The NorVa 
2725210 2001 North Queensland 15 6 1/2 50.00% 0 26 2002 North Queensland 24 12 5/9 55.56% 0 58 2003 North Queensland 20 9 5/8 55.56% 0 46 2004 North Queensland 23 11 0 — 0 44 2005 North Queensland 25 21 0 — 0 84 
27260695 4 1981 Christchurch New Zealand Queen Elizabeth II Park 7–14 January 8 1989 Eugene United States Hayward Field 27 July–6 August 9 1991 Turku Finland Paavo Nurmi Stadium 18–28 July 10 1993 Miyazaki Japan Miyazaki Athletic Stadium 7–17 October 11 1995 Buffalo United States University at Buffalo Stadium 13–23 July 
27262862 3 September 1910 Preston North End A Deepdale 1–1 Holford 10,000 17 September 1910 Manchester United A Old Trafford 1–2 Jones 60,000 24 September 1910 Liverpool H Hyde Road 1–2 J. Dorsett 40,000 29 October 1910 Woolwich Arsenal A Manor Ground 1–0 J. Dorsett 10,000 5 November 1910 Bradford City H Hyde Road 1–3 J. Dorsett 12,000 
27276599 3 Schiltigheim 1–1 (a.e.t)
5–4 pen. Mulhouse 4 Colmar 2–3 (a.e.t) Jarville 5 Forbach 1–1 (a.e.t)
4–3 pen. Illzach Modenheim 11 Istres 2–0 Bastia 12 Pont-de-Roide 2–2 (a.e.t)
4–2 pen. Villefranche 
27280411 200 m 20.13 (0.0&nbsp;m/s) Usain Bolt {{JAM}} 20 July 2003 Pan American Junior Championships {{flagicon|BAR}} Bridgetown, Barbados {{Age in years and days|1986|08|21|2003|07|20}}  800 m 1:43.37 Mohamed Aman {{ETH}} 10 September 2011 Rieti Meeting {{flagicon|ITA}} Rieti, Italy {{Age in years and days|1994|01|10|2011|09|10}}  2000 m 4:56.86 Isaac Songok {{KEN}} 31 August 2001 ISTAF {{flagicon|GER}} Berlin, Germany {{Age in years and days|1984|04|25|2001|08|31}}  3000 m 7:32.37 Abreham Cherkos {{ETH}} 11 July 2006 Athletissima {{flagicon|SUI}} Lausanne, Switzerland {{Age in years and days|1989|09|23|2006|07|11}}  5000 m 12:54.19 Abreham Cherkos {{ETH}} 14 July 2006 Golden Gala {{flagicon|ITA}} Rome, Italy {{Age in years and days|1989|09|23|2006|07|14}}  
27295217 07–18 07–25 {{flag|THA}} VE Six-red World Championship Montien Riverside Hotel Bangkok Mark Selby Ricky Walden 8–6  07–19 07–25 {{flag|CHN}} NR Beijing International Challenge Beijing University Students Gymnasium Beijing Tian Pengfei Ryan Day 9–3  09–06 09–12 {{flag|CHN}} WR {{nowrap|[[2010 Shanghai Masters|Shanghai Masters]]}} Shanghai Grand Stage Shanghai Ali Carter Jamie Burnett {{nowrap|10–7}}  11–05 11–07 {{flag|ENG}} NR World Seniors Championship Cedar Court Hotel Bradford Jimmy White Steve Davis 4–1  01–09 01–16 {{flag|ENG}} NR {{nowrap|[[2011 Masters (snooker)|The Masters]]}} Wembley Arena London Ding Junhui Marco Fu 10–4  
27301754 1 1 Andrea Bertolini Vitaphone Racing Team 1:56.080 1:56.278 1:55.441 1 1 1 Michael Bartels Vitaphone Racing Team 1:56.080 1:56.278 1:55.441 1 2 2 Enrique Bernoldi Vitaphone Racing Team 1:56.801 1:56.761 1:55.836 2 4 23 Michael Krumm Sumo Power GT 1:56.197 1:56.999 1:56.312 4 5 11 Xavier Maassen Mad-Croc Racing 1:57.035 1:56.400 1:56.543 5 
27306154 Ferriolense 0–0 Mairena Elgoibar 0–1 Marino de Luanco Azuqueca 1–1 Universidad Oviedo Ejea 1–1 Alzira Ayamonte 5–1 Atl. Cirbonero 
27311266 Granit Mikashevichi {{Hs|0}}Premier league, 13 Volna Pinsk 2 DSK Gomel 3 Veras Nesvizh 4 SKVICH Minsk 5 
27341189 2007–08 Notre Dame Hounds SMHL  42 23 33 56 63  9 1 6 2008–09 Moncton Wildcats QMJHL  62 7 20 27 34  10 1 3 2009–10 Moncton Wildcats QMJHL  58 9 34 43 54  21 2 15 2010–11 Moncton Wildcats QMJHL  47 13 35 48 42  5 0 1 2010–11 San Antonio Rampage AHL  4 1 0 1 0  — — — 
27351084 Pole 18 James Courtney Ford FG Falcon Dick Johnson Racing 1:21.8739 1:22.2503 2 2 Garth Tander Holden VE Commodore Holden Racing Team 1:22.0056 1:22.3491 3 5 Mark Winterbottom Ford FG Falcon Ford Performance Racing 1:22.1313 1:22.3755 4 6 Steven Richards Ford FG Falcon Ford Performance Racing 1:22.2085 1:22.3058 7 22 Will Davison Holden VE Commodore Holden Racing Team 1:22.5360 1:22.4217 
27351088 Zhuozhou East {{lang|zh-hans|涿州东}}
{{lang|zh-hant|涿州東}} 59 0:25
(D2021) 0:25
(G527)     Baoding Hebei Gaobeidian East {{lang|zh-hans|高碑店东}}
{{lang|zh-hant|高碑店東}} 84 0:30
(D2031) 0:30
(G567)     Baoding Hebei Baoding East {{lang|zh-hans|保定东}}
{{lang|zh-hant|保定東}} 139 0:54
(D2031) 0:41
(G71)     Baoding Hebei Dingzhou East {{lang|zh-hans|定州东}}
{{lang|zh-hant|定州東}} 200 2:13
(D2021) 1:01
(G567)     Baoding Hebei Zhengding Airport {{lang|zh-hans|正定机场}}
{{lang|zh-hant|正定機場}} 244 1:38
(D2031) 1:17
(G6701)     Shijiazhuang Hebei 
2735971 1989 Sydney Croatia National Soccer League 8 0 ||||||||8||0 1989/90 Sydney Croatia National Soccer League 2 0 ||||||||2||0 1990/91 Sydney Croatia National Soccer League 26 0 ||||||||26||0 1991/92 Sydney Olympic National Soccer League 16 1 ||||||||16||1 Germany Germany Germany League League DFB-Pokal DFB-Pokal DFB Ligapokal DFB Ligapokal Total Total 
27374652 Ampara EA 132,096 90,757 2,917 26,895 2,029 ||1,490||||||||||56||696||256,946||15,516||272,462||420,835||64.74% Anuradhapura NC 221,204 80,360 18,129 ||528||||||11,445||||||||147||725||332,538||22,930||355,468||579,261||61.37% Badulla UV 203,689 112,886 15,768 ||5,073||11,481||||137||||||||||644||349,678||24,169||373,847||574,814||65.04% Batticaloa EA 62,009 22,935 324 66,235 6,034 ||16,886||11||4,424||||136||||1,624||180,618||14,749||195,367||333,644||58.56% Colombo WE 480,896 339,750 110,683 ||1,222||||||35||834||||||924||5,031||939,375||50,354||989,729||1,521,854||65.03% 
27376730 East Azarbaijan 76 63 North Khorasan 55 38 Kohgiluyeh and Boyer-Ahmad 896 607 Western Azerbaijan 52 55 Khuzestan 3671 2619 Golestan 9602 8671 Ardebil 15 20 Zanjan 23 17 Gilan 218 91 Isfahan 94773 88351 Semnan 18535 16874 Lorestan 63 36 Alborz 45548 38773 Sistan and Baluchestan 14163 12683 Mazandaran 1818 805 
27382662 2 7 Carlos Checa Ducati 1098R 24 +1.098 3 20 4 3 Max Biaggi Aprilia RSV4 1000 F 24 +6.974 7 13 5 65 Jonathan Rea Honda CBR1000RR 24 +13.710 11 11 6 2 Leon Camier Aprilia RSV4 1000 F 24 +13.848 8 10 7 52 James Toseland Yamaha YZF-R1 24 +16.064 2 9 
27384302 VAW-113 Black Eagles E-2 Hawkeye Naval Base Ventura County  VAW-115 Liberty Bells E-2 Hawkeye Naval Base Ventura County  VAW-116 Sun Kings E-2 Hawkeye Naval Base Ventura County  VAW-117 Wallbangers E-2 Hawkeye Naval Base Ventura County  VAW-120 Greyhawks E-2 HawkeyeC-2 Greyhound Naval Station Norfolk Chambers Field FRS 
2739076 Baaiduinen Terschelling {{coord|53|23|N|5|17|E|scale:100000|name=Baaiduinen}} Baaium Waadhoeke {{coord|53|10|N|5|38|E|scale:100000|name=Baijum}} Bakhuizen De Fryske Marren {{coord|52|52|N|5|27|E|scale:100000|name=Bakhuizen}} Bakkeveen Opsterland {{coord|53|05|N|6|15|E|scale:100000|name=Bakkeveen}} Bantega De Fryske Marren {{coord|52|50|N|5|48|E|scale:100000|name=Bantega}} 
2742470 3 France Alexandre Premat 1'17.278 1'16.185 1'16.043 1'15.163 2'31.206 0.417 4 Australia Will Power 1'16.056 1'16.360 1'15.774 1'15.614 2'31.388 0.599 5 Great Britain Robbie Kerr 1'16.612 1'15.878 1'16.097 1'15.836 2'31.714 0.925 6 Switzerland Neel Jani 1'17.907 1'16.435 1'16.142 1'15.587 2'31.729 0.940 8 Pakistan Adam Khan 1'17.020 1'16.457 1'16.481 1'16.139 2'32.596 1.807 
27450093 1 ISTAF Berlin Berlin Germany GL GL GL GL GL GL GL GL GL GL GL GL 2 Bislett Games Oslo Norway GL GL GL GL GL GL GL GL GL GL GL GL 3 Golden Gala Rome Italy GL GL GL GL GL GL GL GL GL GL GL GL 5 Memorial Van Damme Brussels Belgium GL GL GL GL GL GL GL GL GL GL GL GL 6 Meeting Areva Saint-Denis France GP GL GL GL GL GL GL GL GL GL GL GL 
27478895 Ilkka Heikkinen Sibir Novosibirsk 1 year P. A. Parenteau New York Islanders 1 year, $600,000 Jody Shelley Philadelphia Flyers 3 years, $3.3 million Alex Auld Montreal Canadiens 1 year, $1 million Olli Jokinen Calgary Flames 2 years, $6 million 
27497170 2014 Kazuki Nakajima Dallara-Toyota Super Formula Suzuka 1986 Kazuyoshi Hoshino March-Honda Formula Two Suzuka 1985 Satoru Nakajima March-Honda Formula Two Suzuka 1984 Satoru Nakajima March-Honda Formula Two Suzuka 1977 Riccardo Patrese Chevron-BMW Formula 2000 Suzuka 
27500241 Dan Ellis Montreal Canadiens 2 years, $3 million Pavel Kubina Atlanta Thrashers 2 years, $7.7 million Niklas Persson Nizhnekamsk Neftekhimik 1 year, $550,000 Marc-Antoine Pouliot Edmonton Oilers 1 year, $550,000 Chris Durno Colorado Avalanche 1 year, $550,000 
27519699 1956–57 Dennis Viollet Manchester United 9 1963–64 Sandro Mazzola Inter Milan 7 1966–67 Paul Van Himst Anderlecht 6 1968–69 Denis Law Manchester United 9 1974–75 Eduard Markarov Ararat Yerevan 5 
27525286 Ampara NE 62,600 45,400 ||61,325||43,424||965||||||||||||213,714||10,727||224,441||265,768||84.45% Anuradhapura NC 92,726 64,010 ||||||1,724||531||1,397||||||4,057||164,445||14,245||178,690||334,073||53.49% Badulla UV 135,089 81,011 ||||||5,712||1,693||5,589||||||||229,094||19,704||248,798||329,321||75.55% Batticaloa NE 11,317 4,130 46,419 36,867 55,131 ||||||||||1,497||155,361||13,923||169,284||216,574||78.16% Colombo WE 374,530 205,053 ||29,308||||31,873||76,966||7,112||||||||724,842||35,271||760,113||1,087,891||69.87% 
27527913 Ampara NE 54,150 78,767 75,092 24,526 673 ||4,192||3,366||||||||||||240,766||12,736||253,502||312,006||81.25% Anuradhapura NC 180,454 142,084 ||||3,077||1,369||||||||||||||||326,984||14,620||341,604||406,926||83.95% Badulla UV 146,546 182,131 ||||3,555||1,541||||3,286||||||||||||337,059||28,540||365,599||435,260||84.00% Batticaloa NE 19,278 23,244 31,072 76,516 ||||17,073||2,103||||||4,802||||||174,088||15,531||189,619||261,898||72.40% Colombo WE 469,642 385,100 ||||11,454||42,734||1,113||9,251||||||||2,050||589||921,933||36,635||958,568||1,235,959||77.56% 
27530183 3 38 Graham Rahal Chip Ganassi Racing Dallara/Honda/Firestone 200 +5.5949 29 6 38 7 30 Bertrand Baguette Rahal Letterman Lanigan Racing Dallara/Honda/Firestone 200 +23.9631 14 11 30 9 26 Marco Andretti Andretti Autosport Dallara/Honda/Firestone 200 +25.7411 27 0 25 10 7 Danica Patrick Andretti Autosport Dallara/Honda/Firestone 200 +26.4483 25 10 23 14 12 Will Power Team Penske Dallara/Honda/Firestone 199 +1 lap 5 0 26 
27535093 Robert Nilsson Salavat Yulaev Ufa undisclosed Charles Linglet Torpedo Nizhny Novgorod undisclosed Chris Minard Detroit Red Wings 2 years, $1.05 million Ryan Stone Calgary Flames 1 year, $500,000 Vyacheslav Trukhno Sibir Novosibirsk 2 years, undisclosed 
27548118 General Electric January – February 1942 44 Tonner 2 813 – 814 #813 is the first new diesel-electric locomotive Baldwin Locomotive Works March 1944 – May 1946 VO-1000 5 9153 – 9155, 9160 – 9161  Electro Motive Division March 1947 E7A 2 7008 – 7009 The only six axle diesel-electric locomotives on the roster Electro Motive Division November 1947 – June 1948 F3A 24 529 – 552  Baldwin Locomotive Works February – March 1949, March 1950 DRS4-4-1500 6 4112 – 4115, 9148 – 9149  
27581215 Dynamo Kyiv 2007–08 Ukrainian Premier League 1 0 0 0 0 0 0 0 1 0 Dynamo Kyiv 2008–09 Ukrainian Premier League 11 1 3 0 1 0 0 0 15 1 Dynamo Kyiv 2009–10 Ukrainian Premier League 11 2 1 1 0 0 1 0 13 3 Dynamo Kyiv 2010–11 Ukrainian Premier League 12 0 3 1 8 1 0 0 23 2 Dnipro Dnipropetrovsk 2011–12 Ukrainian Premier League 15 3 2 1 1 0 0 0 18 4 
27589134 {{bronze medal}} Mouloud Noura {{flagicon|GBR}} 2012 London Judo Men's 60 kg {{dts|30 August 2012}} {{bronze medal}} Mohamed Berrahal {{flagicon|GBR}} 2012 London Athletics Men's 100 m T51 {{dts|31 August 2012}} {{bronze medal}} Zoubida Bouazoug {{flagicon|GBR}} 2012 London Judo Women's +70 kg {{dts|1 September 2012}} {{silver medal}} Safia Djelal {{flagicon|GBR}} 2012 London Athletics Women's javelin throw F58 {{dts|1 September 2012}} {{silver medal}} Mounia Gasmi {{flagicon|GBR}} 2012 London Athletics Women's club throw F31/32/51 {{dts|1 September 2012}} 
27616097 1 6 Ryan Briscoe Team Penske 24.3034 24.3155 24.3486 24.3600 1:37.3275 2 10 Dario Franchitti Chip Ganassi Racing 24.2917 24.3214 24.3597 24.3604 1:37.3332 3 12 Will Power Team Penske 24.3226 24.3375 24.3480 24.3716 1:37.3797 4 9 Scott Dixon Chip Ganassi Racing 24.3371 24.3274 24.3406 24.3771 1:37.3822 7 06 Hideki Mutoh Newman/Haas Racing 24.4527 24.4287 24.4207 24.4311 1:37.7332 
27627371 Pole 5 Mark Winterbottom Ford FG Falcon Ford Performance Racing 1:09.6854 1:10.0167 3 47 Tim Slade Ford FG Falcon James Rosenberg Racing 1:09.8836 1:10.1060 4 2 Garth Tander Holden VE Commodore Holden Racing Team 1:09.9374 1:10.1108 5 7 Todd Kelly Holden VE Commodore Kelly Racing 1:10.0184 1:10.0381 6 18 James Courtney Ford FG Falcon Dick Johnson Racing 1:10.2081 1:09.9648 
27629844 1 3 Max Biaggi Aprilia RSV4 1000 F 24 38:20.442 2 25 3 41 Noriyuki Haga Ducati 1098R 21 +6.432 6 16 4 2 Leon Camier Aprilia RSV4 1000 F 21 +8.576 8 13 5 11 Troy Corser BMW S1000RR 21 +11.150 15 11 8 50 Sylvain Guintoli Suzuki GSX-R1000 21 +15.145 12 8 
27650244 Goldie Musician & DJ Kristina Rihanoff Eliminated 1st
on 10 October 2010 Paul Daniels Magician Ola Jordan Eliminated 2nd
on 17 October 2010 Peter Shilton Former England footballer Erin Boag Eliminated 3rd
on 24 October 2010 Jimi Mistry Television & film actor Flavia Cacace Eliminated 5th
on 7 November 2010 Felicity Kendal Stage & screen actress Vincent Simone Eliminated 7th
on 21 November 2010 
277463 1980 Raging Bull National Board of Review Award, Best Supporting Actor {{WON}} 1980 Raging Bull New York Film Critics Circle Award, Best Supporting Actor {{WON}} 1981 Raging Bull Academy Award, Best Supporting Actor {{Nominated}} 1981 Raging Bull National Society of Film Critics Awards, Best Supporting Actor {{WON}} 1982 Raging Bull British Academy Film Award, Most Outstanding Newcomer to Lead Film Roles {{WON}} 
27759120 1 12 Will Power Team Penske 17.7742 17.7316 17.7249 17.7618 1:10.9925 2 9 Scott Dixon Chip Ganassi Racing 17.7619 17.7632 17.7386 17.7308 1:10.9945 3 26 Marco Andretti Andretti Autosport 17.7851 17.8050 17.7894 17.7435 1:11.1230 5 10 Dario Franchitti Chip Ganassi Racing 17.8365 17.7961 17.7839 17.7640 1:11.1805 6 77 Alex Tagliani FAZZT Race Team 17.8957 17.7484 17.7714 17.7680 1:11.1835 
2783826 Lunar Ball Pony Canyon NES {{dts|December 5, 1985}} {{Yes2|Yes}} {{Yes2|Yes}} {{Yes2|Yes}} This version was published by FCI in North America in October 1987 and in Europe in 1991. Golvellius Sega Master System {{dts|August 14, 1988}} {{Yes2|Yes}} {{Yes2|Yes}} {{Yes2|Yes}}  Aleste Sega Master System {{dts|February 29, 1988}} {{Yes2|Yes}} {{Yes2|Yes}} {{Yes2|Yes}}  Tombs & Treasure Tokyo Shoseki NES {{dts|August 3, 1988}} {{Yes2|Yes}} {{Yes2|Yes}} {{Yes2|Yes}} This game was originally developed, published, and released by Nihon Falcom for the PC-8801 in October 1986. This game was also published and released in North America by Infocom in June 1991. Godzilla: Monster of Monsters Toho NES {{dts|December 9, 1988}} {{Yes2|Yes}} {{Yes2|Yes}} {{Yes2|Yes}} This game is based on the Godzilla movies. 
27857235 Obuvshchik Lida {{Hs|0}}Premier League, 16 Torpedo Zhodino {{Hs|1}}Premier League, 17 Polesye Mozyr 2 Selmash Mogilev 3 Khimik Svetlogorsk 4 
27995067 1 1 Gil de Ferran Team Penske 57.703 109.472  4 55 Tony Kanaan Mo Nunn Racing 57.923 109.076 +0.230 5 33 Alex Tagliani Forsythe Racing 57.997 108.937 +0.294 6 27 Dario Franchitti Team Green 58.109 108.727 +0.402 8 26 Paul Tracy Team Green 58.161 108.629 +0.458 
28009269 2 10 Dan Wheldon Chip Ganassi Racing 26.6744 205.141 3 11 Tony Kanaan Andretti Green Racing 26.7217 204.777 4 7 Danica Patrick Andretti Green Racing 26.7881 204.270 7 27 Dario Franchitti Andretti Green Racing 26.8600 203.723 10 26 Marco Andretti Andretti Green Racing 26.9386 203.129 
28027246 2009 Venice Film Festival Queer Lion I Am Love {{nom}}  2010 Berlin Film Festival Best Feature Film I Am Love {{nom}}  2010 Boulder International Film Festival Best Feature Film I Am Love {{won}}  2011 British Academy Film Awards Best Film Not in the English Language I Am Love {{nom}}  2011 Broadcast Film Critics Association Awards Best Foreign Language Film I Am Love {{nom}}  
28040331 1984 South Melbourne Hellas Melita Eagles 3–2 1985 Sydney City Heidelberg Alexander 3–0 1986 Australian Institute of Sport Sunshine George Cross 3–0 1987 Sydney Olympic Sunshine George Cross 1–0 1988 Marconi Sunshine George Cross 2–1 
28077393 Stroitel Starye Dorogi {{Hs|1}}Premier League, 16 Polesye Mozyr 2 Kommunalnik Pinsk 3 Transmash Mogilev 4 Brestbytkhim Brest 5 
2813327 1980–81 Toronto Marlboros OHL &nbsp; 1 0 0 0 0 &nbsp; — — — 1981–82 Toronto Marlboros OHL &nbsp; — — — — — &nbsp; 7 4 1 1982–83 Toronto Marlboros OHL &nbsp; 61 18 20 38 42 &nbsp; — — — 1983–84 Toronto Marlboros OHL &nbsp; 70 51 54 105 77 &nbsp; 9 2 6 1984–85 Toronto Maple Leafs NHL &nbsp; 18 1 1 2 2 &nbsp; — — — 
28140131 Kommunalnik Pinsk 2 Fomalgaut Borisov 3 Kardan-Flyers Grodno 4 Kommunalnik Slonim 5 Transmash Mogilev 7 
28156482 1 Séamus Richmond Antrim 3-1 10 Hertfordshire 1 Johnny Walsh Kildare 0-10 10 Antrim 3 Mick Deely Kildare 2-2 8 Meath 4 Willie Richmond Antrim 2-1 7 Kildare 4 Martin Cuddy Hertfordshire 2-1 7 Antrim 
28174159 Barbur Boulevard Transit Center Portland 9750 SW Barbur Blvd. 1977 Barbur Blvd. Transit Center Beaverton Transit Center (second location) Beaverton 4050 SW Lombard Ave. 1988 Beaverton Transit Center Clackamas Town Center Transit Center (second location) Clackamas 9225 SE Sunnyside Rd. 2009 Clackamas Town Center Transit Center Gateway/Northeast 99th Avenue Transit Center Portland 9900 NE Multnomah St. 1986 File:Gateway Transit Center - Portland, Oregon.JPG Gresham Central Transit Center Gresham 350 NE 8th St. 1982 File:Gresham TC bus portion, from west.jpg 
28175 1974 Republic of Ireland – – {{Composition bar|7|802|hex={{Sinn Féin/meta/color}}}} 1979 Republic of Ireland – – {{Composition bar|11|798|hex={{Sinn Féin/meta/color}}}} 1985 Northern Ireland 75,686 11.8% {{Composition bar|59|565|hex={{Sinn Féin/meta/color}}}} 1985 Republic of Ireland 46,391 3.3% – 1989 Northern Ireland 69,032 11.2% {{Composition bar|43|565|hex={{Sinn Féin/meta/color}}}} 
2818186 1936 9 9 81 {{sortname|Phil|Flanagan|nolink=1}} Giants G Holy Cross 1937 10 10 100 {{sortname|Solon|Holt|nolink=1}} Rams G TCU 1938 12 10 110 {{sortname|Ferd|Dreher}} Bears E Denver 1939 22 5 200 {{sortname|Jack|Rhodes|nolink=1}} Giants G Texas 1941 22 2 204 {{sortname|Mort|Landsberg|nolink=1}} Steelers B Cornell 
28199801 2009 Europe/Africa Group II RR 22 April 2009 {{fed|RSA}} Hard Lizaan du Plessis W 6–7(7–9), 7–5, 6–4 2011 Europe/Africa Group II RR 5 May 2011 {{fed|ARM}} Clay Ani Amiraghyan W 6–3, 6–2 2011 Europe/Africa Group II RR 6 May 2011 {{fed|GEO}} Clay Sofia Shapatava L 3–6, 2–6 2011 Europe/Africa Group II RPO 7 May 2011 {{fed|MAR}} Clay Fatima El Allami W 6–2, 6–1 2012 Europe/Africa Group II RR 19 April 2012 {{fed|NOR}} Clay Emma Flood W 6–0, 6–1 
28203739 1 11 Xavier Maassen Mad-Croc Racing 2:18.194 2:18.685 2:17.605 1 6 40 Maxime Martin Marc VDS Racing Team 2:19.500 2:19.592 2:18.471 6 6 40 Bas Leinders Marc VDS Racing Team 2:19.500 2:19.592 2:18.471 6 10 2 Enrique Bernoldi Vitaphone Racing Team 2:18.356 2:19.630  10 11 6 Romain Grosjean Matech Competition 2:19.158 2:19.762  11 
28272385 2008–09 AIK IF J20  19 0 0 0 43  — — — 2008–09 AIK IF Allsv  1 0 1 1 0  — — — 2009–10 AIK IF J20  38 1 19 20 120  5 1 2 2009–10 AIK IF Allsv  16 0 3 3 8  — — — 2010–11 AIK IF SEL  38 1 6 7 18  7 0 0 
28278323 Cienciano 1 2003 Colo-Colo 1 2006 Pachuca 1 2006 Toluca 1 2006 Argentinos Juniors 1 2008 
28279125 MF {{flagicon|Ghana}} 4 Abdul Rahim Ayew 1 0 0 1 MF {{flagicon|Egypt}} 5 Ibrahim Salah 8 0 0 8 MF {{flagicon|Egypt}} 8 Hassan Mostafa 5 0 0 5 MF {{flagicon|Egypt}} 10 Shikabala 10 0 0 10 MF {{flagicon|Egypt}} 12 Wajih Abdel-Azim 4 0 0 4 
28324420 G Kobe Bryant Los Angeles Lakers 15 1,591,437 F Kevin Durant Oklahoma City Thunder 4 1,504,047 F Blake Griffin Los Angeles Clippers 3 863,832 C Dwight Howard Los Angeles Lakers 7 922,070 F LaMarcus Aldridge Portland Trail Blazers 2 — 
28358164 Anatoliy Tymoshchuk 03.30.1979 Bayern Munich 5 (0)
97 (1) v Poland, September 4, 2010 Oleh Husyev 04.25.1983 Dynamo Kyiv 4 (0)
58 (7) v Poland, September 4, 2010 Ruslan Rotan 10.29.1981 Dnipro Dnipropetrovsk 4 (0)
43 (6) v Netherlands, August 11, 2010 Oleksandr Aliyev 02.03.1985 Lokomotiv Moscow 4 (4)
13 (4) v Poland, September 4, 2010 Andriy Yarmolenko 10.23.1989 Dynamo Kyiv 1 (0)
7 (2) v Norway, June 2, 2010 
28361240 Oleh Husyev 04.25.1983 Dynamo Kyiv 7 (1)
54 (7) v Greece, November 18, 2009 Maxym Kalynychenko 01.26.1979 Dnipro Dnipropetrovsk 6 (0)
43 (7) v Turkey, August 12, 2009 Serhiy Nazarenko 16.02.1980 Dnipro Dnipropetrovsk 8 (4)
41 (11) v Andorra, October 14, 2009 Ruslan Rotan 10.29.1981 Dnipro Dnipropetrovsk 7 (0)
39 (6) v Greece, November 14, 2009 Oleksiy Hai 06.11.1982 Shakhtar Donetsk 8 (1)
22 (1) v Greece, November 18, 2009 
28380525 19 1995 Konin Hanna Ereńska-Radzewska Marta Zielińska Agnieszka Brustman 25 2001 Brzeg Dolny Monika Soćko Joanna Dworakowska Agnieszka Brustman 26 2002 Rybnik Joanna Dworakowska Monika Soćko Beata Kądziołka 27 2003 Rybnik Monika Soćko Marta Zielińska Joanna Dworakowska 29 2006 Koszalin Klaudia Kulon Joanna Majdan Maria Szymańska 
28382966 14 Tony Stewart Stewart-Haas Racing Chevrolet 2 99 Carl Edwards Roush Fenway Racing Ford 3 11 Denny Hamlin Joe Gibbs Racing Toyota 4 4 Kasey Kahne Red Bull Racing Team Toyota 5 47 Bobby Labonte JTG Daugherty Racing Toyota 6 
2839516 1989–90 Brantford Classics MWJHL  1 0 2 2 2  — — — 1990–91 Brantford Classics MWJHL  31 30 30 60 28  — — — 1991–92 Kingston Frontenacs OHL  62 27 39 66 37  — — — 1992–93 Kingston Frontenacs OHL  58 55 54 109 125  16 11 18 1993–94 Tampa Bay Lightning NHL  84 13 29 42 123  — — — 
2842681 Chevrolet Dale Earnhardt Incorporated 15 Michael Waltrip Slugger Labbe Chevrolet Hendrick Motorsports 24 Jeff Gordon Robbie Loomis Chevrolet Hendrick Motorsports 48 Jimmie Johnson Chad Knaus Chevrolet Joe Gibbs Racing 20 Tony Stewart Greg Zipadelli Chevrolet Richard Childress Racing 29 Kevin Harvick Todd Berrier 
28448392 Chevrolet B.J. McLeod Motorsports 78 B. J. McLeod Jamie Jones {{Tooltip|2|12, 17}} Chevrolet FDNY Racing 28 Grant Enfinger Dick Rahilly {{Tooltip|1|1}} Chevrolet FDNY Racing 28 Wes Burton Dick Rahilly {{Tooltip|3|7, 14, 22}} Chevrolet ThorSport Racing 44 Frank Kimmel Jerry Pitts, Jr. {{Tooltip|1|2}}
Bill Kimmel, Jr. {{Tooltip|1|25}} {{Tooltip|1|25}} Chevrolet ThorSport Racing 98 Dakoda Armstrong Dan Stillman {{Tooltip|7|11, 13, 15, 18, 20, 22, 25}} 
28455853 {{llwsy|1967}} West Tokyo Tokyo Osaka Nishi Osaka Far East Champions {{llwsy|1976}} Funabashi Funabashi Komae Tokyo Far East Champions {{llwsy|1978}} Amagasaki Kita Amagasaki Suginami Tokyo Far East DNQ {{llwsy|1984}} Taisho Osaka Hamamatsu Hamamatsu Far East DNQ {{llwsy|1988}} Osaka Higashi Osaka Nagoya Higashi Nagoya Far East DNQ 
2847860 2000 Paromitar Ek Din Niece of Paromita's First Husband Bengali Bengali Debut 2002 Nee Thodu Kavali Sindhu Telugu  2004 Dhoom Sweety Dixit Hindi  2004 Swapner Din Ameena Bengali  2005 Andarivaadu Swetha Telugu  
28511631 1962 3rd Lok Sabha 34 1967 4th Lok Sabha 35 1971 5th Lok Sabha 28 1977 6th Lok Sabha 41 1980 7th Lok Sabha 41 
2858033 União Leiria 2002–03 Primeira Liga 9 0 3 0 – – – – 12 0 União Leiria 2003–04 Primeira Liga 28 0 1 0 4 0 1 0 34 0 União Leiria 2004–05 Primeira Liga 30 0 0 0 – – 6 0 36 0 Porto 2005–06 Primeira Liga 11 0 2 0 0 0 – – 13 0 Porto 2006–07 Primeira Liga 30 0 0 0 8 0 1 0 39 0 
28632696 Hajduk Split 2008–09 1. HNL 0 0 0 0 — — 0 0 0 Hajduk Split 2009–10 1. HNL 0 0 0 0 — — 0 0 0 Hajduk Split 2010–11 1. HNL 1 0 0 0 — — 0 0 1 Hajduk Split 2011–12 1. HNL 1 0 2 0 — — 0 0 3 Hajduk Split 2012–13 1. HNL 4 0 1 0 — — 0 0 5 
28658235 Albury Liberal Harold Mair Brian Moriarty (Lib)  Ashfield Labor Paul Whelan George Dryden (Lib) Albert Jarman (Dem) Balmain Labor Roger Degen Dianne Street (Lib) James Donovan (SPA)
Denis Freney (CPA)
Franco Paisio (Dem)
Douglas Spedding (Ind) Bankstown Labor Ric Mochalski James McDonald (Lib) Donna Hoban (Ind) Bass Hill Labor Neville Wran Paul Jones (Lib)  
2868757 Shakhtar Donetsk 2000–01 Vyshcha Liha 8 7 2 1 - - 0 0 - - 10 8 {{Tooltip|Ref.|Reference}} Shakhtar Donetsk 2001–02 Vyshcha Liha 17 7 2 1 - - 6 2 - - 25 10  Shakhtar Donetsk 2002–03 Vyshcha Liha 10 1 4 1 - - 3 1 - - 17 3  Shakhtar Donetsk 2003–04 Vyshcha Liha 17 6 6 2 - - 4 2 - - 27 10  Shakhtar Donetsk 2004–05 Vyshcha Liha 15 8 5 3 - - 13 5 - - 33 16  
28744929 Boston College Eagles Chestnut Hill, Massachusetts 1863 2005 Private/Jesuit 0 Clemson Tigers Clemson, South Carolina 1889 1953 Public 13 Duke Blue Devils Durham, North Carolina 1838 1953 Private/Non-Sectarian 7 Florida State Seminoles Tallahassee, Florida 1851 1991 Public 12 Georgia Tech Yellow Jackets Atlanta 1885 1979 Public 3 
28752833 2 12 Will Power Team Penske 24.4469 24.4723 48.9192 3 4 Dan Wheldon Panther Racing 24.4840 24.4640 48.9480 4 9 Scott Dixon Chip Ganassi Racing 24.5009 24.4848 48.9857 5 06 Hideki Mutoh Newman/Haas Racing 24.4871 24.5343 49.0214 7 32 Mario Moraes KV Racing Technology 24.5877 24.5458 49.1335 
2876032 1 12 Tazio Nuvolari Scuderia Ferrari Alfa Romeo Tipo B 22 4:08:04.1 2 1 2 1 Hans Stuck Auto Union Auto Union B 22 +2:14.3 1 2 3 5 Rudolf Caracciola Daimler-Benz AG Mercedes-Benz W25B 22 +3:09.0 7 3 5 7 Manfred von Brauchitsch Daimler-Benz AG Mercedes-Benz W25B 22 +6:13.3 5 4 6 6 Luigi Fagioli Daimler-Benz AG Mercedes-Benz W25B 22 +7:54.2 13 4 
28760622 GK {{flagicon|ENG}} John Keeley 14 August 1993 Lincoln City Layer Road  DF {{flagicon|ENG}} Tim Allpress 17 August 1993 Fulham Craven Cottage  FW {{flagicon|SCO}} Grant Morrow 28 August 1993 Northampton Town Layer Road  MF {{flagicon|ENG}} Alan Dickens 4 September 1993 Torquay United Plainmoor  MF/FB {{flagicon|ENG}} Adam Locke 9 October 1993 Scunthorpe United Layer Road  
2876495 1 Brazil Nelson Piquet Jr. 1'50.201 1'30.755 1'31.692 1'30.561 3'01.316 -- 2 Switzerland Neel Jani 1'32.971 1'31.096 1'31.186 1'30.734 3'01.830 0.514 3 France Alexandre Premat 1'32.354 1'31.087 1'31.834 1'31.463 3'02.550 1.234 5 The Netherlands Jos Verstappen 1'33.612 1'31.659 1'32.542 1'31.551 3'03.210 1.894 8 Malaysia Fairuz Fauzy 1'34.872 1'32.130 1'32.889 1'31.337 3'03.467 2.151 
2881031 1999–00 U.S. National Team Development Team USDP  58 5 8 13 152  — — — 2002–03 Montreal Canadiens NHL  21 0 1 1 28  — — — 2003–04 Montreal Canadiens NHL  46 0 4 4 34  7 0 0 2005–06 Montreal Canadiens NHL  73 2 4 6 116  6 0 0 2006–07 Montreal Canadiens NHL  80 4 15 19 116  — — — 
28811803 1955 Eugene Emeralds 4–2 Salem Senators 1957 Wenatchee Chiefs 4–3 Eugene Emeralds 1958 Yakima Bears 4–1 Lewiston Broncs 1959 Yakima Bears 4–1 Salem Senators 1961 Lewiston Broncs 4–1 Yakima Bears 
28829126 1 14 {{flagicon|AUS}} Jason Bright
{{flagicon|NZL}} Matt Halliday Holden VE Commodore Brad Jones Racing 2:07.0002 4 5 {{flagicon|AUS}} Mark Winterbottom
{{flagicon|AUS}} Luke Youlden Ford FG Falcon Ford Performance Racing 2:07.4526 5 33 {{flagicon|AUS}} Lee Holdsworth
{{flagicon|AUS}} David Besnard Holden VE Commodore Garry Rogers Motorsport 2:07.4687 6 18 {{flagicon|AUS}} James Courtney
{{flagicon|AUS}} Warren Luff Ford FG Falcon Dick Johnson Racing 2:07.7278 7 22 {{flagicon|AUS}} Will Davison
{{flagicon|AUS}} David Reynolds Holden VE Commodore Holden Racing Team 2:07.7375 
28840856 1 Michael Lane Leitrim 2-9 15 Warwickshire 2 Niall Campbell Donegal 0-11 11 South Down 3 Kevin Codd Warwickshire 1-7 10 Donegal 3 Liam Morgan South Down 0-10 10 Longford 5 Enda McDermott Donegal 2-3 9 Warwickshire 
28892600 2012 Eurocup Formula Renault 2.0 R-ace GP 14 0 0 1 2 78 5th 2012 Formula Renault 2.0 NEC R-ace GP 11 1 1 2 4 166 10th 2013 Eurocup Formula Renault 2.0 Koiranen GP 14 2 1 2 5 113 5th 2013 Formula Renault 2.0 Alps Koiranen GP 6 0 0 0 2 68 8th 2014 Eurocup Formula Renault 2.0 Koiranen GP 14 5 6 5 10 254 1st 
2893218 2006 Video of the Year "I Write Sins Not Tragedies" {{won}}  2006 Best New Artist in a Video "I Write Sins Not Tragedies" {{nom}}  2006 Best Group Video "I Write Sins Not Tragedies" {{nom}}  2006 Best Rock Video "I Write Sins Not Tragedies" {{nom}}  2006 Best Art Direction "I Write Sins Not Tragedies" {{nom}}  
28943295 10th 1944–1948  Ira McLaughlin Social Credit 11th 1948–1952  Ira McLaughlin Social Credit 12th 1952–1955  Ira McLaughlin Social Credit 13th 1955–1959  Ira McLaughlin Social Credit 14th 1959–1963  Ira McLaughlin Social Credit 
28952381 2 6 Ryan Briscoe Team Penske 27.2124 27.0749 54.2873 3 12 Will Power Team Penske 27.2070 27.1156 54.3226 4 10 Dario Franchitti Chip Ganassi Racing 27.2927 27.1647 54.4574 5 26 Marco Andretti Andretti Autosport 27.3856 27.2833 54.6689 6 11 Tony Kanaan Conquest Racing 27.4408 27.2761 54.7169 
28976 Willie Gault WR WR Stanley Morgan Jim Covert LT LT Brian Holloway Tom Thayer RG RG Ron Wooten Emery Moorehead TE TE Lin Dawson Dennis McKinnon WR WR Stephen Starring 
28986930 2009–10 Adirondack Phantoms AHL  5 2 5 7 0  — — — 2010–11 Adirondack Phantoms AHL  72 5 44 49 14  — — — 2010–11 Philadelphia Flyers NHL  3 0 0 0 4  — — — 2011–12 Adirondack Phantoms AHL  28 1 16 17 14  — — — 2011–12 Philadelphia Flyers NHL  30 1 4 5 2  7 1 1 
29025660  Peter Shore  31 October 1983 26 October 1984 Labour Neil Kinnock  John Smith  26 October 1984 13 July 1987 Labour Neil Kinnock  Bryan Gould File:Bryan Gould in 1992.jpg 13 July 1987 2 November 1989 Labour Neil Kinnock  Gordon Brown File:Gordon Brown official.jpg 2 November 1989 18 July 1992 Labour Neil Kinnock  Jack Cunningham  20 October 1994 19 October 1995 Labour Tony Blair 
2904688 {{flag|Afghanistan}} List Salahuddin Rabbani Jamiat-e Islami 1 February 2015 {{flag|Andorra}} List Maria Ubach i Font Democrats for Andorra 17 July 2017 {{flag|Angola}} List Manuel Domingos Augusto People's Movement for the Liberation of Angola September 28, 2017 {{flag|Armenia}} List Zohrab Mnatsakanyan Independent 12 May 2018 {{flag|Australia}} List Marise Payne Liberal Party of Australia 28 August 2018 
291026 Battle of Avdiivka 29 January 2017 – 4 February 2017
({{Age in years, months, weeks and days|2017-01-29|2017-02-04}})  War in Donbass Operation Ghazi 13 February 2017 – present
({{Age in years, months, weeks and days|2017-02-13}})  War in North-West Pakistan Operation Radd-ul-Fasaad 22 February 2017 – present
({{Age in years, months, weeks and days|2017-02-22}})  War in North-West Pakistan 1st Hama offensive 21 March – 28 April 2017
({{Age in months, weeks and days|2017-03-21|2017-04-28}}) The Syrian Army recaptured all lost territory as well as one captured in rebels previous offensive. Including the cities of Taybat al-Imam and Halfaya. Syrian Civil War Bohol clashes 11 April 2017 – 15 May 2017
({{Age in months, weeks and days|2017-04-11|2017-05-15}})  Moro conflict 
29113516 1958 Ottawa Rough Riders 13 Montreal Alouettes 34  1958 Hamilton Tiger-Cats 0 Toronto Argonauts 37  1958 BC Lions 34 Saskatchewan Roughriders 16  1958 Edmonton Eskimos 19 Calgary Stampeders 14  1959 Ottawa Rough Riders 28 Montreal Alouettes 12  
29113528 55 {{flagicon|AUS}} Cameron Smith (c) HK 2002 Melbourne Storm 73 {{flagicon|AUS}} Cooper Cronk HB 2004 Melbourne Storm 86 {{flagicon|NZL}} Adam Blair PR 2006 Melbourne Storm 93 {{flagicon|AUS}} Anthony Quinn WG 2007 Newcastle Knights 99 {{flagicon|NZL}} Sika Manu SR 2007 Melbourne Storm 
2927329 1959 Tee Tee Luce Myanmar 1961 Nilawan Pintong Thailand 1964 Augustine Nguyen Lac Hoa South Vietnam 1965 Jayaprakash Narayan India 1966 Kim Yong-ki South Korea 
29294010 800 m Belal Mansoor Belal Ali 1:47.37 3rd QF   1:49.03 800 m Yusuf Saad Kamel DNS DNS   Did not advance 1500 m Belal Mansoor Belal Ali 3:45.55 2nd QF   3:38.39 1500 m Yusuf Saad Kamel 3:58.80 13th   Did not advance 5,000 m Mahboob Ali Hasan Mahboob     13:47.86 SB 
2932039 1991–92 Lada Togliatti CIS &nbsp; 3 0 0 0 0 &nbsp; — — — 1994–95 San Jose Sharks NHL &nbsp; 16 2 0 2 2 &nbsp; — — — 1995–96 San Jose Sharks NHL &nbsp; 62 6 13 19 6 &nbsp; — — — 1996–97 San Jose Sharks NHL &nbsp; 78 16 25 41 40 &nbsp; — — — 1997–98 San Jose Sharks NHL &nbsp; 18 5 2 7 2 &nbsp; — — — 
29342037 3 6 Neel Jani Matech Competition 1:36.641 1:36.816 1:36.407 3 3 6 Nicolas Armindo Matech Competition 1:36.641 1:36.816 1:36.407 3 4 40 Maxime Martin Marc VDS Racing Team 1:35.954 1:36.833 1:36.410 4 4 40 Bas Leinders Marc VDS Racing Team 1:35.954 1:36.833 1:36.410 4 7 22 Warren Hughes Sumo Power GT 1:36.635 1:36.895 1:37.520 7 
29346333 1 10 Dario Franchitti Chip Ganassi Racing 25.0689 25.0843 50.1532 2 9 Scott Dixon Chip Ganassi Racing 25.0930 25.1258 50.2188 3 12 Will Power Team Penske 25.1577 25.1387 50.2964 4 6 Ryan Briscoe Team Penske 25.2009 25.1954 50.3963 5 4 Dan Wheldon Panther Racing 25.2505 25.1994 50.4499 
29441262 2019 Pamilya Ko Francisco "Chico" Mabunga ABS-CBN 2015 Kapamilya, Deal or No Deal Himself ABS-CBN 2012 Angelito: Ang Bagong Yugto Angelito Santos ABS-CBN 2012 Sarah G. Live Himself (Guest Co-Host) ABS-CBN 2011–2012 Angelito: Batang Ama Angelito Santos ABS-CBN 
2944413 Karlsruher 1991–92 Bundesliga 4 0 0 0 — — — — 4 Karlsruher 1992–93 Bundesliga 29 3 3 0 — — — — 32 Karlsruher 1993–94 Bundesliga 20 2 0 0 — — 4 0 24 Karlsruher 1994–95 Bundesliga 26 1 3 1 — — — — 29 Karlsruher 1995–96 Bundesliga 24 1 4 1 — — 3 0 31 
29454850 14 June 2010 MF Nathaniel Wedderburn Stoke City Free  30 June 2010 FW Tadhg Purcell Darlington Free (Bosman)  1 August 2010 DF Marcus Hall Coventry City Free  8 September 2010 FW Leon McKenzie Charlton Athletic Free  20 January 2011 FW Shaun Harrad Burton Albion £35,000  
2947435 Beveren 1992–93 Belgian First Division 14 5 — — — — — — 14 5 Beveren 1993–94 Belgian First Division 14 3 — — — — — — 14 3 Waregem 1994–95 Belgian Second Division 26 16 — — — — — — 26 16 Waregem 1995–96 Belgian First Division 14 3 — — — — — — 14 3 Genk 1996–97 Belgian First Division 24 4 — — — — — — 24 4 
29535140 Area C mine BHP Billiton Newman Pilbara 55 2003 Brockman mine Rio Tinto Tom Price Pilbara 8.7 1992 Brockman 4 mine Rio Tinto Tom Price Pilbara 22 2010 Channar mine Rio Tinto Paraburdoo Pilbara 20 1990 Christmas Creek mine FMG Nullagine Pilbara 16 2009 
29568825 2017–18 EFL Trophy Glanford Park Scunthorpe United 2–1 Grimsby Town 3 October 2017 2013–14 FA Cup Glanford Park Scunthorpe United 1–2 Grimsby Town 19 November 2013 2013–14 FA Cup Blundell Park Grimsby Town 0–0 Scunthorpe United 9 November 2013 2010–11 Championship Glanford Park Scunthorpe United 1–5 Hull City 5 February 2011 2010–11 Championship KCOM Stadium Hull City 0–1 Scunthorpe United 6 November 2010 
29595471 Anna and Elizabeth Anna und Elisabeth Frank Wisbar Germany Confessions of a Nazi Spy Confessions Of A Nazi Spy Anatole Litvak USA The Boat Is Full Das Boot ist voll Markus Imhoof Switzerland The Prince of Pappenheim Der Fürst von Pappenheim Richard Eichberg Germany The Incorrigible Barbara Die unverbesserliche Barbara Lothar Warneke Germany 
296565 1985 TB 5 5 72 138 52.2 935 6.8 3 8 56.9 40 233 5.8 1 21 158 4 3 1986 TB 14 14 195 363 53.7 2,282 6.3 8 13 65.5 74 425 5.7 5 47 326 11 9 1987 SF 8 3 37 69 53.6 570 8.3 10 0 120.8 26 190 7.3 1 3 25 0 0 1988 SF 11 3 54 101 53.5 680 6.7 3 3 72.2 27 184 6.8 1 13 75 5 3 1989 SF 10 3 64 92 69.6 1,001 10.9 8 3 120.8 38 126 3.3 2 12 84 2 1 
29663210 2003–04 Sault Ste. Marie Greyhounds OHL  55 3 6 9 41  — — — 2004–05 Sault Ste. Marie Greyhounds OHL  68 17 17 34 48  7 0 0 2005–06 Sault Ste. Marie Greyhounds OHL  66 12 16 28 78  4 2 5 2006–07 Sault Ste. Marie Greyhounds OHL  65 16 26 42 96  13 2 5 2007–08 Laredo Bucks CHL  64 22 37 59 112  11 2 4 
29708330 1966 {{sort name|George|Stone|dab=pitcher}} 5 Braves 1971 {{sort name|Ronald|Botica|nolink=1}} 2 Angels 1972 {{sort name|Fred|McGaha|nolink=1}} 8 Cardinals 1975 {{sort name|Richard|McAlister|nolink=1}} 17 Red Sox 1975 {{sort name|Randy|McGilberry}} 14 Royals 
29726800 CRB Ain Turk Oran Stade Chepou  IRB Maghnia Maghnia Stade Frères Nouali  IS Tighennif Tighennif Stade Hassaïne Lakhel de Tighennif 5,000 RC Relizane Relizane Stade Zougari Tahar 30,000 RCB Oued Rhiou Oued Rhiou Stade du Maghreb de Oued Rhiou  
2975315 1992–93 Nashoba Regional High School HS-MA &nbsp; 20 25 25 50  &nbsp; — — — 1997–98 Providence Bruins AHL &nbsp; 4 1 0 1 23 &nbsp; — — — 1997–98 Boston Bruins NHL &nbsp; 68 2 4 6 47 &nbsp; 6 0 0 1998–99 Boston Bruins NHL &nbsp; 80 3 7 10 63 &nbsp; 12 0 0 1999–2000 Boston Bruins NHL &nbsp; 81 3 9 12 120 &nbsp; — — — 
2975804 2005 Lior Autumn Flow 2005 Downsyde When the Dust Settles 2005 Ben Lee Awake is the New Sleep 2005 The Panics Sleeps Like a Curse 2005 Clare Bowditch & the Feeding Set What Was Left 
29785357 2 23 Sumo Power GT {{flagicon|GBR}} Peter Dumbreck
{{flagicon|DEU}} Michael Krumm Nissan 38 −9.032 4 2 Vitaphone Racing Team {{flagicon|BRA}} Enrique Bernoldi
{{flagicon|BRA}} Alexandre Negrão Maserati 38 −22.763 7 6 Matech Competition {{flagicon|CHE}} Neel Jani
{{flagicon|FRA}} Nicolas Armindo Ford 38 −27.390 8 1 Vitaphone Racing Team {{flagicon|ITA}} Andrea Bertolini
{{flagicon|DEU}} Michael Bartels Maserati 38 −38.750 11 40 Marc VDS Racing Team {{flagicon|BEL}} Maxime Martin
{{flagicon|BEL}} Bas Leinders Ford 38 −44.169 
2978667 1977–78 {{NED}} PSV Eindhoven 0–0 Bastia {{FRA}} {{flagicon|FRA}} Stade Armand Cesari, Bastia 15,000 1977–78 {{NED}} PSV Eindhoven 3–0 Bastia {{FRA}} {{flagicon|NED}} Philips Stadion, Eindhoven 27,000 1982–83 {{BEL}} Anderlecht 1–0 Benfica {{POR}} {{flagicon|BEL}} Heysel Stadium, Brussels 55,000 1988–89 {{ITA}} Napoli 2–1 VfB Stuttgart {{FRG}} {{flagicon|ITA}} Stadio San Paolo, Naples 83,000 1990–91 {{ITA}} Internazionale 2–0 Roma {{ITA}} {{flagicon|ITA}} San Siro, Milan 68,887 
29804272 Kings of Leon 11 December 2010 Come Around Sundown World Tour Coldplay 21 & 22 December 2008 Viva la Vida Tour New Kids on the Block 21 January 2009 New Kids on the Block: Live Pussycat Dolls 1 February 2009 Doll Domination Tour The Killers 20 February 2009 Day & Age World Tour 
29839210 2006–07 Medicine Hat Tigers WHL  2 0 0 0 2  — — — 2007–08 Medicine Hat Tigers WHL  48 8 9 17 21  5 0 1 2008–09 Medicine Hat Tigers WHL  71 24 48 72 20  11 2 5 2009–10 Medicine Hat Tigers WHL  72 24 51 75 34  12 2 6 2010–11 Medicine Hat Tigers WHL  69 46 70 116 36  15 12 13 
2984873 1999–00 Kitchener Rangers OHL  66 34 53 87 44  5 4 1 2000–01 Kitchener Rangers OHL  65 42 39 81 114  — — — 2001–02 Kitchener Rangers OHL  62 43 46 89 92  4 1 2 2002–03 Kitchener Rangers OHL  49 28 50 78 73  21 9 23 2003–04 Rochester Americans AHL  26 10 16 26 20  16 6 8 
29856459 2007–08 Chicago Steel USHL  59 14 27 41 28  7 2 4 2008–09 Chicago Steel USHL  58 32 50 82 76  — — — 2009–10 Yale University ECAC  34 5 29 34 12  — — — 2010–11 Yale University ECAC  36 12 33 45 18  — — — 2011–12 Yale University ECAC  34 7 29 36 8  — — — 
2994559 1992–93 Baltimore Skipjacks AHL  77 4 14 18 93  7 0 1 1993–94 Portland Pirates AHL  65 2 9 11 87  17 1 2 1994–95 Portland Pirates AHL  49 5 7 12 89  — — — 1994–95 Washington Capitals NHL  23 3 1 4 41  7 0 0 1995–96 Washington Capitals NHL  66 8 3 11 60  1 0 0 
29954918 Wayne Gretzky Edmonton Oilers 16 12 26 38 +20 4 Rick Middleton Boston Bruins 17 11 22 33 +13 6 Barry Pederson Boston Bruins 17 14 18 32 +10 21 Bob Bourne New York Islanders 20 8 20 28 +19 14 Mike Bossy New York Islanders 19 17 9 26 +7 10 
29960019 1 Garey Bies Rep {{age |1946|10|26}} Sister Bay 2000 2 Andre Jacque Rep {{age |1980|10|13}} Bellevue 2010 3 Alvin Ott Rep {{age |1949|6|19}} Forest Junction 1986 4 Chad Weininger Rep {{age |1972|2|7}} Green Bay 2010 5 Jim Steineke Rep {{age |1970|11|23}} Kaukauna 2010 
30055221 August 27, 2010 Los Angeles Temptation Seattle Mist 9:00 PM PST Showare Center Los Angeles 36 Seattle 32 September 10, 2010 Dallas Desire Chicago Bliss 9:00 PM CST Sears Center Chicago 14 Dallas 7 September 17, 2010 Baltimore Charm Philadelphia Passion 9:00 PM EST Sun National Bank Center Philadelphia 60 Baltimore 6 September 24, 2010 Tampa Breeze Orlando Fantasy 9:00 PM EST UCF Arena Tampa 47 Orlando 6 October 1, 2010 Tampa Breeze Baltimore Charm 9:00 PM EST 1st Mariner Arena Tampa 33 Baltimore 0 
3007311 2009–2010 Utah State 5–1 Stew Morrill 2008–2009 Utah State 4–1 Stew Morrill 2005–2006 Utah 4–1 Ray Giacoletti 2004–2005 Utah State 4–0 Stew Morrill 2003–2004 Utah 4–1 Rick Majerus 
30080964 29 November 2010 GK Park Sang-Cheol Chunnam Dragons  29 November 2010 MF Ko Cha-Won Chunnam Dragons  29 November 2010 DF Lee Yoon-Eui Gangwon FC  29 November 2010 FW Oh Won-Jong Gangwon FC  29 November 2010 FW Lee Sung-Jae Pohang Steelers  
30082198 35 Carquefou 0–1 Angers 36 Vertou 0–2 Nantes 40 La Roche-sur-Yon 1–3 Brest 43 Montceau Bourgogne 1–6 Grenoble 44 Lyon 2–1 Saint-Priest 
3008574 1997–98 IF Troja/Ljungby SWE.2 &nbsp; 28 3 2 5 2 &nbsp; — — — 1998–99 IF Troja/Ljungby SWE.2 &nbsp; 42 20 19 39 28 &nbsp; — — — 1999–2000 Modo Hockey J20 &nbsp; 1 2 2 4 2 &nbsp; — — — 1999–2000 Modo Hockey SEL &nbsp; 32 15 9 24 6 &nbsp; 13 5 3 2000–01 Modo Hockey SEL &nbsp; 48 16 16 32 14 &nbsp; 6 1 3 
3008964 1988–89 Nepean Raiders CJAHL  54 1 14 15 40  — — — 1993–94 Adirondack Red Wings AHL  58 4 12 16 87  9 2 6 1993–94 Detroit Red Wings NHL  5 1 0 1 4  — — — 1994–95 Adirondack Red Wings AHL  76 11 24 35 87  4 0 1 1994–95 Detroit Red Wings NHL  1 0 1 1 2  — — — 
30098144 2nd 30 Aug 2008 McNeil Stakes Caulfield G3 1200 m 55 M. Rodd 1st - Sugar Babe 7th 20 Sep 2008 Guineas Prelude Caulfield G3 1400 m 54 M. Rodd 1st - Fernandina Won 26 Sep 2008 Bill Stutt Stakes Moonee Valley G2 1600 m 55.5 M. Rodd 2nd - All American Won 11 Oct 2008 Caulfield Guineas Caulfield G1 1600 m 55.5 M. Rodd 2nd - Time Thief Won 25 Oct 2008 AAMI Vase Moonee Valley G2 2040 m 55.5 M. Rodd 2nd - Buffett 
30108855 2 November 2010 DF Lim Ha-Ram Yonsei University Draft (Priority) 2 November 2010 MF Park Hyun University of Incheon Draft (Priority) 2 November 2010 MF Lee Seung-Ki University of Ulsan Draft (Priority) 2 November 2010 FW Yoo Jong-Hyun Konkuk University Draft (Priority) 2 November 2010 FW Kim Dong-Sub Tokushima Vortis Draft (Priority) 
30139005 Irtysh Pavlodar 2009 Kazakhstan Premier League 19 2 3 0 2 0 - - 24 Irtysh Pavlodar 2010 Kazakhstan Premier League 30 1 1 0 - - - - 31 Irtysh Pavlodar 2011 Kazakhstan Premier League 0 0 0 0 - - - - 0 Irtysh Pavlodar 2012 Kazakhstan Premier League 25 0   - - - - 25 Irtysh Pavlodar 2013 Kazakhstan Premier League 27 4   4 1 - - 31 
30139281 Zhambyl 2007 21 2 1 0 – – – – 22 2 Taraz 2008 24 7 – – – – – – 24 7 Taraz 2009 26 4 3 0 – – – – 29 4 Taraz 2010 32 3 2 0 – – – – 34 3 Astana 2011 10 3 1 0 – – 1 0 12 3 
30139445 Zhetysu 2008 Kazakhstan Premier League 12 0   - - - - 12 0 Zhetysu 2009 Kazakhstan Premier League 24 0   - - - - 24 0 Zhetysu 2010 Kazakhstan Premier League 29 6   - - - - 29 6 Zhetysu 2011 Kazakhstan Premier League 27 5   - - - - 27 5 Zhetysu 2012 Kazakhstan Premier League 18 1 2 1 2 1 - - 22 3 
301608 1969 Rod Laver Margaret Court {{flagicon|Australia}} Roy Emerson
{{flagicon|Australia}} Rod Laver {{flagicon|Australia}} Margaret Court
{{flagicon|Australia}} Judy Tegart {{flagicon|GBR}} Ann Haydon
{{flagicon|AUS}} Frederick Stolle and
{{flagicon|Australia}} Margaret Court
{{flagicon|USA}} Marty Riessen 1970 Arthur Ashe Margaret Court {{flagicon|USA}} Robert Lutz
{{flagicon|USA}} Stan Smith {{flagicon|Australia}} Margaret Court
{{flagicon|Australia}} Judy Tegart Event not held 1971 Ken Rosewall Margaret Court {{flagicon|Australia}} John Newcombe
{{flagicon|Australia}} Tony Roche {{flagicon|Australia}} Evonne Goolagong Cawley
{{flagicon|Australia}} Margaret Court Event not held 1972 Ken Rosewall Virginia Wade {{flagicon|Australia}} Owen Davidson
{{flagicon|Australia}} Ken Rosewall {{flagicon|Australia}} Kerry Harris
{{flagicon|Australia}} Helen Gourlay Cawley Event not held 1973 John Newcombe Margaret Court {{flagicon|Australia}} Malcolm Anderson
{{flagicon|Australia}} John Newcombe {{flagicon|Australia}} Margaret Court
{{flagicon|UK}} Virginia Wade Event not held 
30174108 1998–99 Avangard Omsk RSL  5 0 0 0 0  &nbsp;— &nbsp;— &nbsp;— 1998–99 Avangard Omsk 2 RUS-3  32 14 21 35 22  &nbsp;— &nbsp;— &nbsp;— 1999–00 Avangard Omsk RSL  21 0 4 4 20  &nbsp;— &nbsp;— &nbsp;— 1999–00 Avangard Omsk 2 RUS-3  16 12 12 24 8  &nbsp;— &nbsp;— &nbsp;— 2000–01 Avangard Omsk RSL  32 4 7 11 26  &nbsp;— &nbsp;— &nbsp;— 
30174123 2009–10 Omskie Yastreby MHL  54 14 22 36 52  8 1 1 2009–10 Avangard Omsk KHL  1 0 0 0 2  — — — 2010–11 Omskie Yastreby MHL  5 1 4 5 4  — — — 2010–11 Avangard Omsk KHL  24 0 1 1 0  8 0 1 2011–12 Avangard Omsk KHL  53 9 9 18 20  19 2 1 
30204573 42nd Hill 41501 2.81 16,077 Zulu Bolata 41502 33.46 29,932 Sotho Harrismith 41503 136.14 6,345 Afrikaans Intabazwe 41504 0.82 3,685 Zulu Kestell 41505 13.54 889 Afrikaans 
30226152 March 13, 2006 Jacksonville United States Freebird Live March 17, 2006 Orlando United States House of Blues March 19, 2006 Norfolk United States Norva Theatre March 21, 2006 Philadelphia United States Theatre of Living Arts March 29, 2006 Cleveland United States House of Blues 
3024589 F-02 A-02 Murphy Dome AFS {{Coord|64|57|07|N|148|21|26|W|display=inline|name=Murphy Dome AFS F-02}} 744th Aircraft Control and Warning Squadron 11th AD 1951 1983 F-03
C-01 A-07 King Salmon AFS {{Coord|58|41|33|N|156|40|11|W|display=inline|name=King Salmon AFS F-03}} 705th Aircraft Control and Warning Squadron 10th AD 1951 1983 F-04 A-11 Tin City AFS {{Coord|65|34|33|N|168|00|43|W|display=inline|name=Tin City AFS F-04}} 710th Aircraft Control and Warning Squadron 11th AD 1953 1983 F-05 A-09 Cape Newenham AFS {{Coord|58|37|36|N|162|04|34|W|display=inline|name=Cape Newenham AFS F-05}} 794th Aircraft Control and Warning Squadron 10th AD 1954 1983 F-07 A-13 Cape Lisburne AFS {{Coord|68|52|12|N|166|09|00|W|display=inline|name=Cape Lisburne AFS F-07}} 711th Aircraft Control and Warning Squadron 11th AD 1953 1983 
30253609 1999–00 Huddinge IK Allsv  45 2 4 6 40  — — — 1999–00 Huddinge IK J20  — — — — —  4 1 0 2001–02 Huddinge IK Allsv  43 8 7 15 52  — — — 2002–03 Halmstad Hammers Allsv  41 9 5 14 66  — — — 2003–04 Halmstad Hammers Allsv  46 6 11 17 24  — — — 
30273544 1994–95 Stratford Cullitons MWJHL  47 52 56 108 64  — — — 1995–96 Stratford Cullitons MWJHL  1 0 0 0 0  — — — 1995–96 R.P.I. ECAC  32 1 1 2 90  — — — 1996–97 R.P.I. ECAC  34 9 18 27 56  — — — 1997–98 R.P.I. ECAC  35 8 27 35 63  — — — 
30292456 November 15, 2009 San Diego United States House of Blues November 21, 2009 Anaheim United States House of Blues November 28, 2009 Dallas United States House of Blues December 13, 2009 Tempe United States Marquee Theatre December 20, 2009 San Francisco United States Palace of Fine Arts Theatre 
3031518 Hamid Nater DF 30 Dec 1980 Raja Casablanca Akram Roumani DF 1 Apr 1978 Racing Genk Ouchla El Hocine DF 1 Dec 1970 FAR Rabat Adel Chbouki DF 3 May 1971 WAC Casablanca Fouzi El Brazi DF 22 May 1977 FC Twente 
30353199 100 m 11.38 Wang Huei-Chen {{TPE}} 1993 1993 Shanghai  1500 m 4:04.42 Qu Yunxia {{CHN}} 1993 1993 Shanghai  5000 m 15:32.71 Dong Yanmei {{CHN}} 2001 2001 Osaka  10,000 m 31:31.85 Masako Chiba {{JPN}} 1997 1997 Busan  Half marathon 1:11:18 Mizuki Noguchi {{JPN}} 2001 2001 Osaka  
30422849 16 Jan Gujarat Kensville Challenge India {{flagicon|IND}} Gaganjeet Bhullar (1) 12 New tournament 13 Mar Abierto Internacional Copa Antioquia Colombia {{flagicon|ARG}} Joaquín Estévez (1) 12 Co-sanctioned with the Tour de las Américas 3 Apr Barclays Kenya Open Kenya {{flagicon|ZAF}} Michiel Bothma (1) 12  8 May Allianz Challenge de France France {{flagicon|DEU}} Nicolas Meitinger (1) 12 New tournament 15 May Mugello Tuscany Open Italy {{flagicon|FRA}} Anthony Snobeck (2) 12 New tournament 
30499920 Chiwan {{large|{{lang|zh-cn|赤湾}}}}  {{small|79 80 M371 M489 N4 N8}} 0.00 0.00 Nanshan Shekou Port {{large|{{lang|zh-cn|蛇口港}}}}  {{small|22 70 79 80 113 122 204 226 233 331 332 M105 M106 M133 M371 M400 M409 M430 M448 N1 N4 N8}} 1.85 1.85 Nanshan Sea World {{large|{{lang|zh-cn|海上世界}}}} {{rint|shenzhen|12}} {{small|19 37 122 204 226 233 331 332 B816 M105 M106 M371 M400 M409 M430 M493 M519 N1 N4 Airport 10（机场10）}} 1.10 2.95 Nanshan Shuiwan {{large|{{lang|zh-cn|水湾}}}}  {{small|204 226 233 331 M105 M106 M241 M371 M400 M519 N1 N4}} 0.62 3.57 Nanshan Dongjiaotou {{large|{{lang|zh-cn|东角头}}}}  {{small|19 22 37 72 79 80 B609 B737 M241 M519 N8}} 1.20 4.77 Nanshan 
30524923 17 Apr Token Homemate Cup Mie 130,000,000 {{flagicon|JPN}} Tadahiro Takayama (4) 20 1 May The Crowns Aichi 120,000,000 {{flagicon|AUS}} Brendan Jones (10) 18 15 May Japan PGA Championship Nissin Cupnoodle Cup Hyogo 150,000,000 {{flagicon|JPN}} Hiroo Kawai (1) 22 22 May Totoumi Hamamatsu Open Shizuoka 100,000,000 {{flagicon|JPN}} Masanori Kobayashi (1) 18 29 May Diamond Cup Golf Chiba 120,000,000 {{flagicon|JPN}} Koumei Oda (5) 22 
30529441 2006 France WJC18-D1 18th  5 2 4 6 2 2007 France WJC18-D1 22nd  5 2 3 5 4 2007 France WJC-D1 17th  5 1 0 1 2 2008 France WJC-D1 19th  5 0 1 1 2 2009 France WJC-D1 15th  5 3 7 10 0 
30558415 1 S2 L4 Natalie Coughlin USA 1:00.59  2 S2 L5 Antje Buschschulte Germany 1:00.67  4 S1 L4 Reiko Nakamura Japan 1:01.22  5 S1 L3 Hanae Ito Japan 1:01.25  6 S2 L3 Kirsty Coventry Zimbabwe 1:01.45  
30587598 1991–92 Torpedo Ust-Kamenogorsk USSR &nbsp; 36 3 3 6 34 &nbsp; 6 0 0 1996–97 Ceske Budejovice Czech &nbsp; 41 1 3 4 53 &nbsp; — — — 1997–98 Metallurg Magnitogorsk RSL &nbsp; 43 15 16 31 56 &nbsp; 9 2 1 1998–99 Metallurg Magnitogorsk RSL &nbsp; 39 5 10 15 44 &nbsp; 16 1 2 1999–00 Metallurg Magnitogorsk RSL &nbsp; 24 4 2 6 16 &nbsp; 9 1 2 
30601165 2002–03 HC Sierre-Anniviers NLB  2 0 0 0 0  — — — 2003–04 HC Ambrì-Piotta NLA  28 0 1 1 8  7 0 0 2004–05 HC Ambrì-Piotta NLA  44 2 7 9 30  5 0 1 2008–09 Kloten Flyers NLA  45 2 27 29 32  15 2 3 2009–10 Kloten Flyers NLA  34 5 12 17 26  10 3 4 
30709648 J
A
N 2 1 Dhim Tharikita Thom Raju, Lissy Priyadarshan M. G. Radhakrishnan  F
E
B 16 18 Katturumbinum Kathu Kuthu Jagathy Sreekumar, Innocent Girish Kannur Rajan  F
E
B 21 19 Aalorungi Arangorungi Mammootty, Shobhana Thevalakkara Chellappan Jerry Amaldev  F
E
B 28 22 Vartha Mohanlal, Mammootty I. V. Sasi A. T. Ummer  M
A
R 1 23 Iniyum Kurukshetrum Mohanlal, Jagathy Sreekumar J. Sasikumar M. K. Arjunan  
30709724 F
E
B 15 6 Shapamoksham Jayan, Sheela Jesey G. Devarajan  F
E
B 22 7 Jeevikkan Marannupoya Sthree Sheela, Vijayasree K. S. Sethumadhavan M. S. Viswanathan  F
E
B 28 8 Chandrakantham Prem Nazir, Jayabharathi Sreekumaran Thampi M. S. Viswanathan  M
A
R 22 12 Pancha Thanthram Prem Nazir, Jayabharathi J. Sasikumar G. Devarajan  M
A
R 23 13 Rahasyarathri Prem Nazir, Jayabharathi A. B. Raj M. K. Arjunan  
30733202 Aldo Montoya World Wrestling Federation 1994–1997 {{flagcountry|US}}  American Dragon New Japan Pro Wrestling 2003–2004 {{flagcountry|US}}  Avatar World Wrestling Federation 1995 {{flagcountry|US}}  The Avenger Stampede Wrestling 1986 {{flagcountry|CAN}}  Battle Kat World Wrestling Federation 1990 {{flagcountry|US}}  
3075002 Palestine 1 St. Francis County 72372 &nbsp; Pangburn 1 White County 72121 &nbsp; Pankey 1 Pulaski County 72207 &nbsp; Pansy 1 Cleveland County 71665 &nbsp; Paragould 1 Greene County 72450 &nbsp; 
3076950 1 1 April 7:10&nbsp;p.m. Essendon Bombers Away Telstra Dome Lost by 27 12.9(81) to 17.6(108) 12 2 9 April 1:10&nbsp;p.m. Port Adelaide Power Home S.C.G. Lost by 26 11.14(80) to 15.16(106) 14 3 15 April 7:10&nbsp;p.m. Carlton Blues Away Telstra Dome Won by 7 12.9(81) to 11.8(74) 12 4 23 April 1:10&nbsp;p.m. Melbourne Demons Home S.C.G. Lost by 5 13.14(92) to 15.7(97) 12 5 29 April 7:10&nbsp;p.m. Geelong Cats Home Telstra Stadium Won by 22 15.17(107) to 13.7(85) 9 
30799191 Round 1 16 March Incheon United 3 – 0 Daejeon Citizen 4,256 Round 1 16 March Daegu FC 0 – 2 Gyeongnam FC 952 Round 1 16 March Pohang Steelers 2 – 0 Seongnam Ilhwa Chunma 7,211 Round 2 6 April Incheon United 0 – 0 Daegu FC 2,351 Round 2 6 April Daejeon Citizen 0 – 3 Pohang Steelers 4,785 
30813682 3 4 Alex Davison Stone Brothers Racing Ford FG Falcon 1:57.529 4 5 Mark Winterbottom Ford Performance Racing Ford FG Falcon 1:57.619 5 55 Paul Dumbrell Rod Nash Racing Ford FG Falcon 1:57.628 6 47 Tim Slade James Rosenberg Racing Ford FG Falcon 1:57.739 7 8 Jason Bright Brad Jones Racing Holden VE Commodore 1:57.779 
30860822 Youghal 1970 2 1-05 Youghal 1971 3 6-09 Youghal 1972 4 0-16 Youghal 1973 3 4-08 Youghal 1974 2 2-05 
30862870 1 File:Thabo Mbeki - World Economic Forum on Africa 2008.jpg Thabo Mbeki 9 July 2002 10 July 2003 {{flag|South Africa}} Southern Africa 2 File:Joaquim Chissano (cropped).jpg Joaquim Chissano 10 July 2003 6 July 2004 {{flag|Mozambique}} Southern Africa 3 File:Olusegun Obasanjo (Brasilia 6 September 2005).jpg Olusegun Obasanjo 6 July 2004 24 January 2006 {{flag|Nigeria}} West Africa 4 File:Sassou-Nguesso.jpg Denis Sassou Nguesso 24 January 2006 24 January 2007 {{flag|Republic of Congo}} Central Africa 5 File:John Kufuor 1-1.jpg John Kufuor 30 January 2007 31 January 2008 {{flag|Ghana}} West Africa 
30863436 1951 2,563,782 (#4) 13.64 {{Composition bar|96|625|hex={{National Centre of Independents and Peasants/meta/color}}}} – Roger Duchet 1956 3,259,782 (#2) 14.99 {{Composition bar|95|595|hex={{National Centre of Independents and Peasants/meta/color}}}} {{decrease}} 1 Roger Duchet 1958 4,092,600 (#2) 19.9 {{Composition bar|132|546|hex={{National Centre of Independents and Peasants/meta/color}}}} {{increase}} 37 Roger Duchet 1962 1,404,177 (#6) 7.66 {{Composition bar|28|491|hex={{National Centre of Independents and Peasants/meta/color}}}} {{decrease}} 104 Camille Laurens 1967 Ran together with UD-Ve Ran together with UD-Ve {{Composition bar|0|491|hex={{National Centre of Independents and Peasants/meta/color}}}} {{decrease}} 28 Camille Laurens 
30863831 Win 1897 Wimbledon Grass Reginald Doherty {{flagicon|UKGBI}} Herbert Baddeley
{{flagicon|UKGBI}} Wilfred Baddeley 6–4, 4–6, 8–6, 6–4 Win 1898 Wimbledon Grass Reginald Doherty {{flagicon|USA}} Clarence Hobart
{{flagicon|UKGBI}} Harold Nisbet 6–4, 6–4, 6–2 Win 1899 Wimbledon Grass Reginald Doherty {{flagicon|USA}} Clarence Hobart
{{flagicon|UKGBI}} Harold Nisbet 7–5, 6–0, 6–2 Win 1900 Wimbledon Grass Reginald Doherty {{flagicon|UKGBI}} Herbert Roper Barrett
{{flagicon|UKGBI}} Harold Nisbet 9–7, 7–5, 4–6, 3–6, 6–3 Win 1901 Wimbledon Grass Reginald Doherty {{flagicon|USA}} Dwight Davis
{{flagicon|USA}} Holcombe Ward 4–6, 6–2, 6–3, 9–7 
308675 1953 W.A.C. Bennett 48 19 {{Composition bar|28|48|hex={{Canadian party colour|BC|Social Credit}}}} - 274,771 37.75% +10.55% 300,372 45.54% 1956 W.A.C. Bennett 52 28 {{Composition bar|39|52|hex={{Canadian party colour|BC|Social Credit}}}} 39.3% 374,711 45.84% +8.09% 1960 W.A.C. Bennett 52 39 {{Composition bar|32|52|hex={{Canadian party colour|BC|Social Credit}}}} -17.9% 386,886 38.83% -7.01% 1963 W.A.C. Bennett 52 32 {{Composition bar|33|52|hex={{Canadian party colour|BC|Social Credit}}}} +3.1% 395,079 40.83% +2.00% 1966 W.A.C. Bennett 55 33 {{Composition bar|33|55|hex={{Canadian party colour|BC|Social Credit}}}} - 342,751 45.59% +4.76% 
3093268 HJK Helsinki 1997 Veikkausliiga 4 1 — — — — 4 1 HJK Helsinki 1998 Veikkausliiga 6 0 — — — — 6 0 HJK Helsinki 1999 Veikkausliiga 10 0 — — — — 10 0 HJK Helsinki 2000 Veikkausliiga 17 1 — — — — 17 1 HJK Helsinki 2001 Veikkausliiga 29 2 — — — — 29 2 
30936297 Snow Bowl Quad 4,877 ft 1,380 ft Fixed Quad Poma 1986 2018 Sold to Magic Mountain. Replaced by Snow Bowl Express Betwixed Double 3,235&nbsp;ft 649&nbsp;ft Fixed Double Borvig 1982 1995 Sold to Magic Mountain. Replaced by American Express Grizzly Double 4,765&nbsp;ft 1,317&nbsp;ft Fixed Double Borvig 1977 1999 Replaced by URSA Express Kidderbrook Quad 6,285&nbsp;ft 1,476&nbsp;ft Fixed Quad Poma 1989 2007 Sold to Jay Peak and Mont Saint-Sauveur Lower T-Bar 2,455&nbsp;ft 373&nbsp;ft T-Bar Hall 1963 1976  
3094781 2005 Outstanding Lead Actress in a Comedy Series Marcia Cross "Running to Stand Still" {{nom}} 2005 Outstanding Lead Actress in a Comedy Series Teri Hatcher "Move On" {{nom}} 2005 Outstanding Lead Actress in a Comedy Series Felicity Huffman "Pilot" {{won}} 2005 Outstanding Guest Actress in a Comedy Series Kathryn Joosten {{flat list| *"[[Love Is in the Air (Desperate Housewives)|Love Is in the Air]]" *"[[Live Alone and Like It (Desperate Housewives)|Live Alone and Like It]]"}} {{won}} 2005 Outstanding Guest Actress in a Comedy Series Lupe Ontiveros  {{nom}} 
30953315 {{AUS}} David Kranjec Brooklee Han   {{BRA}} Luiz Manella Isadora Williams   {{CZE}} Petr Coufal Elizaveta Ukolova  Karolina Prochazkova / Michal Ceska {{FIN}} Matthias Versluis Jenni Saarinen  Sara Aghai / Jussiville Partanen {{FRA}} Simon Hocquaux Laurine Lecavelier  Estelle Elizabeth / Romain Le Gac
Gabriella Papadakis / Guillaume Cizeron 
3097068 Sparta Rotterdam 1985–86 Eredivisie 12 0 — — — — — — 12 0 Sparta Rotterdam 1986–87 Eredivisie 34 0 — — — — — — 34 0 Sparta Rotterdam 1987–88 Eredivisie 34 0 — — — — — — 34 0 Sparta Rotterdam 1988–89 Eredivisie 31 0 — — — — — — 31 0 Sparta Rotterdam 1989–90 Eredivisie 34 0 — — — — — — 34 0 
30993221 Dan Spang Texas Stars 1 year, $525,000 Michael Ryder Boston Bruins 2 years, $7 million Vernon Fiddler Phoenix Coyotes 3 years, $5.4 million Adam Pardy Calgary Flames 2 years, $4 million Sheldon Souray Edmonton Oilers 1 year, $1.65 million 
31000876 Michael Kostka Rochester Americans 1 year, $525,000 Scottie Upshall Columbus Blue Jackets 4 years, $14 million Ed Jovanovski Phoenix Coyotes 4 years, $16.5 million Marcel Goc Nashville Predators 3 years, $5.1 million Nolan Yonkman Phoenix Coyotes 2 years, $1.4 million 
31013730 1 7 Carlos Checa Ducati 1098R 22 34:16.503 1 25 2 1 Max Biaggi Aprilia RSV4 Factory 22 +4.365 2 20 4 58 Eugene Laverty Yamaha YZF-R1 22 +11.266 5 13 5 33 Marco Melandri Yamaha YZF-R1 22 +11.293 8 11 8 66 Tom Sykes Kawasaki ZX-10R 22 +20.742 10 8 
3102129 1 Switzerland Neel Jani 1'54.441 1'54.521 -- 2'20.934 3'48.962 -- 2 France Alexandre Premat 1'54.580 1'55.288 -- 2'18.569 3'49.868 0.906 3 Ireland Ralph Firman 1'55.234 1'54.735 -- 2'18.851 3'49.969 1.007 4 Great Britain Robbie Kerr 1'54.963 1'55.009 -- -- 3'49.972 1.01 6 Netherlands Jos Verstappen 1'55.822 1'55.214 -- 2'18.874 3'51.036 2.074 
31027129 Bedford Blues Goldington Road 4,684 Bedford, Bedfordshire, England Cornish Pirates Mennaye Field 3,500 Penzance, Cornwall, England Doncaster Castle Park 3,075 Doncaster, South Yorkshire, England Esher Molesey Road Unknown Esher, England Llanelli Parc y Scarlets 14,870 Llanelli, Carmarthenshire, Wales 
31035865 Screen Awards Best Actor in Negative Role {{Won}} Prashant Narayanan  Stardust Awards Best Actor (Thriller/Action) {{won}} Emraan Hashmi  Stardust Awards Best Actress (Thriller/Action) {{nom}} Jacqueline Fernandez  Stardust Awards Stardust Award for Breakthrough Supporting Performance – Male {{nom}} Prashant Narayanan  Apsara Film & Television Producers Guild Awards Best Actor {{won}} Emraan Hashmi  
31107341 1 6 March 2011 A Vissel Kobe 0–1 19,913  7 24 April 2011 H Nagoya Grampus 3–0 42,767 Márcio Richardes {{goal|12}}, Tanaka {{goal|25}}, Haraguchi {{goal|78}} 8 29 April 2011 A Vegalta Sendai 0–1 18,456  9 3 May 2011 H Yokohama F. Marinos 0–2 47,056  10 7 May 2011 A Kashiwa Reysol 1–3 24,222 Haraguchi {{goal|90+2}} 
31154569 MF {{flagicon|IRL}} Eamonn Collins 18 August 1989 Chesterfield Saltergate  GK {{flagicon|ENG}} Roger Hansbury 26 August 1989 Halifax Town Layer Road  MF {{flagicon|IRL}} Mark Kinsella 26 August 1989 Halifax Town Layer Road  MF {{flagicon|ENG}} Robbie Devereux 13 October 1989 York City Layer Road  FB {{flagicon|USA}} Marcelle Bruce 10 November 1989 Cambridge United Layer Road  
31164674 Alessandro Di Pietro Writer & TV Presenter Annalisa Longo Eliminated 1st
on 26 February 2011 Alessia Filippi Olympic Silver Medalist Swimmer Raimondo Todaro Eliminated 2nd
on 5 March 2011 Giuseppe Povia Singer Nuria Santalucia Eliminated 3rd
on 12 March 2011 Paolo Rossi International Football Legend Vicky Martin Eliminated 5th
on 2 April 2011 Barbara Capponi Journalist & Newsreader Samuel Peron Eliminated 6th
on 23 April 2011 
31209111 1-1 2002.3.3 Hiroshima Big Arch Sanfrecce Hiroshima 1-5 1-2 2002.3.9 Haruno Stadium Vegalta Sendai 0-1 1-4 2002.3.31 Mizuho Athletic Stadium Nagoya Grampus Eight 3-0 1-5 2002.4.6 Hitachi Kashiwa Soccer Stadium Kashiwa Reysol 1-4 1-10 2002.7.24 Sapporo Dome Yokohama F. Marinos 2-3 a.e.t. (sudden death) 
31209114 1-1 2002.3.3 Sendai Stadium Tokyo Verdy 1969 1-0 1-2 2002.3.9 Haruno Stadium Consadole Sapporo 1-0 1-3 2002.3.16 Sendai Stadium Kashiwa Reysol 5-2 1-4 2002.3.31 Sendai Stadium Vissel Kobe 2-1 a.e.t. (sudden death) 1-5 2002.4.6 Kashima Soccer Stadium Kashima Antlers 2-0 
31209128 1-1 2002.3.2 Tokyo Stadium FC Tokyo 2-4 1-2 2002.3.9 Kashima Soccer Stadium Shimizu S-Pulse 0-1 a.e.t. (sudden death) 1-4 2002.3.31 Hiroshima Big Arch Sanfrecce Hiroshima 1-0 1-5 2002.4.6 Kashima Soccer Stadium Vegalta Sendai 0-2 1-8 2002.7.13 Kashima Soccer Stadium Tokyo Verdy 1969 1-0 
31209138 1-1 2002.3.3 International Stadium Yokohama Yokohama F. Marinos 0-1 1-2 2002.3.9 Saitama Stadium 2002 FC Tokyo 0-1 1-3 2002.3.16 Nihondaira Sports Stadium Shimizu S-Pulse 1-2 1-5 2002.4.7 Urawa Komaba Stadium Sanfrecce Hiroshima 4-1 1-6 2002.4.14 Miyagi Stadium Vegalta Sendai 2-1 a.e.t. (sudden death) 
31209141 1-1 2002.3.3 Ichihara Seaside Stadium Kyoto Purple Sanga 2-1 1-2 2002.3.9 Kobe Universiade Memorial Stadium Vissel Kobe 1-0 1-4 2002.3.31 Ichihara Seaside Stadium Yokohama F. Marinos 0-3 1-6 2002.4.14 Ichihara Seaside Stadium Shimizu S-Pulse 1-1 a.e.t. 1-8 2002.7.13 Matsumoto Stadium Nagoya Grampus Eight 3-4 a.e.t. (sudden death) 
31209145 1-2 2002.3.9 Hitachi Kashiwa Soccer Stadium Sanfrecce Hiroshima 2-1 1-3 2002.3.16 Sendai Stadium Vegalta Sendai 2-5 1-5 2002.4.6 Hitachi Kashiwa Soccer Stadium Consadole Sapporo 4-1 1-6 2002.4.13 Toyota Stadium Nagoya Grampus Eight 0-2 1-7 2002.4.20 Hitachi Kashiwa Soccer Stadium Vissel Kobe 1-0 a.e.t. (sudden death) 
31209246 2 2002.3.9 Kose Sports Stadium Avispa Fukuoka 0-2 4 2002.3.21 Yamagata Park Stadium Montedio Yamagata 3-2 5 2002.3.24 Kose Sports Stadium Cerezo Osaka 1-3 6 2002.3.30 Kose Sports Stadium Omiya Ardija 1-0 7 2002.4.6 Hiratsuka Athletics Stadium Shonan Bellmare 0-0 
31230043 1 9 Romain Grosjean DAMS 35 52:59.103 1 11 2 17 Giedo van der Garde Barwa Addax Team 35 +14.349 5 8 3 5 Jules Bianchi Lotus ART 35 +17.527 4 6 4 11 Michael Herck Scuderia Coloni 35 +21.502 3 5 5 18 Stefano Coletti Trident Racing 35 +41.228 16 4 
31301324 Andrew Ettingshausen FB Graham Steadman Willie Carne WG Paul Eastwood Brad Fittler CE Paul Newlove Laurie Daley FE/SO Garry Schofield (c) Allan Langer HB/SH Shaun Edwards 
31308466 2 65 Stefan Bradl Kalex 17 +0.187 2 20 4 15 Alex de Angelis MotoBi 17 +9.127 11 13 6 36 Mika Kallio Suter 17 +11.903 7 10 7 51 Michele Pirro Moriwaki 17 +12.568 3 9 9 29 Andrea Iannone Suter 17 +14.098 13 7 
31344838 Miami University Miami Chapter 1835–1873, 1951–2003, 2006– Oxford, Ohio Yale University Yale Chapter 1836–1873, 1888–1935, 1990– New Haven, Connecticut University of Michigan Peninsular Chapter 1846– Ann Arbor, Michigan University of Rochester Rochester Chapter 1850– Rochester, New York University of Alabama Alabama Chapter 1850–1857, 2012– Tuscaloosa, Alabama 
3137654 Antilhue 934 Village Los Lagos Choshuenco 625 Village Panguipulli Malalhue 2,566 Town Lanco Neltume 2,125 Town Panguipulli Niebla 2,202 Town Valdivia 
3139057 2000–01 Ilves SM-l  26 3 10 13 2  3 0 0 2001–02 Ilves SM-l  49 10 9 19 30  3 0 0 2003–04 Toronto Roadrunners AHL  58 19 25 44 27  3 0 1 2003–04 Edmonton Oilers NHL  13 0 1 1 4  — — — 2004–05 Edmonton Road Runners AHL  76 22 24 46 26  — — — 
3139255 AB3 AB Groupe commercial station French Cable networks in Wallonia, Brussels and Flanders – Satellite AB4 AB Groupe commercial station French Cable networks in Wallonia and Brussels – Satellite BRF TV Belgischer Rundfunk Regional public broadcaster for the German-speaking community of Belgium German Cable networks in the German-speaking community and surrounding Walloon municipalities Club RTL RTL Group commercial station French Cable networks in Wallonia, Brussels and Flanders – Satellite – (HD version on cable) La Une RTBF public broadcaster French Cable networks in Wallonia, Brussels and Flanders – Satellite – DVB-T in Wallonia and Brussels – (HD version on cable) 
31419398 Dec. 17 New Mexico Bowl University Stadium
University of New Mexico<br/ >Albuquerque, NM
2:00 pm ESPN Wyoming Cowboys (8–4)
Temple Owls (8–4) MWC
MAC Wyoming 15
Temple 37 Dec. 17 Famous Idaho Potato Bowl Bronco Stadium
Boise State University
Boise, ID
5:30 pm ESPN Ohio Bobcats (9–4)
Utah State Aggies (7–5) MAC
WAC Ohio 24
Utah State 23 Dec. 17 New Orleans Bowl Mercedes-Benz Superdome
New Orleans, LA
9:00 pm ESPN San Diego State Aztecs (8–4)
Louisiana–Lafayette Ragin' Cajuns (8–4) MWC
Sun Belt San Diego State 30
Louisiana–Lafayette 32 Dec. 21 Poinsettia Bowl SDCCU Stadium
San Diego, CA
8:00 pm ESPN #18 TCU Horned Frogs (10–2)
Louisiana Tech Bulldogs (8–4) MWC
WAC TCU 31
Louisiana Tech 24 Dec. 22 Maaco Bowl Las Vegas Sam Boyd Stadium
University of Nevada, Las Vegas
Whitney, NV
8:00 pm ESPN #7 Boise State Broncos (11–1)
Arizona State Sun Devils (6–6) MWC
Pac-12 Boise State 56
Arizona State 24 
31452873 1-1 2003.3.22 Kashima Soccer Stadium Urawa Red Diamonds 3-1 1-2 2003.4.5 Kashiwa no Ha Park Stadium Kashiwa Reysol 2-1 1-3 2003.4.13 Toyota Stadium Nagoya Grampus Eight 0-1 1-4 2003.4.19 Kashima Soccer Stadium Tokyo Verdy 1969 1-0 1-5 2003.4.26 Kashima Soccer Stadium F.C. Tokyo 2-0 
31452883 1-1 2003.3.22 Kashima Soccer Stadium Kashima Antlers 1-3 1-2 2003.4.6 Urawa Komaba Stadium Nagoya Grampus Eight 0-0 1-4 2003.4.19 Urawa Komaba Stadium Kyoto Purple Sanga 2-0 1-5 2003.4.26 Nagai Stadium Cerezo Osaka 4-6 1-7 2003.5.5 Saitama Stadium 2002 Shimizu S-Pulse 1-0 
31452890 1-1 2003.3.22 Ichihara Seaside Stadium Tokyo Verdy 1969 2-1 1-3 2003.4.12 Ichihara Seaside Stadium Vissel Kobe 0-3 1-5 2003.4.26 Ichihara Seaside Stadium Yokohama F. Marinos 3-1 1-6 2003.4.29 Ichihara Seaside Stadium Kyoto Purple Sanga 5-1 1-7 2003.5.5 Nagai Stadium Cerezo Osaka 3-1 
31452907 1-1 2003.3.22 Ichihara Seaside Stadium JEF United Ichihara 1-2 1-2 2003.4.5 Ajinomoto Stadium FC Tokyo 2-1 1-3 2003.4.12 Ajinomoto Stadium Yokohama F. Marinos 0-3 1-4 2003.4.19 Kashima Soccer Stadium Kashima Antlers 0-1 1-5 2003.4.26 Ajinomoto Stadium Oita Trinita 0-2 
31452923 1-2 2003.4.5 International Stadium Yokohama Vegalta Sendai 1-1 1-3 2003.4.12 Ajinomoto Stadium Tokyo Verdy 1969 3-0 1-4 2003.4.20 International Stadium Yokohama Oita Trinita 1-0 1-5 2003.4.26 Ichihara Seaside Stadium JEF United Ichihara 1-3 1-6 2003.4.29 International Stadium Yokohama Nagoya Grampus Eight 0-0 
31452926 1-1 2003.3.22 Mizuho Athletic Stadium Nagoya Grampus Eight 2-2 1-3 2003.4.13 Sendai Stadium Vegalta Sendai 1-3 1-5 2003.4.26 Nishikyogoku Athletic Stadium Kyoto Purple Sanga 3-0 1-6 2003.4.29 Shizuoka Stadium Kashiwa Reysol 0-2 1-7 2003.5.5 Saitama Stadium 2002 Urawa Red Diamonds 0-1 
31452930 1-1 2003.3.21 Shizuoka Stadium Yokohama F. Marinos 2-4 1-3 2003.4.12 Yamaha Stadium Urawa Red Diamonds 1-0 1-4 2003.4.19 Shizuoka Stadium Shimizu S-Pulse 2-0 1-5 2003.4.26 Yamaha Stadium Vissel Kobe 1-0 1-6 2003.4.29 Miyagi Stadium Vegalta Sendai 1-1 
31452954 1-1 2003.3.22 Mizuho Athletic Stadium Shimizu S-Pulse 2-2 1-2 2003.4.6 Urawa Komaba Stadium Urawa Red Diamonds 0-0 1-3 2003.4.13 Toyota Stadium Kashima Antlers 1-0 1-4 2003.4.19 Ajinomoto Stadium FC Tokyo 1-1 1-5 2003.4.26 Mizuho Athletic Stadium Kashiwa Reysol 1-1 
31452959 1-1 2003.3.23 Nishikyogoku Athletic Stadium Gamba Osaka 1-2 1-2 2003.4.6 Kobe Wing Stadium Vissel Kobe 2-0 1-3 2003.4.12 Kagoshima Kamoike Stadium Kashiwa Reysol 0-1 1-4 2003.4.19 Urawa Komaba Stadium Urawa Red Diamonds 0-2 1-5 2003.4.26 Nishikyogoku Athletic Stadium Shimizu S-Pulse 0-3 
31452964 1-1 2003.3.23 Nishikyogoku Athletic Stadium Kyoto Purple Sanga 2-1 1-5 2003.4.26 Sendai Stadium Vegalta Sendai 2-0 1-7 2003.5.5 Ajinomoto Stadium FC Tokyo 0-1 1-9 2003.5.17 Urawa Komaba Stadium Urawa Red Diamonds 4-4 1-11 2003.7.5 Kobe Wing Stadium Vissel Kobe 3-4 
31452976 1-1 2003.3.22 Nagai Stadium Vissel Kobe 0-1 1-3 2003.4.12 Nagai Stadium FC Tokyo 0-0 1-4 2003.4.20 Hitachi Kashiwa Soccer Stadium Kashiwa Reysol 2-3 1-5 2003.4.26 Nagai Stadium Urawa Red Diamonds 6-4 1-7 2003.5.5 Nagai Stadium JEF United Ichihara 1-3 
31452982 1-1 2003.3.22 Nagai Stadium Cerezo Osaka 1-0 1-2 2003.4.6 Kobe Wing Stadium Kyoto Purple Sanga 0-2 1-3 2003.4.12 Ichihara Seaside Stadium JEF United Ichihara 3-0 1-4 2003.4.19 Kobe Wing Stadium Vegalta Sendai 1-2 1-6 2003.4.29 Kobe Wing Stadium FC Tokyo 0-1 
31452995 1-1 2003.3.23 Sendai Stadium Vegalta Sendai 0-1 1-4 2003.4.20 International Stadium Yokohama Yokohama F. Marinos 0-1 1-5 2003.4.26 Ajinomoto Stadium Tokyo Verdy 1969 2-0 1-7 2003.5.5 Mizuho Athletic Stadium Nagoya Grampus Eight 1-2 1-9 2003.5.17 Ajinomoto Stadium FC Tokyo 1-2 
31453020 1 2003.3.15 Hakatanomori Athletic Stadium Avispa Fukuoka 2-1 3 2003.3.29 Sapporo Dome Consadole Sapporo 4-2 5 2003.4.9 Hiroshima Stadium Sanfrecce Hiroshima 0-3 7 2003.4.19 Todoroki Athletics Stadium Kawasaki Frontale 2-2 10 2003.5.5 Niigata Stadium Albirex Niigata 2-2 
31453046 1 2003.3.15 Kose Sports Stadium Sagan Tosu 1-1 3 2003.3.29 Kose Sports Stadium Shonan Bellmare 1-0 4 2003.4.5 Todoroki Athletics Stadium Kawasaki Frontale 1-1 5 2003.4.9 Kose Sports Stadium Albirex Niigata 1-3 7 2003.4.19 Kose Sports Stadium Consadole Sapporo 2-1 
31453053 1 2003.3.16 Saitama Stadium 2002 Omiya Ardija 4-1 2 2003.3.22 Niigata City Athletic Stadium Avispa Fukuoka 4-0 4 2003.4.5 Niigata City Athletic Stadium Consadole Sapporo 0-1 5 2003.4.9 Kose Sports Stadium Ventforet Kofu 3-1 6 2003.4.12 Niigata City Athletic Stadium Sanfrecce Hiroshima 1-2 
31453732 K.F. Barrington {{Cr|ENG}} Leg-Spin Bowler 7.4  47 2 2/47 23.50   N.J.N. Hawke {{Cr|AUS}} Right-Arm Medium-Fast Bowler 142.7 29 419 16 7/105 26.18 2  G.D. McKenzie {{Cr|AUS}} Right-Arm Fast Bowler 133.1 20 467 16 6/48 29.18 2  K.D. Walters {{Cr|AUS}} Right-Arm Medium Bowler 79 8 283 9 4/53 31.44   R.M. Cowper {{Cr|AUS}} Off-Spin Bowler 22 5 76 2 1/16 38.00   
31515049 45 {{flagicon|CAN}} {{sortname|Jonathan|Bernier}} G L 2006 Laval, Quebec first 23 {{flagicon|USA}} {{sortname|Dustin|Brown|dab=ice hockey}} – C RW R 2003 Ithaca, New York first 8 {{flagicon|CAN}} {{sortname|Drew|Doughty}} D R 2008 London, Ontario first 44 {{flagicon|USA}} {{sortname|Davis|Drewiske}} D L 2008 Hudson, Wisconsin first {{small|(did not play)}} 2 {{flagicon|USA}} {{sortname|Matt|Greene}} – A D R 2008 Grand Ledge, Michigan second {{small|([[2006 Stanley Cup Finals|2006]])}} 
31515464 18 June 1922 Gamla Ullevi 3,321 5–0 Svenska Serien 1 May 1932 Gamla Ullevi 11,573 6–1 Allsvenskan 11 September 1932 Gamla Ullevi 7,869 7–2 Allsvenskan 3 September 1933 Gamla Ullevi 7,258 5–0 Allsvenskan 15 November 1936 Gamla Ullevi 9,540 2–1 Allsvenskan 
31524100 {{gold medal}} Alexander Vinokourov Cycling Men's road race {{dts|28 July}} {{gold medal}} Olga Rypakova Athletics Women's triple jump {{dts|5 August}} {{gold medal}} Serik Sapiyev Boxing Men's welterweight {{dts|12 August}} {{silver medal}} Adilbek Niyazymbetov Boxing Men's light heavyweight {{dts|12 August}} {{bronze medal}} Daniyal Gadzhiyev Wrestling Men's Greco-Roman 84 kg {{dts|6 August}} 
31524447 1 4 Jonathan Rea Honda CBR1000RR 22 35:46.486 5 25 2 1 Max Biaggi Aprilia RSV4 Factory 22 +0.739 6 20 3 7 Carlos Checa Ducati 1098R 22 +3.572 1 16 4 33 Marco Melandri Yamaha YZF-R1 22 +9.508 8 13 6 11 Troy Corser BMW S1000RR 22 +11.120 10 10 
31524620 1911 All Manila Manila 1912 Bohemian Sporting Club Manila 1913 Bohemian Sporting Club Manila 1915 Bohemian Sporting Club Manila 1916 Bohemian Sporting Club Manila 
31540753 August 26, 2011 Minnesota Valkyrie Green Bay Chill 9:00 PM CT Resch Center Minnesota 28 Green Bay 25 Recap September 9, 2011 Tampa Breeze Philadelphia Passion 10:00 PM ET Sun National Bank Center Philadelphia 48 Tampa 0 Recap September 16, 2011 Orlando Fantasy Baltimore Charm 10:00 PM ET 1st Mariner Arena Orlando 36 Baltimore 12 Recap September 17, 2011 Tampa Breeze Toronto Triumph 8:00 PM ET Ricoh Coliseum Tampa 48 Toronto 14 Recap September 23, 2011 Baltimore Charm Cleveland Crush 10:00 PM ET Quicken Loans Arena Baltimore 20 Cleveland 19 Recap 
31589161 Partizan Minsk {{Hs|1}}Premier League, 12 SKVICH Minsk 2 DSK Gomel 3 Granit Mikashevichi 4 Khimik Svetlogorsk 8 
31603512 CB {{flagicon|ENG}} Brian Honeywood 10 August 1968 Brentford Griffin Park  CB {{flagicon|ENG}} Colin Moughton 10 August 1968 Brentford Griffin Park  FB {{flagicon|ENG}} Owen Simpson 10 August 1968 Brentford Griffin Park  FB {{flagicon|ENG}} Gerry Perryman 24 August 1968 Chester Sealand Road  WG {{flagicon|ENG}} Terry Dyson 24 August 1968 Chester Sealand Road  
31610885 3 Joe Canning Galway 2-7 13 Dubln 3 Niall Burke Galway 1-10 13 Cork 5 Joe Canning Galway 0-12 12 Dublin 8 Eoin Larkin Kilkenny 1-7 10 Galway 8 Niall Burke Galway 0-10 10 Dublin 
31617379 3 2006.03.18 Hiroshima Big Arch Stadium Sanfrecce Hiroshima 4-1 4 2006.03.21 Saitama Stadium Cerezo Osaka 3-0 6 2006.04.02 Saitama Stadium Nagoya Grampus 0-0 7 2006.04.09 Hakatanomori Football Stadium Avispa Fukuoka 1-0 8 2006.04.15 Saitama Stadium Kyoto Sanga 3-0 
31627667 Europeans Carolina Kostner Adelina Sotnikova Elizaveta Tuktamysheva Details Four Continents Mao Asada Akiko Suzuki Kanako Murakami Details Junior Worlds Elena Radionova Yulia Lipnitskaya Anna Pogorilaya Details Worlds Kim Yuna Carolina Kostner Mao Asada Details Skate America Ashley Wagner Christina Gao Adelina Sotnikova Details 
31645508 2009–10 CSKA Moscow KHL &nbsp; 10 0 0 0 0 &nbsp; &nbsp;— &nbsp;— &nbsp;— 2010–11 CSKA Moscow KHL &nbsp; 23 0 2 2 4 &nbsp; &nbsp;— &nbsp;— &nbsp;— 2011–12 CSKA Moscow KHL &nbsp; 6 0 0 0 2 &nbsp; 5 0 1 2012–13 CSKA Moscow KHL &nbsp; 44 4 5 9 6 &nbsp; 7 0 0 2013–14 Grand Rapids Griffins AHL &nbsp; 49 3 15 18 14 &nbsp; &nbsp;— &nbsp;— &nbsp;— 
31703820 1 58 Eugene Laverty Yamaha YZF R1 18 31:09.584 2 25 2 1 Max Biaggi Aprilia RSV4 Factory 18 +1.575 1 20 4 33 Marco Melandri Yamaha YZF R1 18 +3.255 5 13 6 4 Jonathan Rea Honda CBR1000RR 18 +12.371 3 10 7 11 Troy Corser BMW S1000RR 18 +13.280 4 9 
31750372 Ferdinand Ravena 1 Forward 6"1' University of the East Franz Pumaren 5 Guard 5"9' De La Salle University Renato Agustin 6 Guard 5"11' Lyceum of the Philippines Allan Caidic 8 Forward 6"2' University of the East Samboy Lim 9 Forward 6"0' Letran College 
31781678 April 10, 2010 Saitama Saitama Super Arena April 11, 2010 Saitama Saitama Super Arena April 17, 2010 Nagoya Nippon Gaishi Hall April 18, 2010 Nagoya Nippon Gaishi Hall April 29, 2010 Niigata Toki Messe Niigata 
31809462 23 Calais 1–2 Angers 25 Evry 1–1 (a.e.t)
3−4 pen. Drancy 26 Gravelines 1–2 (a.e.t) Le Havre 29 Versailles 2–0 Alfortville 30 Feignies 1–1 (a.e.t)
0−3 pen. Quevilly 
31810674 1 January 2007 Andreas Granqvist {{flagicon|SWE}} Helsingborg Wigan Athletic Three-month loan 1 January 2007 Zheng Zhi {{flagicon|CHN}} Shandong Luneng Charlton Athletic Five-month loan 2 January 2007 Henrik Larsson {{flagicon|SWE}} Helsingborg Manchester United Ten-week loan 2 January 2007 Ben Alnwick {{flagicon|ENG}} Sunderland Tottenham Hotspur £900k 2 January 2007 Liam Lawrence {{flagicon|ENG}} Sunderland Stoke City £500k 
31832684 1 55 Paul Dumbrell Ford FG Falcon Rod Nash Racing 1:21.6035 3 33 Lee Holdsworth Holden VE Commodore Garry Rogers Motorsport 1:21.7701 4 2 Garth Tander Holden VE Commodore Holden Racing Team 1:21.7799 5 5 Mark Winterbottom Ford FG Falcon Ford Performance Racing 1:21.8533 6 1 James Courtney Holden VE Commodore Holden Racing Team 1:21.8581 
31832862 3 15 Rick Kelly Holden VE Commodore Kelly Racing 1:35.9807 1:35.1252 4 9 Shane van Gisbergen Ford FG Falcon Stone Brothers Racing 1:36.0896 1:35.2582 6 2 Garth Tander Holden VE Commodore Holden Racing Team 1:36.9763 1:35.8709 8 11 Greg Murphy Holden VE Commodore Kelly Racing 1:36.8028 1:38.3523 10 12 Dean Fiore Ford FG Falcon Triple F Racing 1:36.8624 no time 
31858605 2012 Warriors Orochi 3 Abe no Seimei  2014 Dengeki Bunko: Fighting Climax Kojou Akatsuki  2014 Super Smash Bros. for Nintendo 3DS and Wii U Reflet  2015 Ikemen Sengoku: Toki o Kakeru Koi Sanada Yukimura  2016 Sengoku Basara: Sanada Yukimura-Den Sanada Nobuyuki  
31859419 110 Rage Against the Machine "Killing in the Name" Sony {{Dts|format=dmy|2009|12|26}} 2 {{Sort|110.1|re}} Lady Gaga "Bad Romance" Universal {{Dts|format=dmy|2010|1|9}} 1 111 Iyaz "Replay" Warner {{Dts|format=dmy|2010|1|16}} 2 112 Owl City "Fireflies" Universal {{Dts|format=dmy|2010|1|30}} 3 113 Helping Haiti "Everybody Hurts" Sony {{Dts|format=dmy|2010|2|20}} 1 
31868402 18 Gianluca Curci {{flagicon|ITA}} GK {{birth date and age2|2012|6|30|df=yes|1985|7|12}} Sampdoria 2011 3 0 2 Cicinho {{flagicon|BRA}} RB {{birth date and age2|2012|6|30|df=yes|1980|6|24}} Real Madrid 2007 62 3 5 Gabriel Heinze {{flagicon|ARG}} CB / LB {{birth date and age2|2012|6|30|df=yes|1978|4|19}} Marseille 2011 30 0 77 Marco Cassetti {{flagicon|ITA}} RB {{birth date and age2|2012|6|30|df=yes|1977|5|29}} Lecce 2006 143 4 11 Rodrigo Taddei {{flagicon|BRA}} LM / RM / AM {{birth date and age2|2012|6|30|df=yes|1980|3|6}} Siena 2005 201 23 
31917953 127 Glee Cast Glee: The Music, Volume 1 Sony {{Dts|format=dmy|2010|2|27}} 2 129 Gorillaz Plastic Beach EMI {{Dts|format=dmy|2010|3|20}} 1 130 Glee Cast Glee: The Music, Volume 2 Sony {{Dts|format=dmy|2010|3|27}} 2 133 Glee Cast Glee: The Music, The Power of Madonna Sony {{Dts|format=dmy|2010|5|8}} 1 140 Glee Cast Glee: The Music, Journey to Regionals Sony {{Dts|format=dmy|2010|6|26}} 1 
319251 Taoiseach  Charles Haughey 1979–81 Minister for Tourism and Transport  George Colley 1979–80 Minister for Agriculture  Ray MacSharry 1979–81 Minister for the Environment  Sylvester Barrett 1979–80 Minister for Foreign Affairs  Brian Lenihan 1979–81 
319257 Minister for External Affairs  Frank Aiken 1965–66 Minister for Agriculture  Charles Haughey 1965–66 Minister for Education  George Colley 1965–66 Minister for Industry and Commerce  Patrick Hillery 1965–66 Minister for Justice  Brian Lenihan 1965–66 
31945058 1 7 Carlos Checa Ducati 1098R 21 38:46.915 1 25 3 50 Sylvain Guintoli Ducati 1098R 21 +4.093 5 16 4 2 Leon Camier Aprilia RSV4 Factory 21 +8.885 11 13 5 58 Eugene Laverty Yamaha YZF R1 21 +15.718 4 11 6 66 Tom Sykes Kawasaki ZX 10R 21 +20.477 10 10 
31970348 {{gold medal}} Ezekiel Kemboi Athletics Men's 3000 m steeplechase {{dts|5 August}} {{gold medal}} David Rudisha Athletics Men's 800 m {{dts|9 August}} {{silver medal}} Sally Kipyego Athletics Women's 10,000 m {{dts|3 August}} {{silver medal}} Priscah Jeptoo Athletics Women's marathon {{dts|5 August}} {{silver medal}} Vivian Cheruiyot Athletics Women's 5000 m {{dts|10 August}} 
32011726 4 7 {{flagicon|NGR}} Nduka Ozokwo 25 Dec 1988 Enugu MF 28 3 1  29 3 4  {{Tooltip|→|Continued from}} previous season. 5 8 {{flagicon|ARG}} Christian Zurita 24 Jul 1979 Salta MF 25    25  9  {{Tooltip|2011 ST|2011 Summer transfer from}} Gaziantepspor. 8 13 {{flagicon|TUN}} Wissem Ben Yahia 9 Sep 1984 Tunis MF 25 2   25 2 8  {{Tooltip|2011 ST|2011 Summer transfer from}} Club Africain. 13 19 {{flagicon|TUR}} Mehmet Polat 8 Jun 1978 Gaziantep DF 4    4  2  {{Tooltip|→|Continued from}} previous season. 16 50 {{flagicon|FRA}} Yannick Kamanan 5 Oct 1981 Saint-Pol FW 8    8    {{Tooltip|2011 ST|2011 Summer transfer from}} Sivasspor. 
32017886 8 July DF Liam Cooper Hull City June 2012 19 July MF Damien Johnson Plymouth Argyle June 2012 23 November FW Jon Parkin Cardiff City January 2012 12 December FW Robbie Simpson Oldham Athletic Loan Ended 28 September DF Liam Ridehalgh Swindon Town Loan Ended 
32031061 8 July 2011 Liam Cooper Huddersfield Town 30 November 2011  2 August 2011 Kevin Kilbane Derby County 29 November 2011  10 August 2011 Kamel Ghilas Stade de Reims 18 May 2012  12 August 2011 Will Atkinson Plymouth Argyle 12 January 2012  31 August 2011 Jamie Devitt Bradford City January 2012  
32058651 {{gold medal}} Wojtek Czyz Athletics Men's 100m T42 {{gold medal}} Wojtek Czyz Athletics Men's 200m T42 {{gold medal}} Wojtek Czyz Athletics Men's long jump F42 {{gold medal}} Marianne Buggenhagen Athletics Women's shot put F54/55 {{gold medal}} Michael Teuber Cycling Men's bicycle road race/time trial LC4 
3206277 2001–02 Wilkes-Barre/Scranton Penguins AHL &nbsp; 78 2 18 20 99 &nbsp; — — — 2002–03 Wilkes-Barre/Scranton Penguins AHL &nbsp; 71 4 14 18 105 &nbsp; 6 0 0 2002–03 Pittsburgh Penguins NHL &nbsp; 6 0 0 0 2 &nbsp; — — — 2003–04 Pittsburgh Penguins NHL &nbsp; 79 1 9 10 127 &nbsp; — — — 2003–04 Wilkes-Barre/Scranton Penguins AHL &nbsp; 3 0 0 0 2 &nbsp; 24 0 4 
3208856 2005–06 Hartford Wolf Pack AHL  2 2 1 3 0  — — — 2005–06 New York Rangers NHL  68 30 17 47 32  4 1 0 2006–07 New York Rangers NHL  79 22 18 40 30  10 0 1 2007–08 New York Rangers NHL  62 7 10 17 22  3 0 0 2008–09 New York Rangers NHL  28 4 5 9 16  — — — 
32105343 24 June 2011 MF Simon Hackney Colchester United Free Transfer  24 June 2011 MF Andrew Tutte Manchester City Free Transfer  4 July 2011 DF Marc Twaddle Falkirk Free Transfer  15 July 2011 DF Neal Trotman Preston North End Free Transfer  21 June 2011 MF Matt Done Barnsley Undisclosed  
32186095 {{sortname|Nenad|Krstić}} {{dts||June|22}} CSKA Moscow Russia Boston Celtics Unrestricted free agent No  {{sortname|David|Andersen}} {{dts||June|28}} Montepaschi Siena Italy New Orleans Hornets Under contract until 2012 No  {{sortname|Hilton|Armstrong}} {{dts||June|30}} ASVEL Basket France Atlanta Hawks Unrestricted free agent No  {{sortname|DaJuan|Summers}} {{dts||July|3}} Montepaschi Siena Italy Detroit Pistons Unrestricted free agent No  {{sortname|Timofey|Mozgov}}* {{dts||July|21}} BC Khimki Russia Denver Nuggets Under contract until 2013 Yes  
32195147 1991 Bart Voskamp Leon van Bon Servais Knaven 1996 Erik Dekker Danny Nelissen Jelle Nijdam 1997 Erik Breukink Erik Dekker Servais Knaven 1998 Patrick Jonker Servais Knaven Wilco Zuijderwijk 2000 Erik Dekker Servais Knaven Maarten Den Bakker 
32204061 University of Warwick 220 {{fontcolor|white|125}} University of Edinburgh 345 4 July 2011 Trinity College, Cambridge {{fontcolor|white|105}} 225 University of Birmingham 330 11 July 2011 Worcester College, Oxford 180 190 Clare College, Cambridge 370 18 July 2011 Homerton College, Cambridge 200 205 Balliol College, Oxford 405 1 August 2011 Christ Church, Oxford 270 {{fontcolor|white|105}} University of Bath 375 8 August 2011 
32265727 University of Middlesex 215 200 University of Exeter 1 November 1995 London School of Economics 260 {{fontcolor|white|155}} Keble College, Oxford 8 November 1995 University of Lancaster 205 170 University of Wales, Swansea 15 November 1995 University of Surrey {{fontcolor|white|155}} 175 Liverpool John Moores University 22 November 1995 Gonville & Caius College, Cambridge 195 210 University College, Oxford 29 November 1995 
32277391 21 June 2011 DF Cedric Evina Oldham Athletic Free transfer  21 June 2011 FW Paul Hayes Preston North End Free transfer  23 June 2011 MF Mikel Alonso Tenerife Free transfer  1 July 2011 MF Ruben Bover Halesowen Town Undisclosed fee 1 August 2011 GK Ben Hamer Reading Undisclosed fee  
32285364 University of Bristol 245 185 Victoria University of Manchester 2 September 1998 Balliol College, Oxford 195 200 University of Durham 9 September 1998 The Open University 350 {{fontcolor|white|145}} University of Lancaster 16 September 1998 Harris Manchester College, Oxford 185 200 Selwyn College, Cambridge 23 September 1998 Birkbeck, University of London 300 {{fontcolor|white|110}} University of Warwick 30 September 1998 
32297767 Aberavon Talbot Athletic Ground 3,000 Port Talbot, Neath Port Talbot, Wales Bedford Blues Goldington Road 4,684 Bedford, Bedfordshire, England Cornish Pirates Mennaye Field 3,500 Penzance, Cornwall, England Doncaster Castle Park 3,075 Doncaster, South Yorkshire, England Esher Molesey Road Unknown Esher, England 
32326126 5 LMP1 13 Rebellion Racing {{flagicon|ITA}} Andrea Belicchi
{{flagicon|FRA}} Jean-Christophe Boullion Lola B10/60 {{Michelin}} 213 6 LMP1 12 Rebellion Racing {{flagicon|SUI}} Neel Jani
{{flagicon|FRA}} Nicolas Prost Lola B10/60 {{Michelin}} 213 10 LMP2 33 Level 5 Motorsports {{flagicon|USA}} Scott Tucker
{{flagicon|FRA}} Christophe Bouchut
{{flagicon|POR}} João Barbosa Lola B11/40 {{Michelin}} 201 13 GTE
Pro 71 AF Corse {{flagicon|BRA}} Jaime Melo
{{flagicon|FIN}} Toni Vilander Ferrari 458 Italia GT2 {{Michelin}} 198 14 LMP2 42 Strakka Racing {{flagicon|GBR}} Nick Leventis
{{flagicon|GBR}} Danny Watts
{{flagicon|GBR}} Jonny Kane HPD ARX-01d {{Michelin}} 197 
32378953 1 10 Dario Franchitti Chip Ganassi Racing 114 54:47.2787 2 110 27 2 9 Scott Dixon Chip Ganassi Racing 114 + 0.0527 7 1 20 3 12 Will Power Team Penske 114 + 0.2064 3 0 18 4 77 Alex Tagliani Sam Schmidt Motorsports 114 + 0.4109 1 1 17 6 6 Ryan Briscoe Team Penske 114 + 1.4337 9 0 14 
32420670 2009 Patham Nilayile Theevandi Jayasurya, Meera Nandan, Innocent, Anoop Menon Joshi Mathew 1995 Indian Military Intelligence Murali, Ganeshan, Sukumaran, M. G. Soman, Manjula Vijayakumar, Babu Antony T S Suresh Babu 1993 Arthana Murali, Radhika, Priya Raman, Vineeth I.V.Sasi 1993 Gandharvam Mohanlal, Kanchan, Jagathy Sreekumar, Devan, Subair, Kaviyoor Ponnamma Sangeeth Sivan 1993 Akashadoothu Murali, Madhavi, Nedumudi Venu, Subair, Jagathi Sreekumar, N. F. Varghese Sibi Malayil 
32467567 1 2 11 Darrell Waltrip Johnson Hodgdon Racing Buick 188 54 3:11:19 180 2 4 44 Terry Labonte Hagan Enterprises Buick 188 21 +1 car length 175 3 1 28 Benny Parsons Ranier-Lundy Racing Pontiac 188 84 +3 car lengths 175 4 15 42 Kyle Petty Petty Enterprises Pontiac 188 0 +4 car lengths 160 7 24 2 Tim Richmond Jim Stacy Racing Buick 186 0 +2 laps 0 
32469061 1986 Mazda 323 4WD Ingvar Carlsson MON
Ret SWE
Ret POR KEN FRA GRE NZL ARG FIN
Ret CIV ITA GBR
10 USA  70th 1 11th 9 1986 Mazda 323 4WD Rod Millen MON SWE POR KEN FRA GRE NZL
7 ARG FIN CIV ITA GBR USA
10  44th 5 11th 9 1987 Mazda 323 4WD Timo Salonen MON
Ret SWE
1 POR
Ret KEN FRA GRE USA NZL ARG FIN
Ret CIV ITA GBR  14th 20 6th 52 1987 Mazda 323 4WD Ingvar Carlsson MON
4 SWE
4 POR
Ret KEN FRA GRE USA NZL ARG
Ret FIN
Ret CIV ITA GBR  17th 20 6th 52 1987 Mazda 323 4WD Rod Millen MON SWE POR KEN FRA GRE USA
4 NZL ARG FIN CIV ITA GBR  26th 10 6th 52 
32508936 Bankstown Girls High School Bankstown Canterbury-Bankstown 1960 Website   Bankstown Senior College Bankstown Canterbury-Bankstown 1992 Website Includes IEC  Bass High School Bass Hill Canterbury-Bankstown 1959 Website Intellectual disability support.  Baulkham Hills High School Baulkham Hills The Hills 1971 Website Fully selective. Autism and intellectual disability support.  Birrong Girls High School Birrong Canterbury-Bankstown 1957 Website   
3251005 1984–85 New York Rangers NHL  5 0 2 2 2  3 0 0 1985–86 New York Rangers NHL  74 13 20 33 52  16 3 4 1986–87 New York Rangers NHL  38 6 14 20 22  — — — 1986–87 Washington Capitals NHL  30 10 12 22 26  7 2 2 1987–88 Washington Capitals NHL  80 9 23 32 35  14 4 4 
32562294 1992 Pattathu Raani Shanthi Tamil  1994 Alibaba Aradajanu Dongalu Phoolan Devi Telugu  1994 Vaddu Bava Thappu Manju Telugu  1995 Real Hero  Telugu  1995 Thirumoorthy Uma Tamil  
32642114 2 6 Will Davison Ford FG Falcon Ford Performance Racing 56.2865 s 5 15 Rick Kelly Holden VE Commodore Kelly Racing 56.7047 s 6 21 Karl Reindler Holden VE Commodore Britek Motorsport 56.7185 s 7 1 James Courtney Holden VE Commodore Holden Racing Team 56.7224 s 8 4 Alex Davison Ford FG Falcon Stone Brothers Racing 56.7279 s 
32646832 KKAA 1560 AM Aberdeen, South Dakota KKAM 1340 AM Lubbock, Texas KKAQ 1460 AM Thief River Falls, Minnesota KKAY 1590 AM White Castle, Louisiana KKBE 910 AM Roswell, New Mexico 
32692126 1892–93 Winnipeg Victorias MNWHA &nbsp; 9 10 1 11 &nbsp; 1893–94 Winnipeg Victorias MNWHA &nbsp; 5 8 1 9 &nbsp; 1894–95 Winnipeg Victorias MNWHA &nbsp; 3 3 3 6 &nbsp; 1895–96 Winnipeg Victorias MNWHA &nbsp; 5 3 5 8 &nbsp; 1896–97 Winnipeg Victorias MNWHA &nbsp; 5 3 2 5 &nbsp; 
3273072 2002 Sydney, NSW Sydney Showground, Olympic Park April, Saturday 20th & Sunday 21st 2003 Sydney, NSW Wharf 8 Function Center, King Street Wharf April, Saturday 5th & Sunday 6th 2003 Brisbane, QLD RNA Showgrounds September, Saturday 13th & Sunday 14th 2004 Sydney, NSW Wharf 8 Function Center, King Street Wharf May, Saturday 1st & Sunday 2nd 2004 Brisbane, QLD RNA Showgrounds September, Saturday 18th & Sunday 19th 
32758313 WEC 53: Henderson vs. Pettis Benson Henderson vs. Anthony Pettis Eddie Wineland Shane Roller $10,000 WEC 52: Faber vs. Mizugaki Cub Swanson vs. Mackens Semerzier Erik Koch Urijah Faber $10,000 WEC 50: Cruz vs. Benavidez 2 Scott Jorgensen vs. Brad Pickett Maciej Jewtuszko Anthony Pettis $10,000 WEC 49: Varner vs. Shalorus Mark Hominick vs. Yves Jabouin Eddie Wineland Josh Grispi $10,000 WEC 48: Aldo vs. Faber Leonard Garcia vs. Chan Sung Jung Manvel Gamburyan Benson Henderson $65,000 
328144 1998 Tony Award Best Performance by a Leading Actor in a Musical Alan Cumming {{won}} 1998 Tony Award Best Performance by a Leading Actress in a Musical Natasha Richardson {{won}} 1998 Tony Award Best Performance by a Featured Actor in a Musical Ron Rifkin {{won}} 1998 Tony Award Best Performance by a Featured Actress in a Musical Mary Louise Wilson {{nom}} 1998 Tony Award Best Choreography Rob Marshall {{nom}} 
3281885 Colorado Simon Guggenheim Republican 1907 Incumbent retired.
New senator elected January 14, 1913, ratifying the popular selection made in 1912 state elections.{{efn | name=direct}}
Democratic gain. {{Plainlist | * '''{{Aye}} [[John F. Shafroth]]''' (Democratic) 86 votes * [[Clyde Dawson]] (Republican) 11 votes * [[Frank Catlin]] ([[Progressive Party (United States, 1912)|Progressive]]) 1 vote * Hunter (Democratic) 1 vote{{sfn | United States Senators Chosen, 1913 | page=458}}<hr/>In state election: * [[John F. Shafroth]] (Democratic) 47.34% * [[Clyde Dawson]] (Republican) 26.8% * [[Frank Catlin]] ([[Progressive Party (United States, 1912)|Progressive]]) 23.48% * [[Mary E. Miller]] ([[Prohibition Party|Prohibition]]) 2.38%}} Delaware Harry A. Richardson Republican 1907 Incumbent retired.
New senator elected January 29, 1913.
Democratic gain. {{Plainlist | * '''{{Aye}} [[Willard Saulsbury, Jr.]]''' (Democratic) 28 votes * [[H. A. Richardson]] (Republican) 11 votes * [[John G. Townsend]] (Republican) 5 votes * [[Alfred I. du Pont]] (Republican) 3 votes * [[Alexander P. Corbit]] (Republican) 1 vote * [[Simeon S. Pennewill]] (Republican) 1 vote * [[Ruby R. Vale]] (Republican) 1 vote{{sfn | United States Senators Chosen, 1913 | page=458}}}} Idaho William Borah Republican 1907 Incumbent re-elected January 14, 1913. {{Plainlist | * '''{{Aye}} [[William Borah]]''' (Republican) 75 votes * [[George A. Tannahill]] (Democratic) 2 votes * [[Kirtland I. Perky]] (Democratic) 2 votes{{sfn | United States Senators Chosen, 1913 | page=458}}}} Kentucky Thomas H. Paynter Democratic 1906 Incumbent retired.
New senator elected January 16, 1912.
Democratic hold. {{Plainlist | * '''{{Aye}} [[Ollie Murray James|Ollie James]]''' (Democratic) 105 votes * [[Edwin T. Morrow]] (Republican) 28 votes{{sfn | United States Senators Chosen, 1912 | page=457}}}} Michigan William A. Smith Republican 1911 Incumbent re-elected January 14, 1913. 
328206 Ethnic group European 514,265 {{Percentage | 514265| 1372640| 1}} Ethnic group South Asian 434,105 {{Percentage | 434105| 1372640| 1}} Ethnic group Black 131,060 {{Percentage | 131060| 1372640| 1}} Ethnic group Chinese 63,745 {{Percentage | 63745| 1372640| 1}} Ethnic group Filipino 57,205 {{Percentage | 57205| 1372640| 1}} 
32832488 2nd 176 {{cr|ENG}} Dennis Amiss Keith Fletcher {{cr|IND}} Lord's, London 4th 149 {{cr|WIN}} Rohan Kanhai Clive Lloyd {{cr|AUS}} Lord's, London 5th 89* {{cr|ENG}} Dennis Amiss Chris Old {{cr|IND}} Lord's, London 6th 99 {{cr|AUS}} Ross Edwards Rod Marsh {{cr|WIN}} The Oval, London 7th 55 {{cr|IND}} Syed Abid Ali Madan Lal {{cr|NZL}} Old Trafford Cricket Ground, Manchester 
328383 1964 To Trap a Spy Illya Kuryakin A Man from U.N.C.L.E. film 1965 The Spy with My Face Illya Kuryakin A Man from U.N.C.L.E. film 1965 The Greatest Story Ever Told Judas Iscariot Retelling of the story of Jesus, from the Nativity through the Resurrection 1966 One Spy Too Many Illya Kuryakin A Man from U.N.C.L.E. film 1966 The Spy in the Green Hat Illya Kuryakin A Man from U.N.C.L.E. film 
32840308 1st 138 {{cr|WIN}} Gordon Greenidge Desmond Haynes {{cr|IND}} Edgbaston Cricket Ground, Birmingham 3rd 108 {{cr|ENG}} Mike Brearley Graham Gooch {{cr|AUS}} Lord's, London 4th 71 {{cr|AUS}} Andrew Hilditch Graham Yallop {{cr|PAK}} Trent Bridge, Nottingham 5th 139 {{cr|WIN}} Sir Viv Richards Collis King {{cr|ENG}} Lord's, London 6th 40 {{cr|IND}} Sunil Gavaskar Kapil Dev {{cr|NZL}} Headingley, Leeds 
32853612 2016 Claire North The First Fifteen Lives of Harry August  2008 Cormac McCarthy The Road  2007 Richard Morgan Market Forces  2006 George R.R. Martin A Storm of Swords  2005 Andreas Eschbach The Carpet Makers  
3289107 1st 1998  Martin Lee
{{small|([[Democratic Party (Hong Kong)|DP]])}}  Cheng Kai-nam
{{small|([[Democratic Alliance for the Betterment of Hong Kong|DAB]])}}  Yeung Sum
{{small|([[Democratic Party (Hong Kong)|DP]])}}  Christine Loh
{{small|([[Citizens Party (Hong Kong)|CP]])}}        2nd 2000  Martin Lee
{{small|([[Democratic Party (Hong Kong)|DP]])}}  Cheng Kai-nam
{{small|([[Democratic Alliance for the Betterment of Hong Kong|DAB]])}}  Yeung Sum
{{small|([[Democratic Party (Hong Kong)|DP]])}}  Cyd Ho
{{small|([[The Frontier (Hong Kong)|TF]])}}  Choy So-yuk
{{small|([[Democratic Alliance for the Betterment of Hong Kong|DAB]])}}      2nd 2000 (b)  Martin Lee
{{small|([[Democratic Party (Hong Kong)|DP]])}}  Audrey Eu
{{small|([[Independent (politician)|Ind]]→[[Article 45 Concern Group|A45]]→[[Civic Party|CP]])}}  Yeung Sum
{{small|([[Democratic Party (Hong Kong)|DP]])}}  Cyd Ho
{{small|([[The Frontier (Hong Kong)|TF]])}}  Choy So-yuk
{{small|([[Democratic Alliance for the Betterment of Hong Kong|DAB]])}}      3rd 2004  Martin Lee
{{small|([[Democratic Party (Hong Kong)|DP]])}}  Audrey Eu
{{small|([[Independent (politician)|Ind]]→[[Article 45 Concern Group|A45]]→[[Civic Party|CP]])}}  Yeung Sum
{{small|([[Democratic Party (Hong Kong)|DP]])}}  Ma Lik
{{small|([[Democratic Alliance for the Betterment of Hong Kong|DAB]])}}  Choy So-yuk
{{small|([[Democratic Alliance for the Betterment of Hong Kong|DAB]])}}      3rd 2007 (b)  Martin Lee
{{small|([[Democratic Party (Hong Kong)|DP]])}}  Audrey Eu
{{small|([[Independent (politician)|Ind]]→[[Article 45 Concern Group|A45]]→[[Civic Party|CP]])}}  Yeung Sum
{{small|([[Democratic Party (Hong Kong)|DP]])}}  Anson Chan
{{small|([[Independent (politician)|Ind]])}}  Choy So-yuk
{{small|([[Democratic Alliance for the Betterment of Hong Kong|DAB]])}}    Rita Fan
{{small|([[Independent (politician)|Ind]])}}  
3289168 1st 1998  Lau Chin-shek
{{small|([[Democratic Party (Hong Kong)|DP]]/[[Hong Kong Confederation of Trade Unions|CTU]]→[[Hong Kong Confederation of Trade Unions|CTU]])}}  James To
{{small|([[Democratic Party (Hong Kong)|DP]])}}  Tsang Yok-sing
{{small|([[Democratic Alliance for the Betterment of Hong Kong|DAB]])}}       2nd 2000  Lau Chin-shek
{{small|([[Democratic Party (Hong Kong)|DP]]/[[Hong Kong Confederation of Trade Unions|CTU]]→[[Hong Kong Confederation of Trade Unions|CTU]])}}  James To
{{small|([[Democratic Party (Hong Kong)|DP]])}}  Tsang Yok-sing
{{small|([[Democratic Alliance for the Betterment of Hong Kong|DAB]])}}  Frederick Fung
{{small|([[Association for Democracy and People's Livelihood|ADPL]])}}     3rd 2004  Lau Chin-shek
{{small|([[Democratic Party (Hong Kong)|DP]]/[[Hong Kong Confederation of Trade Unions|CTU]]→[[Hong Kong Confederation of Trade Unions|CTU]])}}  James To
{{small|([[Democratic Party (Hong Kong)|DP]])}}  Tsang Yok-sing
{{small|([[Democratic Alliance for the Betterment of Hong Kong|DAB]])}}  Frederick Fung
{{small|([[Association for Democracy and People's Livelihood|ADPL]])}}     4th 2008  Wong Yuk-man
{{small|([[League of Social Democrats|LSD]]→[[People Power (Hong Kong)|PP]]→[[Independent (politician)|Ind]])}}  James To
{{small|([[Democratic Party (Hong Kong)|DP]])}}  Starry Lee
{{small|([[Democratic Alliance for the Betterment and Progress of Hong Kong|DAB]])}}  Frederick Fung
{{small|([[Association for Democracy and People's Livelihood|ADPL]])}}     4th 2010 (b)  Wong Yuk-man
{{small|([[League of Social Democrats|LSD]]→[[People Power (Hong Kong)|PP]]→[[Independent (politician)|Ind]])}}  James To
{{small|([[Democratic Party (Hong Kong)|DP]])}}  Starry Lee
{{small|([[Democratic Alliance for the Betterment and Progress of Hong Kong|DAB]])}}  Frederick Fung
{{small|([[Association for Democracy and People's Livelihood|ADPL]])}}    
3289187 1st 1998  Emily Lau
{{small|([[The Frontier (Hong Kong)|TF]]→[[Democratic Party (Hong Kong)|DP]])}}  Andrew Cheng
{{small|([[Democratic Party (Hong Kong)|DP]]→[[Independent (politician)|Ind]])}}  {{nowrap|[[Lau Kong-wah]]}}
{{small|([[Democratic Alliance for the Betterment of Hong Kong|DAB]]/[[Civil Force|CF]])}}  Cyd Ho
{{small|([[The Frontier (Hong Kong)|TF]])}}  Andrew Wong
{{small|([[Independent (politician)|Ind]])}}            2nd 2000  Emily Lau
{{small|([[The Frontier (Hong Kong)|TF]]→[[Democratic Party (Hong Kong)|DP]])}}  Andrew Cheng
{{small|([[Democratic Party (Hong Kong)|DP]]→[[Independent (politician)|Ind]])}}  {{nowrap|[[Lau Kong-wah]]}}
{{small|([[Democratic Alliance for the Betterment of Hong Kong|DAB]]/[[Civil Force|CF]])}}  {{nowrap|[[Wong Sing-chi]]}}
{{small|([[Democratic Party (Hong Kong)|DP]])}}  Andrew Wong
{{small|([[Independent (politician)|Ind]])}}            3rd 2004  Emily Lau
{{small|([[The Frontier (Hong Kong)|TF]]→[[Democratic Party (Hong Kong)|DP]])}}  Andrew Cheng
{{small|([[Democratic Party (Hong Kong)|DP]]→[[Independent (politician)|Ind]])}}  {{nowrap|[[Lau Kong-wah]]}}
{{small|([[Democratic Alliance for the Betterment of Hong Kong|DAB]]/[[Civil Force|CF]])}}  Ronny Tong
{{small|([[Article 45 Concern Group|A45]]→[[Civic Party|CP]]→[[Independent (politician)|Ind]])}}  {{nowrap|[[Leung Kwok-hung]]}}
{{small|([[April Fifth Action|AFA]]→[[League of Social Democrats|LSD]])}}  James Tien
{{small|([[Liberal Party (Hong Kong)|LP]])}}          3rd 2004  Emily Lau
{{small|([[The Frontier (Hong Kong)|TF]]→[[Democratic Party (Hong Kong)|DP]])}}  Andrew Cheng
{{small|([[Democratic Party (Hong Kong)|DP]]→[[Independent (politician)|Ind]])}}  {{nowrap|[[Lau Kong-wah]]}}
{{small|([[Democratic Alliance for the Betterment of Hong Kong|DAB]]/[[Civil Force|CF]])}}  Ronny Tong
{{small|([[Article 45 Concern Group|A45]]→[[Civic Party|CP]]→[[Independent (politician)|Ind]])}}  
3289209 1st 1998  Lee Wing-tat
{{small|([[Democratic Party (Hong Kong)|DP]])}}  {{nowrap|[[Tam Yiu-chung]]}}
{{small|([[Democratic Alliance for the Betterment of Hong Kong|DAB]])}}  Albert Ho
{{small|([[Democratic Party (Hong Kong)|DP]])}}  {{nowrap|[[Lee Cheuk-yan]]}}
{{small|([[The Frontier (Hong Kong)|TF]]→[[Hong Kong Confederation of Trade Unions|CTU]]→[[Labour Party (Hong Kong)|Lab]]/[[Hong Kong Confederation of Trade Unions|CTU]])}}  {{nowrap|[[Leung Yiu-chung]]}}
{{small|([[Neighbourhood and Worker's Service Centre|NWSC]])}}         2nd 2000  Albert Chan
{{small|([[Democratic Party (Hong Kong)|DP]]→[[Independent (politician)|Ind]]→[[League of Social Democrats|LSD]]→[[People Power (Hong Kong)|PP]])}}  {{nowrap|[[Tam Yiu-chung]]}}
{{small|([[Democratic Alliance for the Betterment of Hong Kong|DAB]])}}  Albert Ho
{{small|([[Democratic Party (Hong Kong)|DP]])}}  {{nowrap|[[Lee Cheuk-yan]]}}
{{small|([[The Frontier (Hong Kong)|TF]]→[[Hong Kong Confederation of Trade Unions|CTU]]→[[Labour Party (Hong Kong)|Lab]]/[[Hong Kong Confederation of Trade Unions|CTU]])}}  {{nowrap|[[Leung Yiu-chung]]}}
{{small|([[Neighbourhood and Worker's Service Centre|NWSC]])}}  Tang Siu-tong
{{small|([[Hong Kong Progressive Alliance|PA]])}}       2nd 2000  Albert Chan
{{small|([[Democratic Party (Hong Kong)|DP]]→[[Independent (politician)|Ind]]→[[League of Social Democrats|LSD]]→[[People Power (Hong Kong)|PP]])}}  {{nowrap|[[Tam Yiu-chung]]}}
{{small|([[Democratic Alliance for the Betterment of Hong Kong|DAB]])}}  Albert Ho
{{small|([[Democratic Party (Hong Kong)|DP]])}}  {{nowrap|[[Lee Cheuk-yan]]}}
{{small|([[The Frontier (Hong Kong)|TF]]→[[Hong Kong Confederation of Trade Unions|CTU]]→[[Labour Party (Hong Kong)|Lab]]/[[Hong Kong Confederation of Trade Unions|CTU]])}}  {{nowrap|[[Leung Yiu-chung]]}}
{{small|([[Neighbourhood and Worker's Service Centre|NWSC]])}}  Tang Siu-tong
{{small|([[Hong Kong Progressive Alliance|PA]])}}       3rd 2004  
3290340 2000 Osaka Angela Nikodinov Stacey Pensgen Annie Bellemare  2001 Salt Lake City Fumie Suguri Angela Nikodinov Yoshie Onda  2002 Jeonju Jennifer Kirk Shizuka Arakawa Yoshie Onda  2003 Beijing Fumie Suguri Shizuka Arakawa Yukari Nakano  2005 Gangneung Fumie Suguri Yoshie Onda Jennifer Kirk  
32934672 1970 First Stage
(Group 4) Universitario 2–0 (H); 0–2 (A) 1970 First Stage
(Group 4) Defensor Arica 1–2 (H); 0–0 (A) 1975 First Stage
(Group 4) Deportivo Galicia 4–2 (H); 1–0 (A) 1975 Semifinals
(Group 1) Universitario 0–0 (H); 1–2 (A) 1976 First Stage
(Group 2) Deportivo Cuenca 1–1 (H); 0–0 (A); 2–1 (N) 
32949737 19 January 2001 San Diego United States Cox Arena 22 January 2001 Vancouver Canada General Motors Place 24 January 2001 Tacoma United States Tacoma Dome 29 January 2001 Salt Lake City United States Delta Center 31 January 2001 Sacramento United States ARCO Arena 
32956469 1 June 2007 Belfast Northern Ireland Odyssey Arena 14 July 2007 Glasgow Scotland Scottish Exhibition & Conference Centre 15 July 2007 Inverness Scotland Tulloch Caledonian Stadium 14 September 2007 Riga Latvia Arena Riga 15 September 2007 Tallinn Estonia Saku Suurhall Arena 
32966469 1 22 SEP / 8:30 PM  Bangalore Warhawks 26–06 Pakistan Wolfpak  Sugathadasa Stadium 3 24 SEP / 8:30 PM  Kandy Skykings 13–00 Kolkata Vipers  Sugathadasa Stadium 4 25 SEP / 8:30 PM  Mumbai Gladiators 07–12 Colombo Lions  Sugathadasa Stadium 6 30 SEP / 8:30 PM  Pakistan Wolfpak 12–14 Mumbai Gladiators  Sugathadasa Stadium 7 01 OCT / 8:30 PM  Bangalore Warhawks 10–07 Colombo Lions  Sugathadasa Stadium 
3300482 2001 Kaise Kahoon  Zee TV Hindi  2001-2004 Kaahin Kissii Roz Ramola Sikand Star Plus Hindi  2002-2005 Kyunki Saas Bhi Kabhi Bahu Thi Renuka Chaudhary / Ragini Suryavanshi Star Plus Hindi  2003-2004 Tum Bin Jaaoon Kahaan Guruma Zee TV Hindi  2003-2004 Vishnu Puran Kunti DD National Hindi  
330110 2 Corsica Mediterranean Sea 8,680 3 Grande-Terre Kerguelen Islands 6,675 5 Lifou New Caledonia 1,146 7 Tahiti French Polynesia 1,036 8 Basse-Terre Guadeloupe 848 
33039728 1950 {{Composition bar|24|210|hex=#FFFF00}} 677,173 9.7 {{small|new}} 24 seats; Minority in government Yun Chi-young Korea Nationalist Party 1954 {{Composition bar|3|203|hex=#FFFF00}} 72,923 1.0 {{decrease}}21 seats; Minority in government Yun Chi-young Korea Nationalist Party 1981 {{Composition bar|151|276|hex={{Democratic Justice Party/meta/color}}}} 5,776,624 35.6% {{small|new}} 151 seats; Majority in government Chun Doo-hwan Democratic Justice Party 1985 {{Composition bar|148|276|hex={{Democratic Justice Party/meta/color}}}} 7,040,811 34.0% {{decrease}}3 seats; Majority in government Chun Doo-hwan Democratic Justice Party 1988 {{Composition bar|125|299|hex={{Democratic Justice Party/meta/color}}}} 6,675,494 34.0% {{decrease}}23 seats; Minority in government Roh Tae-woo Democratic Justice Party 
33088082 3 6 {{flagicon|AUS}} Will Davison
{{flagicon|AUS}} Luke Youlden Ford FG Falcon Ford Performance Racing 113 9.2s 1 4 2 {{flagicon|AUS}} Garth Tander
{{flagicon|AUS}} Nick Percat Holden VE Commodore Holden Racing Team 113 15.6s 2 5 9 {{flagicon|NZL}} Shane van Gisbergen
{{flagicon|NZL}} John McIntyre Ford FG Falcon Stone Brothers Racing 113 15.6s 3 6 16 {{flagicon|AUS}} David Reynolds
{{flagicon|AUS}} Tim Blanchard Holden VE Commodore Kelly Racing 113 19.5s 7 7 8 {{flagicon|AUS}} Jason Bright
{{flagicon|AUS}} Andrew Jones Holden VE Commodore Brad Jones Racing 113 27.4s 22 
33117781 1933 San Antonio Missions 4–2 Galveston Buccaneers 1966 Austin Braves 1–0 Albuquerque Dodgers 1977 Arkansas Travelers 2–0 El Paso Diablos 1978 El Paso Diablos — Jackson Mets 1979 Arkansas Travelers 3–0 San Antonio Dodgers 
3311809 1996–97 Jokerit SM-l  44 3 8 11 4  9 0 3 2001–02 Atlanta Thrashers NHL  75 2 16 18 14  — — — 2002–03 Atlanta Thrashers NHL  75 3 12 15 26  — — — 2003–04 Atlanta Thrashers NHL  68 5 15 20 20  — — — 2005–06 Minnesota Wild NHL  60 3 15 18 32  — — — 
3313758 1990–91 Newmarket Saints AHL  38 8 24 3 2154 144 1 4.01 .887  — — — — — — 1990–91 Toronto Maple Leafs NHL  1 1 0 0 60 1 0 1.00 .962  — — — — — — 1993–94 Toronto Maple Leafs NHL  22 9 7 3 1213 53 0 2.62 .902  1 0 0 1 0 0 1994–95 Toronto Maple Leafs NHL  13 6 6 1 760 34 0 2.68 .916  — — — — — — 1995–96 Toronto Maple Leafs NHL  11 4 5 1 624 29 0 2.79 .904  — — — — — — 
33149696 1997 Group stage (10) France Montpellier 1 – 2  4th place 1997 Group stage (10) Bulgaria Spartak Varna 2 – 1  4th place 1997 Group stage (10) Netherlands Groningen  1 – 4 4th place 2001 First round Finland FC Jazz 2 – 1 0 – 1 2 – 2 (a) 2002 First round Luxembourg Union Luxembourg 2 – 0 0 – 0 2 – 0 
33165749 808 ICTY F:15/Ab:0/Ag:0 1993 827 ICTY F:15/Ab:0/Ag:0 1993 857 ICTY F:15/Ab:0/Ag:0 1993 877 ICTY F:15/Ab:0/Ag:0 1993 936 ICTY F:15/Ab:0/Ag:0 1994 
33177790 2009 Westman Wildcats Scarborough Sharks Calgary Flyers Calgary, AB 2010 Thunder Bay Queens Notre Dame Hounds Edmonton Thunder Regina, SK 2011 Notre Dame Hounds Edmonton Thunder Toronto Aeros St. Albert, AB 2012 Pembina Valley Hawks Thunder Bay Queens Edmonton Thunder Charlottetown, PE 2013 LHFDQ North North Bay Ice Boltz Edmonton Thunder Burnaby, BC 
33215813 2 47 Tim Slade Ford FG Falcon James Rosenberg Racing 1:09.8287 3 15 Rick Kelly Holden VE Commodore Kelly Racing 1:10.0666 5 21 Karl Reindler Holden VE Commodore Britek Motorsport 1:10.1268 6 33 Lee Holdsworth Holden VE Commodore Garry Rogers Motorsport 1:10.1489 7 8 Jason Bright Holden VE Commodore Brad Jones Racing 1:10.1559 
33275162 1 95 Mark Winterbottom Ford FG Falcon Ford Performance Racing 1:13.0832 1:12.9424 3 6 Will Davison Ford FG Falcon Ford Performance Racing 1:13.1923 1:13.0764 5 2 Garth Tander Holden VE Commodore Holden Racing Team 1:13.0529 1:13.2245 6 33 Lee Holdsworth Holden VE Commodore Garry Rogers Motorsport 1:13.2717 1:13.2966 9 15 Rick Kelly Holden VE Commodore Kelly Racing 1:13.1045 1:13.4942 
333149 1 Adam Hamilton 2 November 1936 26 November 1940 LO 1936–1940  Savage 2 Sidney Holland 26 November 1940 20 September 1957 LO 1940–1949  Fraser 3 Keith Holyoake 20 September 1957 7 February 1972 LO 1957–1960  Nash 4 Jack Marshall 7 February 1972 4 July 1974 LO 1972–1974  Kirk 5 Robert Muldoon 4 July 1974 29 November 1984 LO 1974–1975  Rowling 
3331742 1985–86 Peterborough Petes OHL &nbsp; 63 6 18 24 57 &nbsp; 16 2 1 1986–87 Peterborough Petes OHL &nbsp; 59 13 42 55 70 &nbsp; 12 0 5 1987–88 Toronto Maple Leafs NHL &nbsp; 78 4 6 10 90 &nbsp; 2 0 0 1988–89 Toronto Maple Leafs NHL &nbsp; 55 2 7 9 106 &nbsp; — — — 1989–90 Toronto Maple Leafs NHL &nbsp; 67 4 14 18 122 &nbsp; 5 0 0 
3334399 1 Switzerland Neel Jani -- 1'46.383 1'45.992 1'45.926 3'31.918 -- 2 France Nicolas Lapierre -- -- 1'46.285 1'46.266 3'32.551 0.633 3 Ireland Ralph Firman -- 1'47.047 1'46.459 1'46.167 3'32.626 0.708 4 Brazil Nelson Piquet Jr -- 1'46.514 1'46.113 1'46.721 3'32.627 0.709 5 Great Britain Robbie Kerr -- 1'46.964 1'46.201 1'46.433 3'32.634 0.716 
33379676 Tour Down Under
(Simon Gerrans) Simon Gerrans {{ct|LEO|2012}} Australia Paris–Nice
(Bradley Wiggins) Alejandro Valverde {{ct|SKY|2012}} Spain Tirreno–Adriatico
(Vincenzo Nibali) Alejandro Valverde {{ct|RNT|2012}} Spain Milan–San Remo
(Simon Gerrans) Simon Gerrans {{ct|RNT|2012}} Italy E3 Harelbeke
(Tom Boonen) Simon Gerrans {{ct|RNT|2012}} Spain 
33391901 15 {{flagicon|AUS}} Michelle Heyman File:Canberra United FC.jpg Canberra United 2 3   2  1  1 1 2  1 2 9 {{flagicon|AUS}} Emily Gielnik File:BrisbaneRoarColours.png Brisbane Roar   1  1 1  1 1  2  1 1 8 {{flagicon|ENG}} Jodie Taylor File:MelbourneVictoryColours.png Melbourne Victory  1   1  2 3  1     6 {{flagicon|AUS}} Renee Rollason File:SYDicon.png Sydney FC 1      3   1   1  5 {{flagicon|AUS}} Lisa De Vanna File:NewcastleJetsColours.png Newcastle Jets  2 2         1   
33423238 1 5 Mark Winterbottom Ford FG Falcon Ford Performance Racing 1:09.2123 1:09.1697 3 9 Shane van Gisbergen Ford FG Falcon Stone Brothers Racing 1:09.5613 1:09.3509 5 47 Tim Slade Ford FG Falcon James Rosenberg Racing 1:09.6157 1:09.4035 6 33 Lee Holdsworth Holden VE Commodore Garry Rogers Motorsport 1:09.6496 1:09.4425 8 11 Greg Murphy Holden Commodore VE Kelly Racing 1:09.5003 1:09.6093 
33426677 18/02/12 Super League XVII 3 Image:giantscolours.svg Huddersfield Giants A Galpharm Stadium Won 22-32 Riley (2), Myler, Blythe, J.Monaghan, Bridge Briers (4) 8,184 Sky Sports  03/03/12 Super League XVII 5 Image:bullscolours.svg Bradford Bulls A Odsal Stadium Won 10-23 Riley, Higham, Atkins, Waterhouse Bridge (3) Briers (DG) 11,318 Sky Sports  09/03/12 Super League XVII 6 Image:rhinoscolours.svg Leeds Rhinos A Headingley Stadium Lost 26-18 Blythe, Hill, Westwood Briers (3) 17,120 Sky Sports  23/03/12 Super League XVII 8 Image:wigancolours.svg Wigan Warriors A DW Stadium Won 20-22 Atkins, J.Monaghan, Briers Hodgson (5) 21,267 Sky Sports  30/03/12 Super League XVII 9 Image:saintscolours.svg St. Helens H Halliwell Jones Stadium Lost 16-28 Hodgson, J.Monaghan, Atkins Hodgson (2) 15,000 Sky Sports  
33429809 1 7 Carlos Checa Ducati 1098R 22 38:13.293 2 25 2 50 Sylvain Guintoli Ducati 1098R 22 +2.860 5 20 3 4 Jonathan Rea Honda CBR1000RR 22 +8.481 1 16 4 1 Max Biaggi Aprilia RSV4 Factory 22 +11.963 17 13 6 33 Marco Melandri Yamaha YZF-R1 22 +18.960 4 10 
33504823 Clermont-Ferrand International Short Film Festival 1979 Clermont-Ferrand {{FRA}} Colchester Film Festival 2012 Colchester {{UK}} Drama International Short Film Festival 1978 Drama {{GRE}} Encounters Short Film and Animation Festival 1995 Bristol {{UK}} Insight Film Festival 2007 Manchester {{UK}} 
335363 2 William Higgs &nbsp; Labor Queensland 16 March 1904 31 December 1906 3 George Pearce &nbsp; Labor Western Australia 21 February 1907 13 November 1908 4 Henry Dobson &nbsp; Anti-Socialist Tasmania 25 November 1908 30 June 1910 4 Henry Dobson &nbsp; Liberal Tasmania 25 November 1908 30 June 1910 8 Thomas Bakhap &nbsp; Nationalist Tasmania 21 July 1920 30 June 1923 
33538682 ODI 2133a 24 June {{cr|ENG}} Michael Vaughan {{cr|NZ}} Stephen Fleming Old Trafford, Manchester Match abandoned ODI 2134 26 June {{cr|NZ}} Stephen Fleming {{cr|WIN}} Brian Lara Edgbaston, Birmingham No result ODI 2135 27 June {{cr|ENG}} Michael Vaughan {{cr|WIN}} Brian Lara Trent Bridge, Nottingham {{cr|WIN}} by 7 wickets ODI 2136 29 June {{cr|ENG}} Michael Vaughan {{cr|NZ}} Stephen Fleming Riverside Ground, Chester-le-Street {{cr|NZ}} by 7 wickets ODI 2137 1 July {{cr|ENG}} Michael Vaughan {{cr|WIN}} Brian Lara Headingley, Leeds {{cr|ENG}} by 7 wickets 
33550132 100 m 10.17 {{AthAbbr|A}} (+0.3&nbsp;m/s) Derick Silva {{flagu|Brazil}} 29 September 2018 {{flagicon|ECU}} 2018 Cuenca  200 m 20.50 (+1.4&nbsp;m/s) Aldemir da Silva {{flagu|Brazil}} 5 October 2014 {{flagicon|URU}} 2014 Montevideo  400 m 45.19 {{AthAbbr|A}} Anthony Zambrano {{flagu|Brazil}} 29 September 2018 {{flagicon|ECU}} 2018 Cuenca  5000 m 13:57.58 Matias Silva {{flagu|Chile}} 3 October 2014 {{flagicon|URU}} 2014 Montevideo  110 m hurdles 13.75 (+0.7&nbsp;m/s) Jorge McFarlane {{PER}} 20 March 2010 {{flagicon|COL}} 2010 Medellín  
33592488 Alabama William R. King Democratic-Republican 1819 Incumbent re-elected in 1822. {{Plainlist | * '''{{Aye}} [[William R. King]]''' (Jackson Democratic-Republican) * {{Data missing}}}} Georgia Nicholas Ware Democratic-Republican 1821 (Special) Incumbent re-elected in 1822 or 1823. {{Plainlist | * '''{{Aye}} [[Nicholas Ware]]''' (Crawford Democratic-Republican) * {{Data missing}}}} Illinois Jesse B. Thomas Democratic-Republican 1818 Incumbent re-elected in 1823. {{Plainlist | * '''{{Aye}} [[Jesse B. Thomas]]''' (Crawford Democratic-Republican) * {{Data missing}}}} Kentucky Richard M. Johnson Democratic-Republican 1819 (Special) Incumbent re-elected in 1823. {{Plainlist | * '''{{Aye}} [[Richard Mentor Johnson|Richard M. Johnson]]''' (Jackson Democratic-Republican) * {{Data missing}}}} Maine John Chandler Democratic-Republican 1820 Incumbent re-elected in 1823. {{Plainlist | * '''{{Aye}} [[John Chandler]]''' (Crawford Democratic-Republican) * {{Data missing}}}} 
33611 1 Cheyenne Laramie 63,624 2 Casper Natrona 57,814 3 Laramie Albany 32,306 4 Gillette Campbell 30,560 5 Rock Springs Sweetwater 23,350 
33618221 Keren Or Leybovitch S8 50m freestyle 32.68 1 Q 32.11 {{silver02}} Keren Or Leybovitch S8 100m freestyle 1:11.27 2 Q 1:09.86 {{silver02}} Keren Or Leybovitch S8 400m freestyle 5:32.28 4 Q 5:34.43 6 Keren Or Leybovitch S8 100m backstroke 1:21.20 1 Q 1:19.55 {{gold01}} Keren Or Leybovitch SM8 200m individual medley 3:07.13 4 Q 3:03.38 {{bronze03}} 
33618230 {{gold medal}} Paola Fantato Archery Women's individual W1/W2 {{gold medal}} Alvise De Vidi Athletics Men's marathon T51 {{gold medal}} Immacolata Cerasuolo Swimming Women's 100 m butterfly S8 {{gold medal}} Alberto Pellegrini Wheelchair fencing Men's individual sabre A {{silver medal}} Stefano Lippi Athletics Men's long jump F42 
33629079 {{flagathlete|{{sortname|Ben|Drinkwater}}|UK}} {{dts|June 13, 1949}} 1949 Isle of Man TT 350&nbsp;cc Isle of Man TT Mountain Course Norton Race  {{flagathlete|{{sortname|Edouard|Bruylant}}|BEL}} {{dts|July 17, 1949}} 1949 Belgian Grand Prix Sidecar Circuit de Spa-Francorchamps Norton Race  {{flagathlete|"Hurst"|GBR}} {{dts|July 17, 1949}} 1949 Belgian Grand Prix Sidecar Circuit de Spa-Francorchamps Norton Race  {{flagathlete|{{sortname|David|Whitworth}}|GBR}} {{dts|July 2, 1950}} 1950 Belgian Grand Prix 350&nbsp;cc Circuit de Spa-Francorchamps Velocette Race  {{flagathlete|{{sortname|John|O'Driscoll|John O'Driscoll (motorcyclist)}}|GBR}} {{dts|May 31, 1951}} 1951 Isle of Man TT 350&nbsp;cc Isle of Man TT Mountain Course Rudge Practice  
3363761 1987–88 Regina Pats WHL  67 18 25 43 17  4 2 2 1988–89 Regina Pats WHL  72 53 78 131 52  — — — 1989–90 Regina Pats WHL  70 57 72 129 41  11 12 10 1989–90 Adirondack Red Wings AHL  — — — — —  1 0 0 1990–91 Regina Pats WHL  57 50 66 116 42  8 6 9 
33643342 1948 526,882 (7th) 2.0 {{Composition bar|6|574|hex={{Italian Social Movement/meta/color}}}} – Giorgio Almirante 1953 1,582,154 (5th) 5.8 {{Composition bar|29|590|hex={{Italian Social Movement/meta/color}}}} {{increase}} 23 Augusto De Marsanich 1958 1,407,718 (4th) 4.8 {{Composition bar|24|596|hex={{Italian Social Movement/meta/color}}}} {{decrease}} 5 Arturo Michelini 1963 1,570,282 (6th) 5.1 {{Composition bar|27|630|hex={{Italian Social Movement/meta/color}}}} {{increase}} 3 Arturo Michelini 1968 1,414,036 (6th) 4.5 {{Composition bar|24|630|hex={{Italian Social Movement/meta/color}}}} {{decrease}} 3 Arturo Michelini 
33644207 Alan Hunte WG Brett Mullins Kris Radlinski CE Andrew Ettingshausen Paul Newlove CE Ryan Girdler Anthony Sullivan WG Wendell Sailor Bobbie Goulding SH Craig Gower 
33655679 {{ayd|1949|9|22|2012|12|04}} Hilmar Moore Richmond, Texas Served from September 22, 1949 to December 4, 2012. {{ayd|1953|01|01|2014|04|22}} John H. Land Apopka, Florida Served from January 1, 1971 to April 22, 2014. Also served from January 1, 1950 to January 1, 1968. {{ayd|1946|01|02|2004|08|22}} Robert Linn Beaver, Pennsylvania Served from January 2, 1946 to August 22, 2004. 54 years Robert L. Butler Marion, Illinois Entered office in May 1963. Served until his resignation on January 31, 2018. {{ayd|1948|1|1|2000|1|1}} John M. Coyne Brooklyn, Ohio Served from 1948 until January 2000. 
33665655 &nbsp; Thomas Magarey  1860–1862 &nbsp; George Morphett  1860–1861 &nbsp; Thomas Magarey  1860–1862 &nbsp; Randolph Stow  1861–1865 &nbsp; Henry Strangways  1862–1871 &nbsp; Randolph Stow  1861–1865 &nbsp; Henry Strangways  1862–1871 &nbsp; George Bean  1868–1870 &nbsp; Henry Strangways  1862–1871 &nbsp; William Bean  1870–1871 
33668760 1 Drew Brees 10/18/2009 – 11/25/2012 New Orleans Saints 54  2 Tom Brady 9/12/2010 – 9/29/2013 New England Patriots 52  4 Johnny Unitas 12/9/1956 – 12/4/1960 Baltimore Colts 47  5 Drew Brees 12/9/2012 – 11/29/2015 New Orleans Saints 45  6 Tony Romo 10/1/2012 – 11/23/2014 Dallas Cowboys 38  
3377003 {{Flagicon|Australia}} Australia Engineers Australia 1989 {{Flagicon|Canada}} Canada Engineers Canada 1989 {{Flagicon|China}} China China Association for Science and Technology 2016 {{Flagicon|Hong Kong}} Hong Kong The Hong Kong Institution of Engineers 1995 {{Flagicon|India}} India National Board of Accreditation 2014 
33803336 Alpine Lake (north){{epi|2385.97|480|.290|m=2}} {{coord|44.181103|-115.053722|name=Alpine Lake}} Iron Creek Custer Edna Lake{{epi|2562|630|.430|m=2}} {{coord|43.970897|-114.992892|name=Edna Lake}} South Fork Payette River Boise Elk Lake{{epi|2030|640|.260|m=2}} {{coord|44.024856|-115.071592|name=Elk Lake}} South Fork Payette River Boise Hell Roaring Lake{{epi|2258|1030|.390|m=2}} {{coord|44.023822|-114.936381|name=Hell Roaring Lake}} Hell Roaring Creek Custer Hidden Lake{{epi|2610|930|.260|m=2}} {{coord|44.000047|-114.998117|name=Hidden Lake}} South Fork Payette River Boise 
33813536 2013 Filmfare Awards South Best Music Director Vanakkam Chennai {{nom}} 2014 Filmfare Awards South Best Music Director Kaththi {{nom}} 2014 Filmfare Awards South Best Music Director Maan Karate {{nom}} 2014 Filmfare Awards South Best Music Director Velaiyilla Pattathari {{won}} 2014 Vijay Awards Best Music Director Velaiyilla Pattathari {{won}} 
33850444 1 3 August 15:30 Weserstadion Bremen Bayern Munich 1–1 33.000 Rufer {{Goal|77}} T11  2 10 August 15:30 Westfalenstadion Dortmund Borussia Dortmund 1–2 44.023 Allofs {{Goal|79}} T14  3 14 August 20:00 Weserstadion Bremen VfB Stuttgart 1–1 18.500 Bode {{Goal|79}} 16  5 24 August 15:30 Weserstadion Bremen Wattenscheid 09 2–2 13.160 Harttgen {{Goal|4}}
Bode {{Goal|53}} 8  6 27 August 20:00 Ulrich-Haberland-Stadion Leverkusen Bayer Leverkusen 0–0 12.000 No scorer 11  
3388275 1 France Nicolas Lapierre 18 24:03.360 10 2 Great Britain Robbie Kerr 18 24:10.341 9 4 Malaysia Alex Yoong 18 24:14.682 7 5 Switzerland Neel Jani 18 24:16.220 6 6 Ireland Ralph Firman 18 24:17.094 5 
33894679 2012 Nicol David Laura Massaro 17-15, 11-2, 11-6 2011 Nicol David Jenny Duncalf 11-8, 11-4, 11-6 2010 Madeline Perry Alison Waters 11-5, 12-10, 6-11, 4-11, 13-11 1999 Michelle Martin Leilani Rorani 9-7, 9-0, 9-3 1998 Michelle Martin Sarah Fitz-Gerald 9-4, 2-9, 9-6, 9-5 
3389488 1969–70 Chicago Black Hawks NHL &nbsp; 76 0 24 24 213 &nbsp; 8 1 2 1970–71 Chicago Black Hawks NHL &nbsp; 76 3 20 23 291 &nbsp; 18 0 2 1971–72 Chicago Black Hawks NHL &nbsp; 74 2 19 21 201 &nbsp; 8 0 1 1972–73 Chicago Black Hawks NHL &nbsp; 77 0 19 19 140 &nbsp; 7 0 2 1973–74 Chicago Black Hawks NHL &nbsp; 57 2 11 13 105 &nbsp; 11 1 0 
33911264 2019 Sahaya Panglima Alari GMA Network 2018 Victor Magtanggol Mr. Alcala GMA Network 2017 Tsuperhero Lolo Pikoy/Piccololo GMA Network 2016 Ika-6 na Utos Noel GMA Network 2015 Alamat: Alamat ng Bayabas Haring Barabas (voice) GMA Network 
339751 ArenaBowl II July 30, {{afly|1988}} Detroit Drive 24 Chicago Bruisers 13 Steve Griffin Rosemont Horizon 15,018 ArenaBowl III August 18, {{afly|1989}} Detroit Drive 39 Pittsburgh Gladiators 26 George LaFrance Joe Louis Arena 12,046 ArenaBowl V August 17, {{afly|1991}} Tampa Bay Storm 48 Detroit Drive 42 Stevie Thomas Joe Louis Arena 20,357 ArenaBowl VII August 21, {{afly|1993}} Tampa Bay Storm 51 Detroit Drive 31 Jay Gruden Joe Louis Arena 12,989 ArenaBowl VIII September 2, {{afly|1994}} Arizona Rattlers 36 Orlando Predators 31 Sherdrick Bonner Orlando Arena 14,368 
33976991 Bernd Leno German {{dts|format=dmy|1992|3|4}} 2011 VfB Stuttgart 14 0 0 0 6 0 20 0 David Yelldell American {{dts|format=dmy|1981|10|1}} 2011 MSV Duisburg 0 0 1 0 0 0 1 0 Manuel Friedrich German {{dts|format=dmy|1979|9|13}} 2007 Mainz 05 8 0 0 0 3 1 11 1 Michal Kadlec Czech {{dts|format=dmy|1984|12|13}} 2008 Sparta Prague 12 1 1 0 6 1 19 2 Bastian Oczipka German {{dts|format=dmy|1989|1|12}} 2011 FC St. Pauli 2 0 0 0 2 0 4 0 
33983580 1 1 March 5 - 7 Pune Strykers Mumbai Match 3 2 2 March 1 - 0 Bhopal Badshahs Mumbai Match 5 3 4 March 2 - 5 Chandigarh Comets Mumbai Match 10 4 6 March 4 - 2 Chennai Cheetahs Chennai Match 13 5 8 March 2 - 1 Karnataka Lions Bangalore Match 16 
34010601 1992 Perigosas Peruas Andréa Falcão Belotto (Tuca)  1993 O Mapa da Mina Beatriz Amaral (Bia)  1994 Tropicaliente Ana Carolina Botelho (Adrenalina)  2002 A Padroeira Ana Episodes: "February 13–14, 2002" 2003 Kubanacan Frida Episode: "September 15, 2003" 
3402034 1933 London Sonja Henie Cecilia Colledge Fritzi Burger  1935 St. Moritz Sonja Henie Liselotte Landbeck Cecilia Colledge  1936 Berlin Sonja Henie Cecilia Colledge Megan Taylor  1937 Prague Cecilia Colledge Megan Taylor Emmy Putzinger  1938 St. Moritz Cecilia Colledge Megan Taylor Emmy Putzinger  
3403910 2009 World Championships 12 February 2009 Val-d'Isère, France Giant Slalom 29 2009 World Championships 6 February 2009 Val-d'Isère, France Super Combined 17 2009 World Championships 3 February 2009 Val-d'Isère, France Super G 20 2007 World Championships 13 February 2007 Åre, Sweden Giant Slalom 27 2007 World Championships 9 February 2007 Åre, Sweden Super Combined DNF 
3407076 1998–99 Elk River High School HS-MN &nbsp; 24 9 11 20 — &nbsp; — — — 1999–2000 Elk River High School HS-MN &nbsp; 24 15 35 50 26 &nbsp; — — — 2003–04 New Jersey Devils NHL &nbsp; 70 6 18 24 4 &nbsp; 5 1 1 2005–06 New Jersey Devils NHL &nbsp; 80 5 32 37 32 &nbsp; 9 0 3 2006–07 New Jersey Devils NHL &nbsp; 82 3 23 26 18 &nbsp; 11 0 4 
3410596 2006 JAX 15 3 13 126 9.7 31 1 2007 JAX 16 16 37 391 10.6 25 2 2008 JAX 16 16 41 489 11.9 30 2 2009 JAX 15 15 32 518 16.2 47 2 2010 JAX 16 16 58 700 12.1 42 10 
34123586 Gauthier Mahoto Midfielder 2009–2010 0 0 {{flagu|France}} Patrice Marquet Midfielder 1988–1989 12 4 {{flagu|France}} Alain Masudi Midfielder 1997–1998 1 0 {{COD}} Franck Matingou Midfielder 1998–2006 91 0 {{COD}} David Mazzoncini Midfielder 1998–2001 22 0 {{flagu|France}} 
341377 {{F1|2018}} Lewis Hamilton Mercedes Suzuka Report {{F1|2017}} Lewis Hamilton Mercedes Suzuka Report {{F1|2016}} Nico Rosberg Mercedes Suzuka Report {{F1|2015}} Lewis Hamilton Mercedes Suzuka Report {{F1|2014}} Lewis Hamilton Mercedes Suzuka Report 
34155147 1988 Nauti FC FC Manu Laeva 2–1 1990 Nauti FC FC Manu Laeva 3–1 1998 FC Tofaga Nauti FC 2–1 1999 Nauti FC FC Niutao 2–1 2000 Lakena United FC Niutao 4–0 
34158732 2006–2007 Karam Apnaa Apnaa Sumit Malhotra Star Plus  2007–2008 Khwaish Salman Sony TV  2008 Kis Desh Mein Hai Meraa Dil Manmeet / Prashant Star Plus  2008–2010 Chotti Bahu – Sindoor Bin Suhagan Dev Purohit / Abhay Singh Thakur Zee TV  2010 Baat Hamari Pakki Hai Dev Purohit Sony TV Special appearance 
34173095 2010 KBS Drama Awards Best New Actor King of Baking, Kim Takgu {{nom}}  2011 KBS Drama Awards Best New Actor Ojakgyo Family {{won}}  2012 48th Baeksang Arts Awards Best New Actor in TV Ojakgyo Family {{won}}  2012 KBS Entertainment Awards Best Newcomer in a Variety Show 2 Days & 1 Night {{won}}  2012 1st K-Drama Star Awards Excellence Award, Actor Bridal Mask {{nom}}  
34173447 Ang Hin Kee 45 Chief Executive, NTUC e2i PAP Ang Mo Kio GRC Ang Wei Neng 44 Vice-President, SBS Transit West District PAP Jurong GRC Ang Yong Guan 56 Consultant Psychiatrist, Paragon Medical SDP Holland-Bukit Timah GRC Chan Chun Sing 42 Former SAF Chief of Army PAP Tanjong Pagar GRC Chen Show Mao 50 Corporate Lawyer and Former Infantry Commander WP Aljunied GRC 
34317876 1978 Czechoslovakia WJC &nbsp; 6 0 3 3 6 1979 Czechoslovakia WJC &nbsp; 6 0 1 1 2 1980 Czechoslovakia OG &nbsp; 6 1 2 3 8 1981 Czechoslovakia WC &nbsp; 8 5 1 6 2 1981 Czechoslovakia CC &nbsp; 6 1 2 3 4 
34318808 Lyon B 2010–11 CFA 13 0 — — — — — — — — 13 Lyon B 2011–12 CFA 6 0 — — — — — — — — 6 Lyon B 2012–13 CFA 2 0 — — — — — — — — 2 Lyon 2011–12 Ligue 1 12 0 3 0 3 0 0 0 — — 18 Lyon 2012–13 Ligue 1 26 1 0 0 0 0 6{{efn|name=UEL|Appearances in [[UEFA Europa League]]}} 1 0 0 32 
3436482 1996–97 Aurora Tigers MetJHL  25 4 7 11 20  — — — 1997–98 Flint Generals UHL  18 0 1 1 20  — — — 1998–99 Tulsa Oilers CHL  32 2 7 9 39  — — — 1999–2000 Pensacola Ice Pilots ECHL  59 3 7 10 146  2 0 0 2000–01 New Haven Knights UHL  66 4 10 14 270  8 1 0 
34423988 Week 4 Jeff Attinella {{flagu|USA}} Tampa Bay Rowdies Reinaldo Navia {{flag|CHL}} Atlanta Silverbacks Week 5 Cristiano Dias {{flag|BRA}} Minnesota Stars Shaun Saiko {{flag|CAN}} FC Edmonton Week 7 Jonathan Greenfield {{flag|RSA}} San Antonio Scorpions Dan Antoniuk {{flagu|USA}} Tampa Bay Rowdies Week 8 Frank Sanfilippo {{flagu|USA}} Tampa Bay Rowdies Shaun Saiko {{flag|CAN}} FC Edmonton Week 10 Lance Parker {{flagu|USA}} FC Edmonton Pablo Campos {{flag|BRA}} San Antonio Scorpions 
344413 1 Nuon Netherlands 3022 37:56 91.75 2 University of Twente Netherlands 3022 38:04 91.63 11 North-West University South Africa 3022 47:22 71.70 13 University of KwaZulu-Natal South Africa 3022 47:53 70.40 19 Anadolu University Turkey 3022 57:48 58.00 
34456925 2007 Pinoy Pop Superstar Year 3 Himself GMA Network 2011–2012 Budoy Ryan ABS-CBN 2011 Wansapanataym: Cacai Kikay Jeremy ABS-CBN 2012 Wansapanataym: Hannah Panahon Jeremy ABS-CBN 2012 Maalaala Mo Kaya: Kabibe Ronald ABS-CBN 
34471474 3 2018 11 August Chengdu Shuangliu Sports Centre 4 2018 26 August Foshan Century Lotus Stadium 6 2018 21 September Changsha Helong Sports Center Stadium 7 2018 30 September Macau Cotai Arena 8 2018 6 October Shanghai Hongkou Football Stadium 
34477286 "Arlandria"{{dagger}} Wasting Light Butch Vig   "Arrows" Concrete and Gold Greg Kurstin   {{anchor|B}} "Back & Forth" Wasting Light Butch Vig Featuring Butch Vig  "Ballad of the Beaconsfield Miners" Echoes, Silence, Patience & Grace Gil Norton Featuring Kaki King  "Bridge Burning" {{‡}} Wasting Light Butch Vig   
34518412 1982 John Paye QB Menlo School Stanford Yes Two year NFL career 1984 Hart Lee Dykes WR Bay City Oklahoma State Yes Two-year NFL career 1986 Emmitt Smith RB Escambia Florida Yes Pro Football Hall of Fame, 3x rushing champion 1987 Todd Marinovich QB Mission Viejo USC Yes Two-year NFL career 1988 Terry Kirby RB Tabb Virginia Yes Ten-year NFL career 
34525470 2009 SS Ryan Goins 3rd BA 2009 SS Ryan Goins 3rd CB 2009 SS Ryan Goins 3rd NCBWA 2009 DH Jason Krizan 3rd ABCA 2011 OF Jason Krizan 1st ABCA 
34539587 2001–02 Burlington Cougars OPJHL  42 2 11 13 8  — — — 2002–03 Burlington Cougars OPJHL  15 1 5 6 4  — — — 2006–07 R.I.T. AHA  34 2 6 8 30  — — — 2007–08 R.I.T. AHA  37 2 10 12 40  — — — 2008–09 R.I.T. AHA  38 6 9 15 28  — — — 
3456975 84 Kaiserslautern Rhineland-Palatinate 99794 85 Iserlohn North Rhine-Westphalia 98865 87 Marl North Rhine-Westphalia 92628 90 Ratingen North Rhine-Westphalia 91793 91 Schwerin Mecklenburg-Vorpommern 91583 
3461472 Fri 15 July Montreal 0 Edmonton 38 Edmonton 9,000 Wed 20 July Montreal 29 BC 29 Vancouver 24,392 Wed 20 July Edmonton 4 Calgary 17 Calgary – Tue 26 July BC 49 Montreal 7 Montreal 19,999 Tue 26 July Saskatchewan 6 Ottawa 20 Ottawa – 
34746597 Borac Banja Luka Banja Luka {{flag|SR Bosnia and Herzegovina}} 0033rd Borovo Borovo Naselje {{flag|SR Croatia}} 01313th BSK Slavonski Brod Slavonski Brod {{flag|SR Croatia}} 01111th Famos Hrasnica Hrasnica {{flag|SR Bosnia and Herzegovina}} 01414th Istra Pula {{flag|SR Croatia}} 01212th 
3475875 Erzgebirge Aue Aue-Bad Schlema Sparkassen-Erzgebirgsstadion 15,711 Arminia Bielefeld Bielefeld Schüco-Arena 27,300 VfL Bochum Bochum Vonovia-Ruhrstadion 29,299 Dynamo Dresden Dresden DDV-Stadion 32,066 Hamburger SV Hamburg Volksparkstadion 57,000 
34835457 1993–94 BC Prievidza Slovakofarma Pezinok  1994–95 BC Prievidza Slovakofarma Pezinok  1995–96 Inter Bratislava BC Prievidza  1996–97 Slovakofarma Pezinok Chemosvit Svit  1997–98 Slovakofarma Pezinok Chemosvit Svit  
34885787 Kannada University Hampi {{Yes}} 1992 Kannada  Karnataka Samskrit University Bangalore {{No}} 2011 Sanskrit  Karnataka State Law University Hubli {{Yes}} 2009 Legal  Karnataka State Open University Mysore {{No}} 1996 Distance education  Karnataka State Rural Development and Panchayat Raj University Gadag {{No}} 2016 Rural development  
34889683 24 May 2012 Glasgow Scotland O2 Academy Glasgow 8 July 2012{{ref label|TIP|F|F}} Perth and Kinross Scotland Balado 22 September 2012 Taipei Taiwan Taipei Show 24 September 2012 Seoul South Korea SK Olympic Handball Gymnasium 28 September 2012 Jakarta Indonesia Tennis Indoor Senayan 
34903371 Dominic Maroh {{flagicon|Germany}} {{dts|format=dmy|1987|3|4}} 2008 SSV Reutlingen 21 1 2 0 23 1 Timm Klose {{flagicon|Switzerland}} {{dts|format=dmy|1988|5|9}} 2011 Thun 13 0 1 0 14 0 Javier Pinola {{flagicon|Argentina}} {{dts|format=dmy|1983|2|24}} 2005 Racing Club 17 0 1 0 18 0 Timothy Chandler States}} {{dts|format=dmy|1990|3|29}} 2010 Eintracht Frankfurt 30 1 3 0 33 1 Timmy Simons {{flagicon|Belgium}} {{dts|format=dmy|1976|12|11}} 2010 PSV 34 4 3 0 37 4 
3493589 1 Johnny Dooley Offaly 0-12 12 Derry 4 Gary Biggs Derry 0-10 10 Down 4 Joe Deane Cork 0-10 10 Tipperary 4 Joe Deane Cork 0-10 10 Offaly 7 Johnny Dooley Offaly 0-9 9 Wexford 
349443 Association football Worldwide FIFA World Cup All 64 matches live Association football {{EUR}} UEFA European Championship All 52 matches live Association football {{EUR}} UEFA European Under-21 Championship Selected matches live on ERT Sports Association football {{EUR}} UEFA Champions League Final only, on ERT Sports Association football {{EUR}} UEFA Europa League Final only, on ERT Sports 
34948632 1989 / 1990
(12th) Joshua Miller Class of 1999 Lightning Pictures 1991 / 1992
(14th) Joshua John Miller And You Thought Your Parents Were Weird Trimark Pictures 1991 / 1992
(14th) Robert Oliveri Honey, I Blew Up the Kid Walt Disney Pictures 1991 / 1992
(14th) Benjamin Salisbury Captain Ron Touchstone Pictures 1992 / 1993
(15th) David Krumholtz Life with Mikey Touchstone Pictures 
34950916 2 2 Garth Tander Holden VE Commodore Holden Racing Team 1:21.2908 3 6 Will Davison Ford FG Falcon Ford Performance Racing 1:21.4194 4 19 Jonathon Webb Holden VE Commodore Tekno Autosports 1:21.5164 6 47 Tim Slade Ford FG Falcon James Rosenberg Racing 1:21.6288 7 5 Mark Winterbottom Ford FG Falcon Ford Performance Racing 1:21.7093 
34958150 55 Mark Martin Michael Waltrip Racing Toyota 26.313 136.814 1 14 Tony Stewart Stewart-Haas Racing Chevrolet 26.446 136.126 2 78 Regan Smith Furniture Row Racing Chevrolet 26.471 135.998 3 48 Jimmie Johnson Hendrick Motorsports Chevrolet 26.552 135.583 4 42 Juan Pablo Montoya Earnhardt Ganassi Racing Chevrolet 26.559 135.547 5 
34958432 1989 / 1990
(12th) Robin Weisman Three Men and a Little Lady Touchstone Pictures 1989 / 1990
(12th) Lexi Faith Randall The Long Walk Home Miramax Films 1990 / 1991
(13th) Milla Jovovich Return to the Blue Lagoon Columbia Pictures 1990 / 1991
(13th) Reese Witherspoon Man in the Moon Metro-Goldwyn-Mayer 1991 / 1992
(14th) Meadow Sisto Captain Ron Touchstone Pictures 
34961498 1 99 Jorge Lorenzo Yamaha Factory Racing Yamaha 22 42:44.214 1 25 2 26 Dani Pedrosa Repsol Honda Team Honda 22 +0.852 7 20 3 1 Casey Stoner Repsol Honda Team Honda 22 +2.908 2 16 4 35 Cal Crutchlow Monster Yamaha Tech 3 Yamaha 22 +17.114 3 13 5 4 Andrea Dovizioso Monster Yamaha Tech 3 Yamaha 22 +17.420 6 11 
349637 1954 Juan Manuel Fangio Mercedes Bremgarten Report 1953 Alberto Ascari Ferrari Bremgarten Report 1952 Piero Taruffi Ferrari Bremgarten Report 1951 Juan Manuel Fangio Alfa Romeo Bremgarten Report 1949 Alberto Ascari Ferrari Bremgarten Report 
34979500 Dominic Maroh {{flagicon|Germany}} {{dts|format=dmy|1987|3|4}} 2008 SSV Reutlingen 8 0 2 0 10 0 Pascal Bieler {{flagicon|Germany}} {{dts|format=dmy|1986|2|26}} 2008 Hertha BSC 4 0 0 0 4 0 Javier Pinola {{flagicon|Argentina}} {{dts|format=dmy|1983|2|24}} 2005 Racing Club 28 2 4 1 32 3 Timothy Chandler {{flagicon|the United States}} {{dts|format=dmy|1990|3|29}} 2010 Eintracht Frankfurt 14 1 2 0 16 1 Timmy Simons {{flagicon|Belgium}} {{dts|format=dmy|1976|12|11}} 2010 PSV 34 2 4 3 38 5 
35009287 1824 Andrew Jackson 1824 John Quincy Adams 1840 Martin Van Buren 1840 William Henry Harrison 1848 Lewis Cass 1848 Zachary Taylor 1860 John C. Breckinridge 1860 Abraham Lincoln 1876 Samuel J. Tilden 1876 Rutherford B. Hayes 
35051866 1 9 Kasey Kahne Evernham Motorsports Dodge 30.293 178.259 2 10 Scott Riggs Evernham Motorsports Dodge 30.300 178.218 3 5 Kyle Busch Hendrick Motorsports Chevrolet 30.317 178.118 4 19 Elliott Sadler Evernham Motorsports Dodge 30.327 178.059 5 31 Jeff Burton Richard Childress Racing Chevrolet 30.340 177.983 
35058413 Dennis Diekmeier German {{dts|format=dmy|1989|10|20}} 2009 Werder Bremen 30 0 0 0 2 0 32 0 Breno Brazilian {{dts|format=dmy|1989|10|13}} 2010 Bayern Munich 7 0 0 0 0 0 7 0 Dominic Maroh German {{dts|format=dmy|1987|3|4}} 2008 SSV Reutlingen 26 1 2 0 2 0 30 1 Pascal Bieler German {{dts|format=dmy|1986|2|26}} 2008 Hertha BSC 3 0 1 0 0 0 4 0 Matthew Spiranovic Australian {{dts|format=dmy|1988|6|27}} 2007 Australian Institute of Sport 1 0 0 0 0 0 1 0 
35126621 Agnew Gold Mine Gold Fields Leinster Goldfields-Esperance 192,100 (2008–09)  Darlot-Centenary Gold Mine Gold Fields Leonora Goldfields-Esperance 352,000 (2009) {{ref|A7|[7]}}  Granny Smith Gold Mine Gold Fields Laverton Goldfields-Esperance 352,000 (2009) {{ref|A7|[7]}}  Gwalia Gold Mine St Barbara Limited Leonora Goldfields-Esperance 82,795 (2008–09)  Higginsville Gold Mine Avoca Resources Limited Higginsville Goldfields-Esperance 131,227 (2008–09)  
35146200 29 {{flagicon|CAN}} {{sortname|Bryan|Bickell}} LW L {{hs|27–107}}27 2004 Bowmanville, Ontario first 36 {{flagicon|CAN}} {{sortname|Dave|Bolland}} C R {{hs|27-019}}27 2004 Etobicoke, Ontario second {{small|('''[[2010 Stanley Cup Finals|2010]]''')}} 50 {{flagicon|CAN}} {{sortname|Corey|Crawford}} G L {{hs|28–175}}28 2003 Montreal, Quebec first 30 {{flagicon|CAN}} {{sortname|Ray|Emery}} G L {{hs|30–269}}30 2011 Hamilton, Ontario second {{small|([[2007 Stanley Cup Finals|2007]])}} 67 {{flagicon|CZE}} {{sortname|Michael|Frolik|Michael Frolík}} RW L {{hs|25–127}}25 2011 Kladno, Czechoslovakia first 
35174116 6 November 1952 Glyn Daniel Pitt Rivers Museum Sir Julian Huxley, T. C. Lethbridge, Sir Mortimer Wheeler  11 November 1954 Glyn Daniel Sheffield City Museum Adrian Digby, Hugh Shortt, Edward Wenham  27 January 1955 Glyn Daniel Grosvenor Museum Sir Mortimer Wheeler  21 April 1955 Glyn Daniel Birmingham Museum and Art Gallery Thomas Bodkin, Adrian Digby, Sir Mortimer Wheeler Fiftieth episode 17 May 1956 John Betjeman Metropolitan Museum of Art, New York Stephen Bone, Sir Gerald Kelly, Mary Woodall  
35246141 1 5 Kasey Kahne Hendrick Motorsports Chevrolet 19.496 97.128 2 29 Kevin Harvick Richard Childress Racing Chevrolet 19.512 97.048 3 11 Denny Hamlin Joe Gibbs Racing Toyota 19.521 97.003 4 15 Clint Bowyer Michael Waltrip Racing Toyota 19.521 97.003 6 55 Brian Vickers Michael Waltrip Racing Toyota 19.569 96.765 
35390012 26 March 2011 CAF Championship qualification Dakar, Senegal {{fbu|23|SEN}} 0 – 0 {{fbu|23|ANG}}  9 April 2011 CAF Championship qualification Benguela, Angola {{fbu|23|ANG}} 1 – 1 (a.e.t.) {{fbu|23|SEN}} Fall {{goal|110}} 4 June 2011 CAF Championship qualification Tunis, Tunisia {{fbu|23|TUN}} 0 – 0 {{fbu|23|SEN}}  18 June 2011 CAF Championship qualification Dakar, Senegal {{fbu|23|SEN}} 1 – 0 {{fbu|23|TUN}} Sané {{goal|50}} 26 November 2011 CAF Championship Tangier, Morocco {{fbu|23|ALG}} 1 – 0 {{fbu|23|SEN}}  
35434210 2010 Memorial Van Damme  Antonietta Di Martino
(high jump, 1.98 m)  2013 Shanghai Golden Grand Prix   Yadisleidy Pedroso
(400 m hs, 54.54) 2013 Golden Gala  Daniele Greco
(triple jump, 17.04 m)  2013 Herculis  Daniele Greco
(triple jump, 17.25 m)  2015 Bislett Games  Marco Fassinotti
(high jump, 2.33 m {{AthAbbr|NR}})  
35460513 Clean & Jerk 185&nbsp;kg Andreas Behm 30 September 1991 World Championships {{flagicon|GER}} Donaueschingen, Germany  Total 327.5&nbsp;kg Andreas Behm 30 September 1991 World Championships {{flagicon|GER}} Donaueschingen, Germany  Snatch 177.5&nbsp;kg Marc Huster 26 November 1999 World Championships {{flagicon|GRE}} Athens, Greece  Clean and jerk 215&nbsp;kg Marc Huster 17 April 1999 European Championships {{flagicon|ESP}} A Coruña, Spain  Snatch 182.5&nbsp;kg Oliver Caruso 2 May 1998 European Championships {{flagicon|GER}} Riesa, Germany  
35470750 9 August 1982 Columbia United States Merriweather Post Pavilion 10 August 1982 Columbia United States Merriweather Post Pavilion 13 August 1982 New York City United States Forest Hills Stadium 14 August 1982 New York City United States Forest Hills Stadium 15 August 1982 New York City United States Forest Hills Stadium 
35500571 Homo sapiens Human NP_057584.2 233aa 100% 100% Nomascus leucogenys Gibbon XP_003269034.1 233aa 99% 99% Macaca mulatta Rhesus monkey NP_001181035.1 233aa 98% 98% Callithrix jacchus Marmoset XP_002763066.1 232aa 95% 97% Mus musculus Mouse NP_080588.1 198aa 80% 85% 
35566346 6 Matt Heath CB {{flagicon|ENG}} Leicester {{birth date and age2 |2012|6|1|1981|11|1|df=y}} 105 5 Leeds United 13 May 2008 Free transfer 18 Tom Eastman CB {{flagicon|ENG}} Colchester {{birth date and age2 |2012|6|1|1991|10|21|df=y}} 27 3 Ipswich Town 1 July 2011 Free transfer 7 Karl Duguid MF {{flagicon|ENG}} Letchworth {{birth date and age2 |2012|6|1|1978|3|21|df=y}} 463 48 Plymouth Argyle 20 July 2011 Free transfer 10 Kemal Izzet MF {{flagicon|ENG}} Whitechapel {{birth date and age2 |2012|6|1|1980|9|29|df=y}} 461 21 Charlton Athletic 13 April 2001 Free transfer 15 Marcus Bean MF {{flagicon|JAM}} Hammersmith {{birth date and age2 |2012|6|1|1984|11|2|df=y}} 0 0 Brentford 8 June 2012 Free transfer 
3564144 1997–98 Brandon Wheat Kings WHL  1 0 0 0 0  — — — 1998–99 Brandon Wheat Kings WHL  54 11 12 23 46  5 0 0 1999–00 Brandon Wheat Kings WHL  65 17 19 36 40  — — — 2000–01 Brandon Wheat Kings WHL  70 38 33 71 49  6 3 0 2001–02 Brandon Wheat Kings WHL  52 29 35 64 52  19 11 10 
35642083 Homo sapiens Human NP_001073963.1 613aa 100% 100% Mus musculus Mouse NP_001139420.1 578aa 87.9% 91.0% Macaca mulatta Rhesus monkey XP_002801613.1 550aa 92.0% 93.0% Gallus gallus Chicken XP_422466.3 575aa 71.3% 81.0% Taeniopygia guttata Zebra finch XP_002193183 575aa 73.0% 82.0% 
356444 1974 With United Left With United Left With United Left {{composition bar|8|300|hex={{Communist Party of Greece/meta/color}}}} {{increase}}8 4th Opposition Charilaos Florakis 1981 620,302 10.9% {{increase}}1.5 {{composition bar|13|300|hex={{Communist Party of Greece/meta/color}}}} {{increase}}2 3rd Opposition Charilaos Florakis 1985 629,525 9.9% {{decrease}}1.0 {{composition bar|12|300|hex={{Communist Party of Greece/meta/color}}}} {{decrease}}1 3rd Opposition Charilaos Florakis 1993 313,001 4.5% {{decrease}}5.8 {{composition bar|9|300|hex={{Communist Party of Greece/meta/color}}}} {{decrease}}10 4th Opposition Aleka Papariga 1996 380,046 5.6% {{increase}}1.1 {{composition bar|11|300|hex={{Communist Party of Greece/meta/color}}}} {{increase}}2 3rd Opposition Aleka Papariga 
35676818 2000–01 Iserlohn Roosters DEL  2001–02 Iserlohn Roosters DEL  2002–03 Iserlohn Roosters DEL  2005–06 Adler Mannheim DEL  2006–07 Adler Mannheim DEL  
35713621 1 12 Will Power Team Penske Chevrolet 75 2:08:18.2816 1 63 53 2 28 Ryan Hunter-Reay Andretti Autosport Chevrolet 75 + 0.9045 5 0 40 3 15 Takuma Sato Rahal Letterman Lanigan Racing Honda 75 + 2.3905 25 0 35 5 10 Dario Franchitti Chip Ganassi Racing Honda 75 + 5.1722 2 1 30 6 27 James Hinchcliffe Andretti Autosport Chevrolet 75 + 6.2615 4 1 28 
35716779 World Championships in Athletics Anju Bobby George {{bronze3}} Long jump 2003 Commonwealth Games Milkha Singh {{gold1}} 440 yards 1958 Commonwealth Games Mohinder Singh Gill {{bronze3}} Triple jump 1970 Commonwealth Games Mohinder Singh Gill {{silver2}} Triple jump 1974 Commonwealth Games Suresh Babu {{bronze3}} Long jump 1978 
35730250 1 {{sort|GK|[[Goalkeeper (association football)|GK]]}} Chris Kirkland 13 August 2012 Oldham Athletic Boundary Park  4 {{sort|DF|[[Defender (association football)|DF]]}} Anthony Gardner 13 August 2012 Oldham Athletic Boundary Park  10 {{sort|FW|[[Forward (association football)|FW]]}} Chris Maguire 13 August 2012 Oldham Athletic Boundary Park  16 {{sort|MF|[[Midfielder|MF]]}} Rhys McCabe 18 August 2012 Derby County Pride Park Stadium  18 {{sort|MF|[[Midfielder|MF]]}} Danny Mayor 1 September 2012 Crystal Palace Selhurst Park  
35733933 Agustín Amado Florentín Cabral Authentic Radical Liberal Party Authentic Radical Liberal Party Cordillera Asa Javier González Ortiz Authentic Radical Liberal Party Authentic Radical Liberal Party Misiones Celso Maldonado Duarte Authentic Radical Liberal Party Authentic Radical Liberal Party Central César Ariel Oviedo Verdún National Union of Ethical Citizens National Union of Ethical Citizens Central Dionisio Oswaldo Amarilla Guirland Authentic Radical Liberal Party Authentic Radical Liberal Party Central 
3575143 1989–90 Nacka HK SWE II &nbsp; 9 2 3 5 4 &nbsp; — — — 1995–96 San Jose Sharks NHL &nbsp; 71 8 31 39 42 &nbsp; — — — 1996–97 San Jose Sharks NHL &nbsp; 69 3 14 17 63 &nbsp; — — — 1997–98 San Jose Sharks NHL &nbsp; 79 5 20 25 65 &nbsp; 6 0 0 1998–99 San Jose Sharks NHL &nbsp; 74 0 13 13 66 &nbsp; 6 0 2 
35831279 1941–42 Northern Regional League ? Grosvenor Park 0 – 3  ? Windsor Park 3 – 7  1941–42 Northern Regional League ? Grosvenor Park 3 – 4  ? Windsor Park 3 – 3  1942–43 Northern Regional League ? Grosvenor Park 2 – 1  ? Windsor Park 4 – 3  1942–43 Northern Regional League ? Grosvenor Park 1 – 3  ? Windsor Park 5 – 3  1943–44 Northern Regional League ? Grosvenor Park 2 – 2  ? Windsor Park 4 – 1  
35877471 December 18, 1978 1 game{{efn|name=Team}} Chuck Fairbanks Head coach New England Patriots Breaching his contract with the Patriots by joining the Colorado Buffaloes  August 31, 2010 30 days{{efn|name=Team}} Travis Jones Defensive line coach New Orleans Saints Involvement in a real estate scam  December 13, 2010 Indefinite{{efn|name=Team}} Sal Alosi Head strength and conditioning coach New York Jets Tripping Miami Dolphins cornerback Nolan Carroll  September 9, 2011 2 games Andy Moeller Offensive line coach Baltimore Ravens Violation of team rules, stemming from an arrest after driving under the influence  March 21, 2012 Entire {{NFL Year|2012}} season Gregg Williams Defensive coordinator St. Louis Rams Involvement in the New Orleans Saints bounty program  
35879478 1 Mehrabad International Airport Tehran 14,826,107 0 14,826,107 {{decrease}}15% 2 Mashhad International Airport Mashhad 7,253,837 1,571,809 8,825,646 {{decrease}}16% 3 Imam Khomeini International Airport Tehran 19,512 7,251,826 7,271,338 {{decrease}}19% 4 Shiraz International Airport Shiraz 2,662,263 444,050 3,106,313 {{decrease}}14% 5 Ahwaz International Airport Ahwaz 2,327,002 61,330 2,338,332 {{decrease}}18% 
3591427 2000 CLE 15 39 422 10.8 37 0 24 0 0 2001 CLE 11 18 211 11.7 26 0 7 1 1 2002 CLE 13 38 601 15.8 43 5 31 0 0 2003 CLE 15 62 729 11.8 44 2 43 0 0 2004 CLE 16 55 806 14.7 58 2 25 0 0 
35941754 7 August 2004 Strasbourg H 2 - 1 Jau {{goal|43}}, Vairelles {{goal|81}} 6,714 14 August 2004 Nantes A 1 - 1 André {{goal|74}} 27,654 21 August 2004 Ajaccio H 1 - 0 Jau {{goal|69}} 8,598 27 August 2004 Nice A 1 - 1 Vairelles {{goal|79}} 9,649 11 September 2004 Auxerre H 1 - 0 Yahia {{goal|32}} 5,817 
35943827 3 August 2002 Lens H 1 - 1 Essien {{goal|61}}, Maurice {{sent off|1|89}} 9,139 17 August 2002 AS Monaco H 1 - 0 Maurice {{sent off|2|59}}, Prince {{goal|67}} 10,055 15 September 2002 Ajaccio H 1 - 2 Laslandes {{goal|27}} 8,488 28 September 2002 Bordeaux H 2 - 1 Maurice {{goal|15|pen.}}, Laslandes {{goal|62}} 7,167 19 October 2002 Le Havre H 3 - 1 F. Mendy {{goal|2}}, Maurice {{goal|5}}, Gourvennec {{goal|57}} 6,018 
3594414 2018 Victor Magtanggol Tomas Magtanggol Supporting role GMA Network 2016 Be My Lady Emilio "Emil" Crisostomo Supporting role ABS-CBN 2015 Once Upon a Kiss Pedring Servando Supporting role GMA Network 2013-2014 Got to Believe Tatay Poro Supporting role ABS-CBN 2012 Angelito: Ang Bagong Yugto Delfin Dimaano Supporting role ABS-CBN 
35946802 5 August 2000 Bordeaux H 2 - 0 Née {{goal|44||89}} 9,285 18 August 2000 Lyon H 2 - 0 Lachuer {{goal|53}}, André {{goal|61}} 9,927 6 September 2000 Lille H 1 - 0 Née {{goal|51}} 6,677 30 September 2000 Metz H 1 - 0 Casanova {{goal|43}} 6,252 13 October 2000 AS Monaco H 0 - 2  8,100 
35960405 1953 Hajduk Split Vienna 2–1 1954 Red Star Belgrade Rijeka 3–1 1955 Red Star Belgrade Rijeka 2–2 (8–7) 1958 Hajduk Split Rijeka 1–0 1960 Rijeka Dinamo Zagreb 1–1 (4–3) 
35963422 9 August 2003 Metz H 0 - 2 - 8,910 16 August 2003 AS Monaco A 2 - 0 - 11,595 23 August 2003 Montpellier H 1 - 0 Maurice {{goal|88|pen.}} 6,236 30 August 2003 Toulouse A 0 - 2 Maurice {{goal|34}}, Ben Saada {{goal|39}} 14,152 13 September 2003 Guingamp H 4 - 2 A. Diarra {{goal|16}}, Ben Saada {{goal|36}}, Née {{goal|51||86}} 5,689 
35974884 55 Mark Martin Michael Waltrip Racing Toyota 22.742 158.297 1 48 Jimmie Johnson Hendrick Motorsports Chevrolet 22.747 158.263 2 15 Clint Bowyer Michael Waltrip Racing Toyota 22.778 158.047 4 17 Matt Kenseth Roush Fenway Racing Ford 22.787 157.985 5 29 Kevin Harvick Richard Childress Racing Chevrolet 22.804 157.867 6 
35984646 2 10 Dario Franchitti Chip Ganassi Racing Honda 250 + 1.9 s 9 15 40 3 9 Scott Dixon Chip Ganassi Racing Honda 250 + 2.6 s 15 25 35 4 28 Ryan Hunter-Reay Andretti Autosport Chevrolet 250 + 3.0 s 22 0 32 6 38 Graham Rahal Chip Ganassi Racing Honda 250 + 5.4 s 18 0 28 7 15 Takuma Sato Rahal Letterman Lanigan Racing Honda 249 Contact 21 6 26 
35989708 9th 2007 "Irony" Artist of The Year {{nom}} 9th 2007 The Wonder Years Album of The Year {{nom}} 10th 2008 "Nobody" Best Female Group {{won}} 10th 2008 "Nobody" Artist of the Year {{nom}} 10th 2008 "Nobody" Song of the Year {{won}} 
3606238 1986–87 Winnipeg Jets NHL &nbsp; 72 7 29 36 26 &nbsp; 10 2 3 1987–88 Winnipeg Jets NHL &nbsp; 38 5 10 15 18 &nbsp; 5 1 1 1988–89 Winnipeg Jets NHL &nbsp; 75 15 47 62 32 &nbsp; — — — 1989–90 Winnipeg Jets NHL &nbsp; 77 9 46 55 32 &nbsp; 7 0 2 1990–91 Winnipeg Jets NHL &nbsp; 71 12 29 41 24 &nbsp; — — — 
36064569 20 Joey Logano Joe Gibbs Racing Toyota 50.112 179.598 1 99 Carl Edwards Roush Fenway Racing Ford 50.317 178.866 2 27 Paul Menard Richard Childress Racing Chevrolet 50.397 178.582 3 18 Kyle Busch Joe Gibbs Racing Toyota 50.399 178.575 4 11 Denny Hamlin Joe Gibbs Racing Toyota 50.408 178.543 5 
36107899 1974–75 AIK SWE &nbsp; 4 0 0 0 0 &nbsp; — — — 1975–76 AIK SEL &nbsp; 31 1 2 3 22 &nbsp; — — — 1976–77 AIK SEL &nbsp; 35 3 9 12 23 &nbsp; — — — 1977–78 AIK SEL &nbsp; 23 4 4 8 34 &nbsp; — — — 1978–79 AIK SEL &nbsp; 35 5 3 8 20 &nbsp; — — — 
3613296 Beretta 92 {{ITA}} Pistol 9×19mm Parabellum  Browning HP35 {{BEL}} Pistol 9×19mm Parabellum  Taurus 9&nbsp;mm {{BRA}} Pistol 9×19mm Parabellum  T65 {{TWN}} Assault rifle 5.56×45mm  FAL {{BEL}} Assault rifle 7.62×51mm  
36155309 10 January Abbey Road The Beatles 17 January Abbey Road The Beatles 24 January Abbey Road The Beatles 31 January Abbey Road The Beatles 7 February Led Zeppelin II Led Zeppelin 
36176689 1 6 15 Clint Bowyer Michael Waltrip Racing Toyota 112 47 2 24 14 Tony Stewart Stewart-Haas Racing Chevrolet 112 42 4 21 55 Brian Vickers Michael Waltrip Racing Toyota 112 40 5 3 48 Jimmie Johnson Hendrick Motorsports Chevrolet 112 39 6 2 24 Jeff Gordon Hendrick Motorsports Chevrolet 112 39 
36205640 12 29 October 1995 1. MFL Tumbe Kafe 2–1 Petreski ?  28 1 April 2001 1. MFL Tumbe Kafe 0–1 Miserdovski  3,000 38 29 April 2007 1. MFL Tumbe Kafe 1–2 Kirovski, Ristevski Blazhevski 3,500 41 16 March 2008 1. MFL Tumbe Kafe 2–1 Bajevski Todorovski, Elmazovski 7,000 46 25 October 2009 1. MFL Tumbe Kafe 1–0  Altiparmakovski 1,500 
36228305 1 August 2008 Troyes A 1 - 2 Genest {{goal|11}}, Cherrad {{goal|38}} 8,169 8 August 2008 Angers H 0 - 0 - 5,630 15 August 2008 Strasbourg A 1 - 0 - 13,087 22 August 2008 Guingamp H 2 - 1 André {{goal|31}}, Barthélémy {{goal|52}}, {{sent off|2|69}} Méniri 4,275 29 August 2008 Tours A 0 - 1 André {{goal|6}} 6,582 
36232033 27 July 2007 Le Havre H 0 - 2 - 3,766 3 August 2007 Clermont A 2 - 3 Jau {{goal|60}}, Ben Saada {{goal|69}}, F. Mendy {{goal|90+4}} 5,911 13 August 2007 Brest A 3 - 1 F. Mendy {{goal|59|pen.}} 8,041 17 August 2007 Gueugnon H 1 - 0 Pentecôte {{goal|5}}, Barthélémy {{sent off|0|79}} 3,449 24 August 2007 Troyes A 2 - 0  8,172 
36236292 28 July 2006 Istres A 2 - 2 Laville {{goal|6}}, Meslin {{goal|87}} 3,326 4 August 2006 Reims H 1 - 0 Gomez {{sent off|0|7}}, F. Mendy {{goal|41}} 4,750 7 August 2006 Libourne A 2 - 4 André {{goal|12}}, Brillault {{goal|50|o.g.}}, G. Coulibaly {{sent off|0|74}}, Meslin {{goal|82||90+3}} 3,170 11 August 2006 Brest H 4 - 2 Meslin {{goal|54|pen.}}, Maire {{goal|70}}, Camadini {{goal|80}}, F. Mendy {{goal|90+3}} 5,102 18 August 2006 Caen A 2 - 0 - 19,135 
36236990 12 August 2005 Amiens A 1 - 2 Jau {{goal|12}}, Conombo {{goal|84}} 7,582 16 August 2005 Brest H 4 - 1 Lorenzi {{goal|35|pen.|||55|pen.}}, Jau {{goal|65||69}} 5,498 22 August 2005 Valenciennes A 0 - 1 Née {{goal|9}} 9,688 26 August 2005 Reims H 0 - 1 - 6,159 12 September 2005 Laval A 1 - 2 Maire {{goal|87}}, Meslin {{goal|90}} 5,621 
36239526 48 Jimmie Johnson Hendrick Motorsports Chevrolet 1 18 Kyle Busch Joe Gibbs Racing Toyota 2 11 Denny Hamlin Joe Gibbs Racing Toyota 3 29 Kevin Harvick Richard Childress Racing Chevrolet 4 15 Clint Bowyer Michael Waltrip Racing Toyota 6 
3625515 1990
(42nd) Ted Danson Sam Malone Cheers NBC 1990
(42nd) John Goodman Dan Conner Roseanne ABC 1991
(43rd) Ted Danson Sam Malone Cheers NBC 1991
(43rd) John Goodman Dan Conner Roseanne ABC 1992
(44th) Ted Danson Sam Malone Cheers NBC 
3625648 1990
{{small|[[42nd Primetime Emmy Awards|(42nd)]]}} Bebe Neuwirth Dr. Lilith Sternin Cheers NBC 1990
{{small|[[42nd Primetime Emmy Awards|(42nd)]]}} Estelle Getty Sophia Petrillo The Golden Girls NBC 1990
{{small|[[42nd Primetime Emmy Awards|(42nd)]]}} Rhea Perlman Carla Tortelli Cheers NBC 1991
{{small|[[43rd Primetime Emmy Awards|(43rd)]]}} Bebe Neuwirth Dr. Lilith Sternin Cheers NBC 1991
{{small|[[43rd Primetime Emmy Awards|(43rd)]]}} Estelle Getty Sophia Petrillo The Golden Girls NBC 
36257033 2012 2012 Royal Television Society Awards Actor (Male) Lennie James {{nom}} 2012 2012 Royal Television Society Awards Writer – Drama Jed Mercurio {{nom}} 2014 2014 Crime Thriller Awards Best Actress Dagger Keeley Hawes {{won}} 2014 2014 Crime Thriller Awards Best Supporting Actress Dagger Vicky McClure {{nom}} 2014 BAFTA Scotland Best Actor – Television Mark Bonnar {{nom}} 
3626593 1980
(32nd) Howard Hesseman Dr. Johnny Fever WKRP in Cincinnati CBS 1981
(33rd) Howard Hesseman Dr. Johnny Fever WKRP in Cincinnati CBS 1983
(35th) Nicholas Colasanto Coach Ernie Pantusso Cheers NBC 1984
(36th) Nicholas Colasanto Coach Ernie Pantusso Cheers NBC 1984
(36th) George Wendt Norm Peterson Cheers NBC 
36288686 1 Bordeaux 3-2 Bastia 30 July 1999, 19:00 Née {{goal|57}}, Petersen {{goal|68}} 2 Bastia 3-0 Strasbourg 6 August 1999, 20:00 Casanova {{goal|34}}, Petersen {{goal|67}}, Née {{goal|82}} 3 AS Monaco 4-0 Bastia 14 August 1999, 20:00  4 Bastia 2-1 Nantes 22 August 1999, 19:00 Laurent {{goal|60}}, Prince {{goal|80}} 5 O. Marseille 1-1 Bastia 28 August 1999, 20:00 Née {{goal|7}} 
3629004 1998–99 Cleveland Jr. Barons NAHL  50 13 20 33 58  — — — 1999–00 Cleveland Jr. Barons NAHL  56 35 50 85 129  — — — 2000–01 Cleveland Jr. Barons NAHL  48 27 37 64 122  — — — 2005–06 Chicago Wolves AHL  4 0 2 2 2  — — — 2005–06 Atlanta Thrashers NHL  71 10 10 20 46  — — — 
3633191 1 France Alexandre Premat 20 31:06.730 10 2 Great Britain Robbie Kerr 20 +0.243 9 3 Switzerland Neel Jani 20 +5.850 8 4 Ireland Ralph Firman 20 +6.160 7 7 Germany Timo Scheider 20 +10.112 4 
36333198 2017 Darkest Hour Best Actor {{won}} {{n/a}}  2017 Darkest Hour Best Actor {{won}} {{n/a}}  2017 Darkest Hour Best Actor {{won}} {{n/a}}  2011 Tinker Tailor Soldier Spy Best Actor {{nom}} Michael Shannon (Take Shelter)  2017 Darkest Hour Best Actor {{nom}} Timothée Chalamet (Call Me by Your Name)  
36342442 Trinity Laban Conservatoire of Music and Dance {{fontcolor|white|105}} 185 University of York 290 16 July 2012 Wadham College, Oxford {{fontcolor|white|105}} 120 University of Bristol 225 13 August 2012 University of Strathclyde {{fontcolor|white|70}} 245 University of Durham 315 20 August 2012 Queen Mary, University of London {{fontcolor|white|120}} 150 Jesus College, Oxford 270 27 August 2012 Magdalen College, Oxford 205 {{fontcolor|white|125}} Sidney Sussex College, Cambridge 330 3 September 2012 
36350671 Dec. 15 New Mexico Bowl University Stadium
University of New Mexico<br/ >Albuquerque, NM
1:00 pm ESPN Nevada Wolf Pack (7-5)
Arizona Wildcats (7-5) MWC
Pac-12 Nevada 48
Arizona 49 Dec. 15 Famous Idaho Potato Bowl Bronco Stadium
Boise State University
Boise, ID
4:30 pm ESPN Toledo Rockets (9-3)
#22 Utah State Aggies (10-2) MAC
WAC Toledo 15
Utah State 41 Dec. 20 Poinsettia Bowl Qualcomm Stadium
San Diego, CA
8:00 pm ESPN San Diego State Aztecs (9-3)
BYU Cougars (7-5) MWC
Independent San Diego State 6
BYU 23 Dec. 22 New Orleans Bowl Mercedes-Benz Superdome
New Orleans, LA
Noon ESPN East Carolina Pirates (8-4)
Louisiana–Lafayette Ragin' Cajuns (8-4) C-USA
Sun Belt East Carolina 34
Louisiana-Lafayette 43 Dec. 22 Maaco Bowl Las Vegas Sam Boyd Stadium
University of Nevada, Las Vegas
Whitney, NV
3:30 pm ESPN #19 Boise State Broncos (10-2)
Washington Huskies (7-5) MWC
Pac-12 Boise State 28
Washington 26 
3635151 1991–92 Regina Pats WHL  70 4 22 26 72  — — — 1992–93 Regina Pats WHL  72 12 29 41 95  13 3 8 1993–94 Regina Pats WHL  56 14 36 50 100  4 0 0 1996–97 Toronto Maple Leafs NHL  14 1 1 2 2  — — — 1999–00 Toronto Maple Leafs NHL  6 0 2 2 2  — — — 
36361793 18 Kyle Busch Joe Gibbs Racing Toyota 28.548 133.417 1 5 Kasey Kahne Hendrick Motorsports Chevrolet 28.551 133.403 2 11 Denny Hamlin Joe Gibbs Racing Toyota 28.552 133.399 3 15 Clint Bowyer Michael Waltrip Racing Toyota 28.569 133.319 5 48 Jimmie Johnson Hendrick Motorsports Chevrolet 28.583 133.254 7 
36382452 2011 Sounds of San Francisco Driver: San Francisco Ubisoft Printed on yellow vinyl. Sounds of San Francisco was included within the collector's edition of the PC and PlayStation 3 versions of Driver: San Francisco. Released for PAL region copies only.  2011 Halo: Combat Evolved Anniversary Halo: Combat Evolved Anniversary Sumthing Else Music Works Limited to 2000 copies. Printed on green vinyl.  2011 Myth: The Xenogears Orchestral Album Xenogears Square Enix Includes 6 of the 14 tracks from the CD edition  2012 Halo 4 Original Soundtrack: Special Limited Edition Halo 4 7&nbsp;Hz Productions 180 Gram, 12" Master Chief picture disk vinyl of remixes included in Special Edition release of Halo 4 Soundtrack.  2013 Persona 4 Arena: Original Arrange Soundtrack Persona 4 Arena Atlus Preorder bonus at GAME stores in the UK. Side A: The Arena (Naked Mix), The Prince of Junes (Electro Mix), Like a Dragon (Girl Pop Mix). Side B: Princess Amagi (Traditional Taste Mix), The Wandering Wolf (Straight Mix), Missions for the Brilliant Executioner (2K Mix)  
3643568 1962 {{flag|Belgium}} Fud Leclerc "Ton nom" 1962 {{flag|Austria}} Eleonore Schwarz "Nur in der Wiener Luft" 1962 {{flag|Netherlands}} De Spelbrekers "Katinka" 1963 {{flag|Netherlands}} Annie Palmen "Een speeldoos" 1963 {{flag|Norway}} Anita Thallaug "Solhverv" 
36436714  Buller Crusaders Westport  East Coast Hurricanes Ruatoria  Horowhenua-Kapiti Hurricanes Levin  King Country Chiefs Taupo  Mid Canterbury Crusaders Ashburton 
36437985 8 August 1998 Montpellier H 2 - 2 André {{goal|8||||90|pen.}} 5,744 22 August 1998 Metz H 3 - 0 André {{goal|31}}, Née {{goal|53}}, Paulo Alves {{goal|87}} 6,440 30 August 1998 Auxerre A 1 - 0 Jurietti {{sent off|0|74}} 9,662 11 September 1998 Le Havre H 2 - 0 Laurent {{goal|10||74}}, André {{sent off|2|56}} 4,434 24 September 1998 Marseille H 0 - 2 - 8,459 
36444779 11 Denny Hamlin Joe Gibbs Racing Toyota 49.244 182.763 1 99 Carl Edwards Roush Fenway Racing Ford 49.455 181.984 2 20 Joey Logano Joe Gibbs Racing Toyota 49.517 181.756 3 43 Aric Almirola Richard Petty Motorsports Ford 49.538 181.679 4 16 Greg Biffle Roush Fenway Racing Ford 49.578 181.532 5 
36445038 8 August 1997 Guingamp H 1 - 0 Siljak {{goal|81}} 8,000 5 September 1997 Bordeaux H 4 - 1 Jestrovic {{goal|24||31}}, Etame {{goal|79}}, Swierczewski {{goal|81}} 7,000 21 September 1997 Metz H 0 - 0 Prince {{sent off|0|70}} 7,000 4 October 1997 Cannes H 5 - 1 Siljak {{goal|3||||39|pen.}}, Gohel {{goal|29}}, Jurietti {{goal|80}}, Perez {{goal|84}} 5,000 25 October 1997 Marseille H 1 - 1 Siljak {{goal|4}} 10,000 
36511651 2 15 Takuma Sato Rahal Letterman Lanigan Racing Honda 75 + 0.8367 3 0 40 3 12 Will Power Team Penske Chevrolet 75 + 5.3697 17 3 35 4 38 Graham Rahal Chip Ganassi Racing Honda 75 + 6.9481 8 0 32 5 98 Alex Tagliani Team Barracuda – BHA Honda 75 + 15.2358 4 49 32 6 10 Dario Franchitti Chip Ganassi Racing Honda 75 + 15.8757 1 0 28 
365200 Henry I the Bearded File:Jan Matejko, Henryk I Brodaty.jpg 1165 1201–1238 19 March 1238 Lower Silesia Hedwig of Andechs
1188
seven children also monarch of Poland. Henry II the Pious Image:Henryk II Pobożny tomb effigy.PNG 1196 1238–1241 9 April 1241 Lower Silesia Anna of Bohemia
1216
ten children also monarch of Poland. Henry V the Fat File:Henryk V Brzuchaty seal 1289.PNG 1248 1278–1290 22 February 1296 Legnica Elisabeth of Greater Poland
1277
eight children Son of Boleslaus II, was made first Duke of Świdnica-Jawor in his father's lifetime. After Boleslaus II's death, he gave this duchy to his brother Boleslaus III to inherit Legnica. In 1290 after the death of the childless Henry IV, he also inherited Wrocław. Mieszko III File:Mieszko I Cieszyński.JPG 1252/6 1290-1315 27 June 1315| Cieszyn Unknown
between 1275 and 1280
three children Sons of Ladislaus I, ruled jointly until 1290, when Mieszko founded his own duchy, Cieszyn. Casimir II  1253/7 1282-1284 10 March 1312 Opole Helena
between 1275 and 1278
six children Sons of Ladislaus I, ruled jointly. In 1284, they divided the land: Boleslaus retained Opole and Casimir received Bytom, as its first duke. 
36537257 1 Emiliano Viviano {{flagicon|ITA}} GK {{birth date and age2|2013|6|30|1985|12|1}} Palermo 2012 32 0 12 Cristiano Lupatelli {{flagicon|ITA}} GK {{birth date and age2|2013|6|30|1978|6|21}} Genoa 2012 1 0 4 Facundo Roncaglia {{flagicon|ARG}} CB / RB {{birth date and age2|2013|6|30|1987|2|10}} Boca Juniors 2012 24 3 5 Marvin Compper {{flagicon|GER}} CB / LB {{birth date and age2|2013|6|30|1985|6|14}} 1899 Hoffenheim 2013 7 0 6 Mohamed Sissoko {{flagicon|MLI}} CM / DM {{birth date and age2|2013|6|30|1985|1|22}} Paris Saint-Germain 2013 5 0 
36572083 2013 Suriname International Soren Opti {{flagicon|ITA}} Giovanni Greco
{{flagicon|ITA}} Rosario Maddaloni 14–21, 21-23 {{bronze3}} Semi-Finalist 2011 Suriname International Mitchel Wongsodikromo {{flagicon|BRA}} Luis Henrique Dos Santos Jr.
{{flagicon|BRA}} Alex Yuwan Tjong 21-14, 21–17 {{gold1}} Winner 2011 Miami International Mitchel Wongsodikromo {{flagicon|BRA}} Hugo Arthuso
{{flagicon|BRA}} Daniel Paiola 13–21, 18–21 {{bronze3}} Semi-Finalist 2011 Carebaco International Mitchel Wongsodikromo {{flagicon|DOM}} Nelson Javier
{{flagicon|DOM}} Alberto Rapozo 22-20, 21–18 {{gold1}} Winner 2010 Suriname International Mitchel Wongsodikromo {{flagicon|GUA}} Kevin Cordón
{{flagicon|GUA}} Rodolfo Ramírez 14–21, 16–21 {{silver2}} Runner-up 
36579298 42 Juan Pablo Montoya Earnhardt Ganassi Racing Chevrolet 51.124 176.043 1 11 Denny Hamlin Joe Gibbs Racing Toyota 51.196 175.795 2 27 Paul Menard Richard Childress Racing Chevrolet 51.245 175.627 3 5 Kasey Kahne Hendrick Motorsports Chevrolet 51.300 175.439 4 9 Marcos Ambrose Richard Petty Motorsports Ford 51.302 51.302 5 
36622036 2 14 {{flagicon|NZL}} Fabian Coulthard
{{flagicon|AUS}} David Besnard Brad Jones Racing Holden VE Commodore 2:07.7931 +0.0786 Top
10 3 5 {{flagicon|AUS}} Mark Winterbottom
{{flagicon|NZL}} Steven Richards Ford Performance Racing Ford FG Falcon 2:07.9231 +0.2086 Top
10 4 6 {{flagicon|AUS}} Will Davison
{{flagicon|NZL}} John McIntyre Ford Performance Racing Ford FG Falcon 2:07.9296 +0.2151 Top
10 6 9 {{flagicon|NZL}} Shane van Gisbergen
{{flagicon|AUS}} Luke Youlden Stone Brothers Racing Ford FG Falcon 2:08.0799 +0.3654 Top
10 7 47 {{flagicon|AUS}} Tim Slade
{{flagicon|AUS}} Andrew Thompson James Rosenberg Racing Ford FG Falcon 2:08.0912 +0.3767 Top
10 
36627628 16 August 1996 Guingamp H 1 - 0 Moravcik {{goal|39}} 8,000 24 August 1996 Nice A 1 - 1 Drobnjak {{goal|81}} 6,500 26 August 1996 Lille H 0 - 0 - 5,000 3 September 1996 Bordeaux A 3 - 1 Laurent {{goal|64}} 22,000 6 September 1996 Marseille H 2 - 0 Moravcik {{goal|18}}, Drobnjak {{goal|42}} 7,000 
366318 1955 {{Composition bar|34|52|hex=#E62020}} 589,933 58.90% {{increase}}34 seats; Governing coalition {{small|([[Alliance Party (Malaysia)|Alliance Party]])}} Tunku Abdul Rahman 1959 {{Composition bar|52|104|hex=#E62020}} 553,160 35.75% {{increase}}18 seats; Governing coalition {{small|([[Alliance Party (Malaysia)|Alliance Party]])}} Tunku Abdul Rahman 1964 {{Composition bar|59|104|hex=#E62020}} 458,854 38.10% {{increase}}7 seats; Governing coalition {{small|([[Alliance Party (Malaysia)|Alliance Party]])}} Tunku Abdul Rahman 1969 {{Composition bar|52|144|hex=#E62020}}   {{decrease}}7 seats; Governing coalition {{small|([[Alliance Party (Malaysia)|Alliance Party]])}} Tunku Abdul Rahman 1974 {{Composition bar|62|144|hex=#E62020}}   {{increase}}10 seats; Governing coalition {{small|([[Barisan Nasional]])}} Abdul Razak Hussein 
36639547 24 Giorgos Margaritis {{Flagicon|Greece}} LB 20 June 1991 (21) {{Flagicon|Greece}} Agrotikos Asteras 31 Giannis Zaradoukas {{Flagicon|Greece}} LB 12 December 1985 (27) {{Flagicon|Greece}} Olympiacos 66 Nuno Coelho {{Flagicon|Portugal}} DM 23 November 1987 (25) {{Flagicon|Portugal}} Benfica 10 Andreas Tatos {{Flagicon|Greece}} AM 11 May 1989 (23) {{Flagicon|Greece}} Olympiacos 17 Emmanouil Papasterianos {{Flagicon|Greece}} CM 15 August 1987 (25) {{Flagicon|Greece}} Iraklis 
3664112 1986–87 Lakefield Chiefs COJHL  3 1 1 2 14  — — — 1990–91 Fredericton Canadiens AHL  — — — — —  3 0 2 1991–92 Fredericton Canadiens AHL  42 7 20 27 65  7 1 3 1992–93 Fredericton Canadiens AHL  6 1 3 4 10  — — — 1993–94 Mighty Ducks of Anaheim NHL  68 7 20 27 78  — — — 
3664310 2002–03 HC Dukla Jihlava Czech.1  2 1 0 1 0  1 0 0 2002–03 HC Slezan Opava Czech.1  1 0 0 0 0  — — — 2004–05 HC Sparta Praha ELH  47 6 7 13 12  5 0 2 2005–06 Florida Panthers NHL  59 8 13 21 24  — — — 2006–07 Florida Panthers NHL  75 11 19 30 24  — — — 
3664944 1987–88 Niagara Scenics NAHL  30 4 9 13 2  — — — 1988–89 Niagara Scenics NAHL  59 24 38 62 60  — — — 1993–94 Cornwall Aces AHL  64 4 10 14 49  13 0 2 1993–94 Quebec Nordiques NHL  1 0 0 0 0  — — — 1994–95 Cornwall Aces AHL  76 4 18 22 69  — — — 
3665717 1999–00 Red Deer Rebels WHL  66 10 26 36 24  4 0 1 2000–01 Red Deer Rebels WHL  72 12 27 39 39  22 3 6 2001–02 Red Deer Rebels WHL  66 22 29 51 19  23 10 12 2002–03 Red Deer Rebels WHL  56 33 48 81 28  23 8 12 2003–04 Washington Capitals NHL  41 1 5 6 8  — — — 
36701735 Mogren 2010–11 Montenegrin First League 2 0 0 0 0 0 – – 2 Mogren 2011–12 Montenegrin First League 24 10 2 0 1 0 – – 27 Zenit St. Petersburg 2012–13 Russian Premier League 7 0 2 0 1 0 – – 10 Zenit St. Petersburg 2013–14 Russian Premier League 1 0 – – 0 0 – – 1 Zenit St. Petersburg 2014–15 Russian Premier League 0 0 – – 0 0 – – 0 
36707757 55 Mark Martin Michael Waltrip Racing Toyota 36.053 199.706 1 99 Carl Edwards Roush-Fenway Racing Ford 36.249 198.626 2 48 Jimmie Johnson Hendrick Motorsports Chevrolet 36.283 198.440 3* 17 Matt Kenseth Roush-Fenway Racing Ford 36.330 198.183 4 5 Kasey Kahne Hendrick Motorsports Chevrolet 36.386 197.878 5 
36710615 {{gold medal}} Taoufik Makhloufi Athletics 800 m  {{gold medal}} Othmane Hadj Lazib Athletics 110 m hurdles  {{gold medal}} Abderrahmane Hammadi Athletics 400 m hurdles  {{gold medal}} Larbi Bouraada Athletics Pole vault  {{gold medal}} Baya Rahouli Athletics Triple jump  
36723239 100 m 10.00 (+0.5&nbsp;m/s) Cejhae Greene {{ATG}} 29 July 2018 2018 Barranquilla {{flagicon|COL}}  200 m 19.96 (+0.4&nbsp;m/s) Alonso Edward {{PAN}} 31 July 2018 2018 Barranquilla {{flagicon|COL}}  400 m 44.27 Alberto Juantorena {{CUB}} 16 July 1978 1978 Medellín {{flagicon|COL}}  800 m 1:45.15 Alberto Juantorena {{CUB}} 11 August 1982 1982 La Habana {{flagicon|CUB}}  1500 m 3:41.84 Eduardo Castro {{flagu|Mexico}} 9 August 1982 1982 La Habana {{flagicon|CUB}}  
36735568 100 m Marc Blume 10.30 Personal Best 200 m Marc Blume 20.47 Personal Best 800 m Nico Motchebon 1:45.78 1500 m Dieter Baumann 3:40.02 5000 m Dieter Baumann 13:26.54 
36742885 1 5 Mark Winterbottom Ford FG Falcon Ford Performance Racing 51:4020 2 6 Will Davison Ford FG Falcon Ford Performance Racing 51:5019 3 9 Shane van Gisbergen Ford FG Falcon Stone Brothers Racing 51:5082 6 2 Garth Tander Holden VE Commodore Holden Racing Team 51:5895 8 30 Taz Douglas Holden VE Commodore Lucas Dumbrell Motorsport 51:6721 
36758804 2 5 Mark Winterbottom Ford FG Falcon Ford Performance Racing 45 + 1.7 s 3 138 4 14 Fabian Coulthard Holden VE Commodore Brad Jones Racing 45 + 11.8 s 5 120 5 66 Russell Ingall Holden VE Commodore Walkinshaw Racing 45 + 16.7 s 8 111 6 6 Will Davison Ford FG Falcon Ford Performance Racing 45 + 17.3 s 4 102 7 9 Shane van Gisbergen Ford FG Falcon Stone Brothers Racing 45 + 28.2 s 6 96 
36759032 2 5 {{flagicon|AUS}} Mark Winterbottom
{{flagicon|NZL}} Steven Richards Ford FG Falcon Ford Performance Racing 161 + 1.6 s 16 184 4 2 {{flagicon|AUS}} Garth Tander
{{flagicon|AUS}} Nick Percat Holden VE Commodore Holden Racing Team 161 + 10.5 s 3 160 5 9 {{flagicon|NZL}} Shane van Gisbergen
{{flagicon|AUS}} Luke Youlden Ford FG Falcon Stone Brothers Racing 161 + 13.8 s 1 148 6 55 {{flagicon|AUS}} David Reynolds
{{flagicon|AUS}} Dean Canto Ford FG Falcon Rod Nash Racing 161 + 18.6 s 2 136 7 47 {{flagicon|AUS}} Tim Slade
{{flagicon|AUS}} Andrew Thompson Ford FG Falcon James Rosenberg Racing 161 + 19.0 s 9 128 
36801320 My Wife and Kids 2005 "Jr's Cartoon" (animated sequence) Touchstone Television Sunday Pants 2005 "Weighty Decisions" shorts Cartoon Network Random! Cartoons 2006 "Ratzafratz!" Nickelodeon Slacker Cats 2007  ABC Family El Tigre: The Adventures of Manny Rivera 2007  Nickelodeon 
36816055 Athletics Men's club throw F31/32/51 Zeljko Dimitrijevic {{flagIPC|SRB|2012 Summer}}   Athletics Women's long jump F37-38 Margarita Goncharova {{flagIPC|RUS|2012 Summer}}   Athletics Men's shot put F42-44 Jackie Christiansen {{flagIPC|DEN|2012 Summer}} PR  Athletics Men's 200 metres T37 Roman Kapranov {{flagIPC|RUS|2012 Summer}} =WR  Athletics Women's 100 metres T34 Hannah Cockroft {{flagIPC|GBR|2012 Summer}} PR  
36831913 Carlin / Ombra Racing 1 Basil Shaaban Dallara F302 Mugen-Honda 1 Carlin / Ombra Racing 2 Khalil Beschir Dallara F302 Mugen-Honda 1 Coloni Motorsport 3 {{flagicon|ITA}} Giacomo Piccini Lola-Dome F106 Spiess-Opel 1–2 Coloni Motorsport 4 {{flagicon|ITA}} Riccardo Mari Lola-Dome F106 Spiess-Opel 1 Lucidi Motors 5 Paolo Maria Nocera Dallara F302 Spiess-Opel All 
36842278 Davao del Norte Branch 1 to 2, 30 to 31 Tagum Davao del Norte Branch 4, 34 Panabo Compostela Valley Branch 3 Nabunturan Davao del Sur Branch 8 to 17, 33, 52 to 54 Davao City Davao del Sur Branch 18 to 20 Digos 
3684327 1996–97 Swift Current Broncos WHL &nbsp; 63 8 31 39 80 &nbsp; 10 0 6 1997–98 Swift Current Broncos WHL &nbsp; 71 14 55 69 122 &nbsp; 12 0 5 1998–99 Syracuse Crunch AHL &nbsp; 49 3 22 25 72 &nbsp; — — — 1999–2000 Pittsburgh Penguins NHL &nbsp; 75 4 17 21 48 &nbsp; 2 0 0 2000–01 Pittsburgh Penguins NHL &nbsp; 30 1 4 5 26 &nbsp; — — — 
3684663 1995–96 University of Maine HE  39 7 31 38 22  — — — 1997–98 Fredericton Canadiens AHL  20 0 6 6 6  4 0 1 1997–98 Montreal Canadiens NHL  41 1 0 1 20  — — — 1998–99 Montreal Canadiens NHL  61 2 2 4 16  — — — 1998–99 Fredericton Canadiens AHL  3 1 0 1 0  — — — 
3684953 2000–01 HK SKP Poprad SVK  53 22 28 50 30  6 2 1 2001–02 Wilkes-Barre/Scranton Penguins AHL  65 23 10 33 37  — — — 2002–03 Wilkes-Barre/Scranton Penguins AHL  39 19 20 39 18  6 2 3 2002–03 Pittsburgh Penguins NHL  26 4 7 11 10  — — — 2003–04 Wilkes-Barre/Scranton Penguins AHL  30 14 15 29 14  24 6 10 
36888557 Nice 2010–11 Ligue 1 1 0 0 0 0 0 0 0 1 0 Nice 2011–12 Ligue 1 5 0 1 0 0 0 0 0 6 0 Nice 2012–13 Ligue 1 10 2 0 0 1 0 0 0 11 2 Nice 2013–14 Ligue 1 0 0 0 0 0 0 0 0 0 0 Nice B 2012–13 CFA 4 4 — — — — — — 4 4 
36901401 Francis J. Banfield No image
available Sergeant 1827–1883 1857–1883 Officer in charge of the State Armory at Second Avenue and Twenty-First Street. He was also a member of the "Steamboat Squad" later in his career.  James Z. Bogart No image
available Captain 1821–1881 1857–1870 During the New York Draft Riots, Bogart led a police force against rioters looting the home of J.S. Gibbons, a cousin of New York Tribune editor Horace Greeley.  Daniel C. Carpenter No image
available Inspector 1815–1866 1847–1873 Police detective who led squads against rioters in Broadway, the Fourth Ward, Second Avenue and other areas.  Theron S. Copeland File:Copeland One of the Finest card.jpg Captain 1831–1905 1855–1903 Drill officer who co-led a police force with Captain John Dickson against rioters in Clarkston Street who were attacking local African American residents. It was their detachment which discovered the body of William Jones who had been tied to a tree and tortured to death.  John F. Dickson No image
available Captain 1821–1880 1850–1880 Co-led a police force with drill officer Theron Copeland who defeated rioters in Clarkston Street and chased off mobs attacking African Africans. His men discovered the body of William Jones who had been tied to a tree and tortured to death.  
36911827 1 Scott Grix Fullback 0 Wakefield Trinity Wildcats 2013 31 11 7 0 58 2 Luke George Wing 0 Wakefield Trinity Wildcats 2013 7 3 0 0 12 4 Joe Wardle Centre 0 Bradford Bulls 2013 28 16 1 0 66 6 Danny Brough Stand Off 0 Wakefield Trinity Wildcats 2013 31 9 153 2 334 9 Shaun Lunt Hooker 0 Workington Town 2013 29 23 0 0 92 
36956048 1 4 Juan Manuel Fangio Alfa Romeo 68 2:07'55.0 1 2 6 Emmanuel de Graffenried Alfa Romeo 66 +2 Laps 5 3 46 Piero Taruffi Alfa Romeo 66 +2 Laps 7 4 40 Alberto Ascari Ferrari 62 Engine 2 5 16 Yves Giraud-Cabantous Talbot-Lago 62 +6 Laps 15 
36999149 Plosive prenasalized mb nd   ŋg Plosive voiced b d   g Plosive voiceless p t   k Plosive aspirated ph th   kh Affricate prenasalized  nʣ ɳdʐ ȵʥ  
3706653 1993–94 Philadelphia Flyers NHL &nbsp; 83 38 44 82 36 &nbsp; — — — 1994–95 Philadelphia Flyers NHL &nbsp; 47 26 31 57 20 &nbsp; 15 6 7 1995–96 Philadelphia Flyers NHL &nbsp; 51 23 20 43 45 &nbsp; 11 3 6 1996–97 Philadelphia Flyers NHL &nbsp; 77 22 37 59 65 &nbsp; 18 5 6 1997–98 Tampa Bay Lightning NHL &nbsp; 68 16 22 38 34 &nbsp; — — — 
37107172 1972 Beijing Japan China North Korea 1974 Yokohama China Japan Hong Kong 1976 Pyongyang China Japan North Korea 1978 Kuala Lumpur China North Korea Japan 1980 Calcutta China Japan North Korea 
37155749 AF Corse Ferrari 458 Italia GT2 Ferrari F142 4.5&nbsp;L V8 {{Michelin}} 51 Gianmaria Bruni All AF Corse Ferrari 458 Italia GT2 Ferrari F142 4.5&nbsp;L V8 {{Michelin}} 51 Giancarlo Fisichella 1–7 AF Corse Ferrari 458 Italia GT2 Ferrari F142 4.5&nbsp;L V8 {{Michelin}} 51 Matteo Malucelli 3 AF Corse Ferrari 458 Italia GT2 Ferrari F142 4.5&nbsp;L V8 {{Michelin}} 51 Toni Vilander 8 AF Corse Ferrari 458 Italia GT2 Ferrari F142 4.5&nbsp;L V8 {{Michelin}} 71 Kamui Kobayashi All 
37178635 1 Maurice Shanahan Waterford 0-13 13 Offaly 2 Maurice Shanahan Waterford 1-9 12 Westmeath 3 Jack Guiney Wexford 1-8 11 Dublin 3 Jack Guiney Wexford 1-8 11 Clare 3 Eoin Larkin Kilkenny 0-11 11 Offaly 
3719692 Taoiseach Brian Cowen 2008–11  Fianna Fáil Minister for Health and Children Mary Harney 2008–11  Independent Minister for Transport Noel Dempsey 2008–11  Fianna Fáil Minister for Justice, Equality and Law Reform Dermot Ahern 2008–11  Fianna Fáil Minister for Arts, Sport and Tourism Martin Cullen 2008–10  Fianna Fáil 
37244779 16 Greg Biffle Roush Fenway Racing Ford 27.877 193.708 1 55 Mark Martin Michael Waltrip Racing Toyota 27.927 193.361 2 15 Clint Bowyer Michael Waltrip Racing Toyota 27.973 193.043 4 48 Jimmie Johnson Hendrick Motorsports Chevrolet 27.980 192.995 5 17 Matt Kenseth Roush Fenway Racing Ford 27.996 192.885 7 
37245172 Brazil 1 Christian Fittipaldi  Brazil 6 Tony Kanaan  Brazil 9 Lucas di Grassi  Brazil 10 Ricardo Zonta  Brazil 11 Rubens Barrichello  
3724531 1998–99 HPK Liiga &nbsp; 13 0 0 0 2 &nbsp; 4 0 0 1999–2000 HPK Liiga &nbsp; 39 2 1 3 8 &nbsp; 7 1 0 2000–01 HPK Liiga &nbsp; 55 13 11 24 28 &nbsp; — — — 2001–02 HPK Liiga &nbsp; 56 19 37 56 50 &nbsp; 8 2 4 2002–03 HPK Liiga &nbsp; 53 25 25 50 54 &nbsp; 10 1 7 
3729912 2005–06 Dallas Stars NHL  81 17 38 55 30  5 2 1 2006–07 Dallas Stars NHL  82 14 34 48 18  4 0 1 2007–08 Dallas Stars NHL  52 14 14 28 14  — — — 2007–08 Tampa Bay Lightning NHL  20 2 12 14 4  — — — 2008–09 Tampa Bay Lightning NHL  46 6 10 16 16  — — — 
37328333 1952 Penn Manam  T. K. Shanmugam  1954 Ratha Kanneer Kantha M. R. Radha  1955 Doctor Savithri Vanaja Veenai S. Balachander  1955 Mangaiyar Thilakam Prabha Sivaji Ganesan  1955 Methavigal  K. A. Thangavelu  
37341488 File:Tamias striatus2.jpg Tamias striatus eastern chipmunk Sciuridae Lowest File:Groundhog3.jpg Marmota monax woodchuck
groundhog Sciuridae Lowest File:Sciurus carolinensis - 2012-07-13.jpg Sciurus carolinensis eastern gray squirrel Sciuridae Lowest File:Sciurus niger (on fence).jpg Sciurus niger fox squirrel
eastern fox squirrel
Bryant's fox squirrel Sciuridae Low
Note: Alabama examples often have a black facial mask with white nose and ears. File:Glaucomys volans.jpg Glaucomys volans southern flying squirrel Sciuridae Lowest 
37354893 1 6 Will Davison Ford Performance Racing Ford FG Falcon 1:11.3620  3 5 Mark Winterbottom Ford Performance Racing Ford FG Falcon 1:11.5196 + 0.158s 4 15 Rick Kelly Kelly Racing Holden VE Commodore 1:11.6001 + 0.238s 5 19 Jonathon Webb Tekno Autosports Holden VE Commodore 1:11.6514 + 0.289s 6 22 James Courtney Holden Racing Team Holden VE Commodore 1:11.6893 + 0.327s 
37397529 1 Vijayawada Krishna Vijayawada (M.Corp.), Gollapudi (OG), Jakkampudi (OG), Ambapuram (OG), Phiryadi Nainavaram (OG), Pathapadu (OG), Nunna (OG), Enikepadu (OG), Nidamanuru (OG), Done Atkuru (OG), Ganguru (OG), Penamaluru (OG), Ramavarappadu (CT), Prasadampadu (CT), Kanuru (CT), Poranki (CT), Tadigadapa (CT), Yenamalakuduru (CT), Tadepalle (M), Undavalli (OG), Mangalagiri (M), Navuluru (OG) and Atmakur (OG). 4 Rajahmundry East Godavari Rajahmundry (M.Corp.), Bommuru (OG), Rajahmundry NMA (OG), Katheru (CT), Morampudi (CT), Hukumpeta (CT) and Dowleswaram (CT) 5 Kadapa YSR Kadapa Kadapa (M.Corp.), Ramanapalle (Part) (OG), C.K.Dinne (Part) (OG) and Bgalapalle (Part) (OG) 6 Kakinada East Godavari Kakinada (M.Corp.), Vakalapudi (OG), Turangi (OG), Ganganapalle (OG), Sarpavaram (OG), Ramanayyapeta (CT), Suryaraopeta (CT) and Chidiga (CT) 9 Eluru West Godavari Eluru (M.Corp.), Komadavole (Part) (OG), Eluru (R) (Part) (OG), Sanivarapupeta (CT), Satrampadu (CT). Gavaravaram (CT) and Tangellamudi (CT) 
3739843 1. 1953 Shimamura Toshihiro Takagawa Kaku 2. 1954 Iwamoto Kaoru Fujisawa Hôsai 3. 1955 Hashimoto Utarō Sakata Eio 4. 1956 Sakata Eio Fujisawa Hôsai 5. 1957 Sakata Eio Kitani Minoru 
37442355 5 4 September Greenock Morton H 1–1 Glancy 2,414 6 11 September Clydebank H 1–0 Sheerin 1,697 9 2 October Airdrieonians A 1–1 Glancy 2,097 11 23 October Dunfermline Athletic H 1–1 Bavidge 3,006 14 12 November Greenock Morton A 1–5 Tokely 812 
37481220 1 6 Will Davison Ford Performance Racing Ford FG Falcon 2:11.7660 3 9 Shane van Gisbergen Stone Brothers Racing Ford FG Falcon 2:12.2550 4 47 Tim Slade James Rosenberg Racing Ford FG Falcon 2:12.2630 5 4 Lee Holdsworth Stone Brothers Racing Ford FG Falcon 2:12.4170 6 2 Garth Tander Holden Racing Team Holden VE Commodore 2:12.4860 
37511864 48 Jimmie Johnson Hendrick Motorsports Chevrolet 28.261 191.076 1 16 Greg Biffle Roush Fenway Racing Ford 28.364 190.382 2 18 Kyle Busch Joe Gibbs Racing Toyota 28.402 190.128 3 15 Clint Bowyer Michael Waltrip Racing Toyota 28.411 190.067 4 20 Joey Logano Joe Gibbs Racing Toyota 28.457 189.760 6 
375454 1946 Tetsu Katayama {{composition bar|96|466|hex={{Japan Socialist Party/meta/color}}}} 10,069,907 18.2   {{no2|Opposition}} 1947 Tetsu Katayama {{composition bar|144|466|hex={{Japan Socialist Party/meta/color}}}} 7,203,050 26.3   {{yes2|Coalition}} 1949 Tetsu Katayama {{composition bar|48|466|hex={{Japan Socialist Party/meta/color}}}} 4,129,794 13.8   {{no2|Opposition}} 1969 Tomomi Narita {{composition bar|90|486|hex={{Japan Socialist Party/meta/color}}}} 10,074,101 21.4   {{no2|Opposition}} 1972 Tomomi Narita {{composition bar|118|491|hex={{Japan Socialist Party/meta/color}}}} 11,478,142 21.9   {{no2|Opposition}} 
37550647 3 Zarek Valentin States}} RB {{birth date and age|1991|10|6}} Chivas USA 5 Jeb Brovsky States}} RB {{birth date and age|1988|12|3}} Vancouver Whitecaps FC 7 Felipe Martins {{flagicon|BRA}} AM {{birth date and age|1990|09|30}} FC Lugano 8 Patrice Bernier {{flagicon|Canada}} DM {{birth date and age|1979|9|23}} Lyngby Boldklub 11 Sanna Nyassi {{flagicon|GAM}} RM/AM {{birth date and age|1989|1|31}} Colorado Rapids 
37570267 2010 Shankar IPS Shilpa Kannada  2010 The Thriller Meera Malayalam  2011 Uppukandam Brothers Back in Action Vinila Sathyaneshan Malayalam  2013 Iddarammayilatho Akanksha Telugu  2014 Errabus Raji Telugu  
375956 1869 Edward James Roye Unknown Unknown Elected {{Y}} 1877 Anthony W. Gardiner Unknown Unknown Elected {{Y}} 1879 Anthony W. Gardiner Unknown Unknown Elected {{Y}} 1881 Anthony W. Gardiner Unknown Unknown Elected {{Y}} 1885 Hilary R. W. Johnson 1,438 62.25% Elected {{Y}} 
37599702 Lelle 2004 II liiga 22 4 0 0 — — — — 22 4 Warrior 2006 Meistriliiga 16 4 1 1 — — — — 17 5 Flora 2006 Meistriliiga 10 0 1 2 3 0 1 0 15 2 Flora 2007 Meistriliiga 0 0 0 0 0 0 1 0 1 0 Flora 2008 Meistriliiga 3 1 0 0 0 0 3 0 6 1 
37630831 January 8, 2013 Victoria Canada Save-On-Foods Memorial Centre January 9, 2013 Vancouver Canada Commodore Ballroom January 11, 2013 Kamloops Canada Interior Savings Centre January 12, 2013 Calgary Canada Southern Alberta Jubilee Auditorium January 15, 2013 Edmonton Canada Northern Alberta Jubilee Auditorium 
376533 5 7 February {{nrut|France}} Stade de France, Saint-Denis 17–24 1998 Five Nations Lawrence Dallaglio N/A 6 21 February {{nrut|Wales}} Twickenham, London 60–26 1998 Five Nations Lawrence Dallaglio N/A 7 22 March {{nrut|Scotland}} Murrayfield, Edinburgh 34–20 1998 Five Nations Lawrence Dallaglio N/A 8 4 April {{nrut|Ireland}} Twickenham, London 35–17 1998 Five Nations Lawrence Dallaglio N/A 9 6 June {{nrut|Australia}} Lang Park, Brisbane 0–76 1998 tour Tony Diprose N/A 
37653304 1992 Savage Nights Jamel Cyril Collard  1997 Les Soeurs Soleil The arab Jeannot Szwarc  1999 Our Happy Lives Rachid Jacques Maillot  2000 Drug Scenes Party guest Guillaume Nicloux TV Series (1 Episode) 2001 Alias Betty Inspector Claude Miller  
37678424 1 2 Robert Huff Chevrolet Chevrolet Cruze 1.6T  2:30.903 2:29.422 5 2 1 Yvan Muller Chevrolet Chevrolet Cruze 1.6T  2:30.950 2:30.144 4 3 8 Alain Menu Chevrolet Chevrolet Cruze 1.6T  2:31.490 2:30.488 3 5 18 Tiago Monteiro Honda Racing Team JAS Honda Civic S2000 TC  2:31.366 2:31.539 1 10 11 Alex MacDowall bamboo-engineering Chevrolet Cruze 1.6T Y 2:32.762 2:32.521  
3774716 1993–94 HC Sparta Praha ELH &nbsp; 8 1 1 2 2 &nbsp; — — — 1994–95 HC Sparta Praha ELH &nbsp; 38 7 6 13 6 &nbsp; — — — 1995–96 HC Sparta Praha ELH &nbsp; 34 7 7 14 14 &nbsp; 11 1 2 1996–97 HC Sparta Praha ELH &nbsp; 34 8 10 18 18 &nbsp; 10 5 2 1996–97 HC Becherovka Karlovy Vary CZE.2 &nbsp; 2 0 1 1  &nbsp; — — — 
37822945 1 Mauricio Molina FC Seoul 13 3 Hong Chul Suwon&nbsp;Samsung&nbsp;Bluewings 10 4 Han Sang-Woon Ulsan Hyundai 8 5 Hwang Jin-Sung Pohang Steelers 7 8 Eninho Jeonbuk Hyundai Motors 6 
37853030 Chevrolet Red Bull Racing 29 Daniel Serra Chevrolet Vogel Motorsport 5 Denis Navarro Chevrolet Vogel Motorsport 18 Allam Khodair Chevrolet Officer ProGP 6 Vitor Meira Chevrolet Officer ProGP 23 Duda Pamplona 
37855973 Blackburn
&nbsp;&nbsp; with Darwen Bristol &nbsp; &nbsp; &nbsp; &nbsp; 6 10 6 Derby Bristol &nbsp; &nbsp; &nbsp; &nbsp; 6 8 3 Derby Halton &nbsp; &nbsp; Labour won the most seats Labour won the most seats  16 1 Hartlepool Halton &nbsp; &nbsp; Labour won the most seats Labour won the most seats 1 6  Hartlepool Kingston
&nbsp;&nbsp; upon Hull &nbsp; &nbsp; Labour won the most seats Labour won the most seats 1 12 7 
37889663 BAW BJ2032 SAQ 4-dr HT File:BAW BJ2032 SAQ.jpg Compact ????-???? Cadillac Cadillac Escalade EXT File:1st Cadillac Escalade EXT.jpg
File:2nd Cadillac Escalade EXT -- 11-10-2011.jpg Fullsize 2002-2013 Dacia Dacia Pick-Up File:Dacia Double Cab.jpg Compact 1975-2006 Dacia Dacia Logan Pickup File:Dacia Logan Pickup rot.JPG Coupe 2007-2012 Datsun Datsun Truck File:Datsun220truck.jpg
File:Datsun1300PickupEsplanadeFront.jpg
File:Datsun 620 truck.jpg
File:Nissan-720.jpg Compact 1955-1986 
37978436 Shivnarine Chanderpaul Andre Russell Sylhet Royals $30,000 Injury Simon Katich Marlon Samuels Duronto Rajshahi $50,000 Injury Dilshan Munaweera Alex Hales Duronto Rajshahi $30,000 National Commitments Chris Gayle Shahid Afridi Dhaka Gladiators $75,000 No NOC Farveez Maharoof Saeed Ajmal Barisal Burners $50,000 No NOC 
3799805 1 Phillip Pettus Rep  2014 Lauderdale 8 Terri Collins Rep Decatur 2010 Morgan 12 Corey Harbison Rep Good Hope 2014 Cullman 20 Howard Sanderford Rep Huntsville 1989 Madison 21 Rex Reynolds Rep Huntsville 2018 Madison 
37999848 2016 4th Hum Awards Best Onscreen Couple (Jury) Diyar-e-Dil Shared with Osman Khalid Butt {{Won}} 2016 4th Hum Awards Best Drama Actress (Popular) Diyar-e-Dil  {{Won}} 2016 4th Hum Awards Best Drama Actress (Jury) Diyar-e-Dil  {{Nom}} 2016 4th Hum Awards Best Onscreen Couple (Popular) Diyar-e-Dil Nomination Shared with Osman Khalid Butt {{Nom}} 2016 Lux Style Awards Best Actress Drama (Jury) Diyar-e-Dil  {{Nom}} 
38023900 Prime Minister Xenophon Zolotas  Independent 23 November 1989 – 11 April 1990 Minister of National Economy Georgios Gennimatas  Panhellenic Socialist Movement 23 November 1989 – 13 February 1990 Minister of Labour Apostolos Kaklamanis  Panhellenic Socialist Movement 23 November 1989 – 13 February 1990 Minister for National Education and Religious Affairs Costas Simitis  Panhellenic Socialist Movement 23 November 1989 – 13 February 1990 Minister for Macedonia and Thrace Ioannis Deligiannis  New Democracy 23 November 1989 – 11 April 1990 
38048903 2012 Pakistan India Malaysia Kuwait {{KUW|#}}, Kuwait City 2010 Pakistan Malaysia India Kuwait {{IND|#}}, Chennai 2008 Malaysia Kuwait Pakistan India {{KUW|#}}, Kuwait City 2006 Malaysia Pakistan Kuwait India {{TPE|#}}, Taiwan 2004 Pakistan Malaysia India Kuwait {{MYS|#}}, Kuala Lumpur 
38062223 30 December 2012–
6 January 2013 Brisbane International Brisbane (AUS) ATP World Tour 250 Hard W 250 250 Won in the final against Grigor Dimitrov 4 March 2013–
17 March 2013 Indian Wells Masters Indian Wells (USA) ATP World Tour Masters 1000 Hard 2R 10 180 Lost in the quarterfinals against Juan Martín del Potro 18 March 2013–
31 March 2013 Miami Masters Miami (USA) ATP World Tour Masters 1000 Hard F 600 1,000 Won in the final against David Ferrer 15 April 2013–
22 April 2013 Monte-Carlo Masters Monte-Carlo (MON) ATP World Tour Masters 1000 Clay QF 180 90 Lost in the third round against Stanislas Wawrinka 6 May 2013–
12 May 2013 Mutua Madrid Open Madrid (ESP) ATP World Tour Masters 1000 Clay A 0 180 Lost in the quarterfinals against Tomáš Berdych 
38145331 {{sortname|Shaharuddin|Ismail|Shaharuddin Ismail}} Kangar 2013  Barisan Nasional   {{sortname|Ismail|Daut|Ismail Daut}} Merbok 2013  Barisan Nasional   Izani Husin Pengkalan Chepa 2013  Pan-Malaysian Islamic Party Transferred to Kijang state seat  Ahmad Baihaki Atiqullah Kubang Kerian 2013  Pan-Malaysian Islamic Party   Nik Mazian Nik Mohamad Pasir Putih 2013  Pan-Malaysian Islamic Party   
38151589 12 January 18 Months Calvin Harris 35,946  23 March The Next Day David Bowie 94,048  30 March The 20/20 Experience Justin Timberlake 105,888  6 April The 20/20 Experience Justin Timberlake 56,147  13 April The 20/20 Experience Justin Timberlake 26,242  
3815781 2014 Primetime Emmy Award Outstanding Writing for a Variety Series Key & Peele {{nom}} 2015 NAACP Image Award Outstanding Comedy Series Key & Peele {{nom}} 2015 NAACP Image Award Outstanding Actor in a Comedy Series Key & Peele {{nom}} 2015 Primetime Emmy Award Outstanding Variety Sketch Series Key & Peele {{nom}} 2015 Primetime Emmy Award Outstanding Supporting Actor in a Comedy Series Key & Peele {{nom}} 
38198335 2001 Melissa Holt Annaliisa Farrell Tamara Boyd 2005 Sarah Ulmer Melissa Holt Alison Shanks 2008 Melissa Holt Rachel Mercer Alison Shanks 2010 Melissa Holt Alison Shanks Linda Villumsen 2011 Sonia Waddell Jaime Nielsen Alison Shanks 
38212636 August 5, 2012{{ref label|ASO|A|A}} Oakland United States Frank H. Ogawa Plaza October 21, 2012{{ref label|OSB|C|C}} Los Angeles United States Los Angeles Memorial Sports Arena November 3, 2012{{ref label|ASF|D|D}} Phoenix United States Arizona Veterans Memorial Coliseum November 10, 2012 Cupertino United States Flint Center For the Performing Arts November 10, 2012 San Rafael United States Marin Veterans Memorial Auditorium 
3822073 1 Hugh Jackson Wallisville Jefferson Democrat 1887 2 Talvus Wilson Dodge San Jacinto Democrat 1887 5 John H. Truit Timpson Shelby Democrat 1887 6 Robert Teague Milner Henderson Rusk Democrat 1887 47 Sanctus Waskom Terrell Kaufman Democrat 1887 
38255884 {{sortname|Jeremy|Affeldt}} 41 P {{birth date and age2|2013|3|2|1979|6|6}} San Francisco Giants Major League Baseball Phoenix, Arizona {{sortname|Heath|Bell}} 21 P {{birth date and age2|2013|3|2|1977|9|29}} Arizona Diamondbacks Major League Baseball Oceanside, California {{sortname|Mitchell|Boggs}} 33 P {{birth date and age2|2013|3|2|1984|2|15}} St. Louis Cardinals Major League Baseball Dalton, Georgia {{sortname|Steve|Cishek}} 31 P {{birth date and age2|2013|3|2|1986|6|18}} Miami Marlins Major League Baseball Falmouth, Massachusetts {{sortname|Tim|Collins|dab=baseball}} 55 P {{birth date and age2|2013|3|2|1989|8|21}} Kansas City Royals Major League Baseball Worcester, Massachusetts 
38263327 3 P1 12 Rebellion Racing {{flagicon|DEU}} Nick Heidfeld
{{flagicon|SUI}} Neel Jani
{{flagicon|FRA}} Nicolas Prost Lola B12/60 {{Michelin}} 359 5 P1 13 Rebellion Racing {{flagicon|SUI}} Mathias Beche
{{flagicon|CHN}} Congfu Cheng
{{flagicon|ITA}} Andrea Belicchi Lola B12/60 {{Michelin}} 354 6 P2 551 Level 5 Motorsports {{flagicon|USA}} Scott Tucker
{{flagicon|GBR}} Marino Franchitti
{{flagicon|AUS}} Ryan Briscoe HPD ARX-03b {{Michelin}} 346 7 P2 552 Level 5 Motorsports {{flagicon|USA}} Scott Tucker
{{flagicon|USA}} Ryan Hunter-Reay
{{flagicon|FRA}} Simon Pagenaud HPD ARX-03b {{Michelin}} 345 13 P2 02 Extreme Speed Motorsports {{flagicon|USA}} Ed Brown
{{flagicon|USA}} Johannes van Overbeek
{{flagicon|USA}} Anthony Lazzaro HPD ARX-03b {{Michelin}} 335 
38378908 Language English 30.5% Language Mandarin 25.3% Language Cantonese 11% Language Tagalog 4.6% Language Korean 4.3% 
38398153 1978 {{sortname|Tim|Tolman}} Southern California OF  1979 {{sortname|Jim|Auten}} UCLA OF  1980 {{sortname|Terry|Francona}}* Arizona OF  1981 {{sortname|Mike|Sodders}} Arizona State IF  1982 {{sortname|Alvin|Davis}} Arizona State 1B  
38440630 Madiun Putra FC Madiun Regency East Java Wilis 30,000 6th in 2010 First Division Persbul Buol Buol Regency Central Sulawesi Kuonoto 8,000 2nd in 2010 First Division Persepar Palangkaraya Palangkaraya Central Kalimantan Tuah Pahoe 7,000 3rd in Group E Second stage 2010 First Division Persewangi Banyuwangi Banyuwangi Regency East Java Diponegoro 20,000 7th in 2010 First Division Persikab Bandung Bandung Regency West Java Jalak Harupat 40,000 7th in Group 2 2010–11 Premier Division 
38469356 Arcadia Valley Tigers {{color box|gold}}{{color box|black}} Ironton Iron Public Bismarck Indians {{color box|maroon}}{{color box|white}} Bismarck St. Francois Public Central Rebels {{color box|red}}{{color box|blue}} Park Hills St. Francois Public Farmington Knights {{color box|black}}{{color box|gold}} Farmington St. Francois Public Fredericktown Black Cats {{color box|black}}{{color box|gold}} Fredericktown Madison Public 
38473049 Ontario Canada June 2003 The Court of Appeal for Ontario in the case Halpern v Canada (AG) against the current Civil Code that does not allow for same-sex marriage because it violated the Charter of Rights and ordered that its judgment come into effect immediately, Yes Yes Yukon Canada {{dts|July 2004}} The Supreme Court of the Yukon Territory ordered in Dunbar & Edge v. Yukon (Government of) & Canada (A.G.), 2004 YKSC 54, that the Yukon common law definition of marriage be changed immediately to be "the voluntary union for life of two persons to the exclusion of all others." Yes Yes Manitoba Canada September 2004 The Court of Queen's Bench ordered in Vogel v. Canada, that the same-sex marriage licenses shall be issued in the Province. Yes Yes Aruba Netherlands April 2007 The Supreme Court of the Netherlands ruled that Aruba must recognize all Dutch marriages, including same-sex marriages. Yes Yes Alagoas Brazil December 2011 The Corregedoria Geral da Justiça of Alagoas ruled that officials have to perform same-sex marriages in the state. Yes Yes 
38484827 2012 Paroa: Ang Kuwento ni Mariposa Rasul Lead role GMA Network 2013 Akin Pa Rin ang Bukas Junior Morales Supporting role GMA Network 2013 Dormitoryo Charlie Chavez Main cast GMA Network 2015 InstaDad Zig Supporting role GMA Network 2015 Dangwa Gerald Guest of the week GMA Network 
38496502 2016 Hahamakin ang Lahat Don Ericson Tan Supporting role GMA Network 2015 Princess in the Palace Sen. Carlos Jacinto Guest GMA Network 2014 Ang Lihim ni Annasandra Don Wilfredo Armada Guest GMA Network 2012 The Good Daughter Don Manuel Noche Guest GMA Network 2010 Jillian: Namamasko Po Don Victor Guest GMA Network 
38523 Mont-Terrible Porrentruy Porrentruy Switzerland Holy Roman Empire:
Prince-Bishopric of Basel{{smallsup|3}} 1793–1800 Corcyre Corfou Corfu Greece Republic of Venice{{smallsup|4}} 1797–1799 Ithaque Argostoli Argostoli Greece Republic of Venice{{smallsup|4}} 1797–1798 Mer-Égée Zante Zakynthos Greece Republic of Venice{{smallsup|4}} 1797–1798 Mont-Tonnerre Mayence Mainz Germany Holy Roman Empire:
Archbishopric of Mainz
Electorate of the Palatinate
Bishopric of Speyer 1801–1814 
3856527 G David Aebischer 186 84 02/07/78 Genf Colorado Avalanche G Martin Gerber 185 91 09/03/74 Burgdorf Carolina Hurricanes D Beat Forster 185 100 02/02/83 Herisau ZSC Lions D Olivier Keller 188 95 03/20/71 Geneve EHC Basel D Mathias Seger 181 87 12/17/77 Flawil ZSC Lions 
3860470 1985–86 Compuware Ambassadors GLJHL &nbsp; 30 25 28 53 — &nbsp; — — — 1990–91 Halifax Citadels AHL &nbsp; 66 36 33 69 40 &nbsp; — — — 1991–92 Halifax Citadels AHL &nbsp; 24 9 17 26 8 &nbsp; — — — 1991–92 Minnesota North Stars NHL &nbsp; 3 1 2 3 2 &nbsp; — — — 1993–94 San Jose Sharks NHL &nbsp; 11 2 2 4 6 &nbsp; — — — 
38604847 22 May 2014 Dubai United Arab Emirates Aviation Club Tennis Centre 7 June 2014 Durham England Riverside Ground 6 July 2014 Cheshire England Delamere Forest 11 July 2014 Suffolk England Thetford Forest 18 July 2014 Gloucestershire England Westonbirt Arboretum 
38605993 2012
{{small|[[Writers Guild of America Awards 2012|(65th)]]}} Mea Maxima Culpa: Silence in the House of God Alex Gibney  2012
{{small|[[Writers Guild of America Awards 2012|(65th)]]}} We Are Legion: The Story of the Hacktivists Brian Knappenberger  2013
{{small|[[Writers Guild of America Awards 2013|(66th)]]}} Stories We Tell Sarah Polley  2013
{{small|[[Writers Guild of America Awards 2013|(66th)]]}} We Steal Secrets: The Story of WikiLeaks Alex Gibney  2015
{{small|[[Writers Guild of America Awards 2015|(68th)]]}} Kurt Cobain: Montage of Heck Brett Morgen  
386136 December 26, 1997 Ole Miss 34 Marshall 31 43,340 notes December 23, 1998 Marshall 48 Louisville 29 38,016 notes December 27, 2000 Marshall 25 Cincinnati 14 52,911 notes December 26, 2002 Boston College 51 Toledo 25 45,761 notes December 26, 2003 Bowling Green 28 Northwestern 24 51,286 notes 
38627639 2019 Parasite Island  ABS-CBN 2016 Magpahanggang Wakas Malena "Lola Nenang" Del Mar ABS-CBN 2013 Akin Pa Rin ang Bukas Beatrice Villacorta GMA Network 2013 Apoy Sa Dagat Ildelfonsa del Sol ABS-CBN 2012 Hindi Ka Na Mag-iisa Doña Asuncion Montenegro GMA Network 
38633411 1 55 Mark Martin Michael Waltrip Racing Toyota 26.073 138.074 2 5 Kasey Kahne Hendrick Motorsports Chevrolet 26.113 137.862 3 48 Jimmie Johnson Hendrick Motorsports Chevrolet 26.124 137.804 4 18 Kyle Busch Joe Gibbs Racing Toyota 26.149 137.673 5 24 Jeff Gordon Hendrick Motorsports Chevrolet 26.246 137.164 
38636525 2 97 Shane van Gisbergen Holden VF Commodore Tekno Autosports 1:20.8731{{ref|1|1}} 4 6 Will Davison Ford FG Falcon Ford Performance Racing 1:21.0594 5 14 Fabian Coulthard Holden VF Commodore Brad Jones Racing 1:21.1496 8 5 Mark Winterbottom Ford FG Falcon Ford Performance Racing 1:21.2653 9 19 Jonathon Webb Holden VF Commodore Tekno Autosports 1:21.3006 
38723841 1 18 Kyle Busch Joe Gibbs Racing Toyota 14.813 129.535 2 5 Kasey Kahne Hendrick Motorsports Chevrolet 14.875 128.995 3 11 Denny Hamlin Joe Gibbs Racing Toyota 14.879 128.960 4 55 Brian Vickers Michael Waltrip Racing Toyota 14.929 128.528 5 27 Paul Menard Richard Childress Racing Chevrolet 14.949 128.356 
38791305 1985
(2nd) Cheryl-Ann Wilson{{double dagger|alt=Award winner}} Days of Our Lives Megan Hathaway NBC  1988
(3rd) Brenda Dickson{{double dagger|alt=Award winner}} The Young and the Restless Jill Foster Abbott CBS  1989
(4th) Lynn Herring {{double dagger|alt=Award winner}} General Hospital Lucy Coe ABC  1990
(5th) Jane Elliot {{double dagger|alt=Award winner}} General Hospital Tracy Quartermaine ABC  1991
(6th) Lynn Herring {{double dagger|alt=Award winner}} General Hospital Lucy Coe ABC  
38798111 1 11 Denny Hamlin Joe Gibbs Racing Toyota 38.410 187.451 2 16 Greg Biffle Roush Fenway Racing Ford 38.458 187.217 3 2 Brad Keselowski Penske Racing Ford 38.472 187.149 4 18 Kyle Busch Joe Gibbs Racing Toyota 38.476 187.130 5 20 Matt Kenseth Joe Gibbs Racing Toyota 38.567 186.688 
38853504 1 48 Jimmie Johnson Hendrick Motorsports Chevrolet 19.244 98.400 2 9 Marcos Ambrose Richard Petty Motorsports Ford 19. 251 98.364 3 55 Brian Vickers Michael Waltrip Racing Toyota 19.266 98.287 4 22 Joey Logano Penske Racing Ford 19.269 98.272 5 5 Kasey Kahne Hendrick Motorsports Chevrolet 19.286 98.185 
3887089 2002 Kannathil Muthamittal Bus passenger Tamil Uncredited role 2003 Boys Munna Tamil ITFA Best New Actor Award 2004 Aaytha Ezhuthu Arjun Balakrishnan Tamil  2006 Rang De Basanti Karan Singhania / Bhagat Singh Hindi Screen Award for Best Male Debut
Nominated—Filmfare Best Male Debut Award
Nominated—Filmfare Best Supporting Actor Award
Nomimated—Zee Cine Award for Best Actor in a Supporting Role&nbsp;– Male
Nominated—Zee Cine Award for Best Male Debut
Nominated—IIFA Award for Star Debut of the Year&nbsp;– Male
Nominated—Stardust Award for Superstar of Tomorrow&nbsp;– Male
Nominated—GIFA Best Male Debut Award 2012 Kadhalil Sodhappuvadhu Yeppadi Arun Tamil  
3889279 26th 15 October 1938 First election held on a Saturday; Māori election held the previous day 27th 25 September 1943 General election on a Saturday; Māori election held the previous day 28th 27 November 1946 General election on a Wednesday; Māori election held the previous day 29th 30 November 1949 General election on a Wednesday; Māori election held the previous day 30th 1 September 1951 Snap election due to waterfront strike;
general and Māori election legislated to be held on a Saturday from now on 
3890717 2006–07 2006 Dubai Sevens New Zealand 31–12 2007–08 2008 Adelaide Sevens New Zealand 15–7 2008–09 2008 Dubai Sevens England 19–12 2008–09 2008 South Africa Sevens New Zealand 12–7 2008–09 2009 Adelaide Sevens Kenya 26–7 
38909315 2015 Jamaica International Dakeil Thorpe {{flagicon|TUR}} Emre Vural
{{flagicon|TUR}} Sinan Zorlu 12–21, 12–21 {{bronze3}} Semi-Finalist 2011 Suriname International Virgil Soeroredjo {{flagicon|BRA}} Luis Henrique Dos Santos Jr.
{{flagicon|BRA}} Alex Yuwan Tjong 21-14, 21–17 {{gold1}} Winner 2011 Miami International Virgil Soeroredjo {{flagicon|BRA}} Hugo Arthuso
{{flagicon|BRA}} Daniel Paiola 13–21, 18–21 {{bronze3}} Semi-Finalist 2011 Carebaco International Virgil Soeroredjo {{flagicon|DOM}} Nelson Javier
{{flagicon|DOM}} Alberto Rapozo 22-20, 21–18 {{gold1}} Winner 2010 Suriname International Virgil Soeroredjo {{flagicon|GUA}} Kevin Cordón
{{flagicon|GUA}} Rodolfo Ramírez 14–21, 16–21 {{silver2}} Runner-up 
3891243 3rd 1913–1917  Prosper-Edmond
Lessard Liberal 4th 1917–1921  Prosper-Edmond
Lessard Liberal 5th 1921–1926  Laudas Joly United Farmers 6th 1926–1930  Laudas Joly United Farmers 7th 1930–1935  Joseph Dechene Liberal 
38943446 2013–14 Calgary Flames NHL &nbsp; 8 1 1 2 0 &nbsp; — — — 2014–15 Adirondack Flames AHL &nbsp; 67 15 28 43 52 &nbsp; — — — 2015–16 Stockton Heat AHL &nbsp; 65 23 34 57 18 &nbsp; — — — 2015–16 Calgary Flames NHL &nbsp; 2 0 0 0 0 &nbsp; — — — 2016–17 Chicago Wolves AHL &nbsp; 65 24 59 83 48 &nbsp; 10 5 5 
38981249 1 18 Kyle Busch Joe Gibbs Racing Toyota 27.509 196.299 2 78 Kurt Busch Furniture Row Racing Chevrolet 27.595 195.688 3 43 Aric Almirola Richard Petty Motorsports Ford 27.691 195.009 4 9 Marcos Ambrose Richard Petty Motorsports Ford 27.700 194.946 7 48 Jimmie Johnson Hendrick Motorsports Chevrolet 27.763 194.503 
3900689 2000–01 Syracuse Jr. Crunch OPJHL  49 32 46 78 51  — — — 2001–02 Syracuse Jr. Crunch OPJHL  49 42 51 93 97  — — — 2002–03 Mississauga IceDogs OHL  65 26 48 74 25  2 1 0 2003–04 Mississauga IceDogs OHL  3 2 4 6 0  — — — 2003–04 London Knights OHL  60 28 41 69 18  15 7 6 
39051722 Krishnan Sasikiran ½–½ Darmen Sadvakasov Pentala Harikrishna 0–1 Murtas Kazhgaleyev Humpy Koneru 1–0 Dana Aketayeva Enamul Hossain ½–½ Bu Xiangzhi Reefat Bin-Sattar ½–½ Wang Yue 
39089453 KNBR 680 AM San Francisco California Flagship KEKA-FM 101.5 FM Eureka California Affiliate K265BT 100.9 FM Arcata California n/a (KEKA-FM simulcast) KFIG 940 AM Fresno California Affiliate KPUA 670 AM Hilo Hawaii Affiliate 
39157461 2001–02 Ang TV Himself ABS-CBN  2012 Maalaala Mo Kaya Richard Abaño ABS-CBN  2013 Carlo J. Caparas' Dugong Buhay Rafael de Lara ABS-CBN  2013 Maalaala Mo Kaya Jay (Episode: "Puntod") ABS-CBN  2013 Toda Max RJ Catacutan ABS-CBN  
39171755 1 27 James Hinchcliffe Andretti Autosport Chevrolet 110 2:22:12:5502 3 4 26 51 3 25 Marco Andretti Andretti Autosport Chevrolet 110 + 16.3664 3 7  35 4 11 Tony Kanaan KV Racing Technology Chevrolet 110 + 19.6083 3 11  32 5 9 Scott Dixon Chip Ganassi Racing Honda 110 + 20.7627 3 20  30 6 78 Simona de Silvestro KV Racing Technology Chevrolet 110 + 20.7890 3 3  28 
39176684 5 Tommy Elphick CB {{flagicon|ENG}} Brighton {{Birth date and age|1987|9|7|df=y}} – – Brighton & Hove Albion 11 August 2012 £220,000 30 June 2015 14 Ian Harte LB {{flagicon|IRL}} Drogheda {{Birth date and age|1977|8|31|df=y}} 64 12 Reading 1 July 2013 Free 30 June 2014 22 Elliott Ward CB {{flagicon|ENG}} Harrow {{Birth date and age|1985|1|19|df=y}} – – Norwich City 1 July 2013 Free 30 June 2014 7 Marc Pugh LM {{flagicon|ENG}} Bacup {{Birth date and age|1987|4|2|df=y}} – – Hereford United July 2010 £110,000 30 June 2014 12 Wes Fogden RM {{flagicon|ENG}} Brighton {{Birth date and age|1988|4|12|df=y}} – – Havant & Waterlooville October 2011 Undisclosed 30 June 2015 
39204259 31 December 1741 Lymington u* Lord Nassau Powlett Charles Powlett Death 31 December 1741 Westminster u The Lord Sundon Lord Perceval Void Election 1 January 1742 Appleby u George Bubb Dodington Sir Charles Wyndham Chose to sit for Bridgwater 5 January 1742 Old Sarum u* George Lyttelton James Grenville Chose to sit for Okehampton 23 February 1742 Rye u* Phillips Gybbon Phillips Gybbon Junior Lord of the Treasury 
39276970 1 78 Kurt Busch Furniture Row Racing Chevrolet 27.032 181.918 2 48 Jimmie Johnson Hendrick Motorsports Chevrolet 27.173 180.974 3 18 Kyle Busch Joe Gibbs Racing Toyota 27.181 180.920 4 5 Kasey Kahne Hendrick Motorsports Chevrolet 27.208 180.741 6 11 Denny Hamlin Joe Gibbs Racing Toyota 27.296 180.158 
39294793 {{tooltip|1|Round 1}} 18.07.2010 A Wacker Innsbruck 0-4 13,600  {{tooltip|3|Round 3}} 01.08.2010 H RB Salzburg 2-1 17,500 Saurer {{goal|49}}, Hofmann S. {{goal|90+3}} {{tooltip|4|Round 4}} 08.08.2010 A Sturm Graz 2-0 15,300 Patocka {{goal|29}}, Jelavic {{goal|81}}
Sonnleitner {{send off|0|72}} {{tooltip|5|Round 5}} 22.08.2010 H Mattersburg 2-0 16,700 Sonnleitner {{goal|13}}, Salihi {{goal|90+1}} {{tooltip|6|Round 6}} 29.08.2010 A LASK 0-1 9,800  
39297127 {{tooltip|1|Round 1}} 25.11.2009 H Sturm Graz 2-1 17,200 Jelavic {{goal|16}}, Salihi {{goal|89|pen.}} {{tooltip|2|Round 2}} 26.07.2009 A Mattersburg 1-2 12,100 Heikkinen {{goal|78}}
Pehlivan {{send off|1|32}}, Maierhofer {{send off|1|72}} {{tooltip|4|Round 4}} 09.08.2009 A Ried 1-1 7,600 Hofmann S. {{goal|51}} {{tooltip|5|Round 5}} 23.08.2009 H LASK 4-1 17,100 Alunderis {{goal|9|o.g.}}, Jelavic {{goal|18}} {{goal|25}}, Hofmann S. {{goal|29}} {{tooltip|6|Round 6}} 30.08.2009 A Austria Wien 1-1 13,400 Maierhofer {{goal|60}} 
39306149 {{tooltip|1|Round 1}} 14.07.2004 A SW Bregenz 5-1 5,000 Ivanschitz {{goal|6}} {{goal|62}}, Kincl {{goal|21}}, Došek {{goal|53}}, Katzer {{goal|90}} {{tooltip|2|Round 2}} 21.07.2004 H Wacker Innsbruck 4-1 15,300 Kincl {{goal|16}} {{goal|77}}, Hlinka {{goal|42}}, Ivanschitz {{goal|63}} {{tooltip|3|Round 3}} 01.08.2004 A Austria Wien 1-1 11,800 Kincl {{goal|12}} {{tooltip|4|Round 4}} 07.08.2004 H Austria Salzburg 0-0 12,400  {{tooltip|5|Round 5}} 15.08.2004 A Sturm Graz 1-0 8,420 Lawarée {{goal|80}} 
39307720 1 27 James Hinchcliffe Andretti Autosport Chevrolet 75 2:09:34.7383 3 5 1 51 2 14 Takuma Sato A. J. Foyt Enterprises Honda 75 + 0.3463 4 12 22 43 3 25 Marco Andretti Andretti Autosport Chevrolet 75 + 1.1376 4 10 7 36 5 67 Josef Newgarden Sarah Fisher Hartman Racing Honda 75 + 1.6516 3 25  30 6 5 E. J. Viso Andretti Autosport Chevrolet 75 + 2.8119 2 2  28 
39313557 {{tooltip|1|Round 1}} 11.07.2001 H Sturm Graz 3-1 11,600 Taument {{goal|52}}, Wallner {{goal|57}}, Neukirchner {{goal|65|o.g.}} {{tooltip|4|Round 4}} 28.07.2001 H SW Bregenz 3-1 6,000 Prisc {{goal|30}}, Wallner {{goal|35}} {{goal|77}} {{tooltip|6|Round 6}} 05.08.2001 H GAK 0-4 8,000  {{tooltip|8|Round 8}} 18.08.2001 H FC Tirol 0-2 9,300  {{tooltip|12|Round 12}} 23.09.2001 H Ried 2-0 5,000 Zingler {{goal|85}}, Wallner {{goal|86}}
Wagner R. {{send off|0|54}} 
39317451 {{tooltip|1|Round 1}} 05.07.2000 A Austria Salzburg 3-0 6,000 Wagner R. {{goal|14}}, Taument {{goal|21}}, Radovic {{goal|84}} {{tooltip|2|Round 2}} 12.07.2000 H Sturm Graz 4-1 12,500 Dowe {{goal|29}}, Radovic {{goal|51}} {{goal|71}}, Wagner R. {{goal|57}} {{tooltip|3|Round 3}} 18.07.2000 H LASK 2-0 10,400 Taument {{goal|50}}, Dowe {{goal|76}} {{tooltip|4|Round 4}} 26.07.2000 A SW Bregenz 1-1 4,300 Zingler {{goal|44}} {{tooltip|5|Round 5}} 29.07.2000 H GAK 1-1 7,300 Dowe {{goal|7}} 
39320322 {{tooltip|1|Round 1}} 03.11.1998 H Austria Salzburg 1-0 7,000 Prosenik C. {{goal|45|pen.}} {{tooltip|2|Round 2}} 02.08.1998 A GAK 1-1 6,500 Zingler {{goal|54}} {{tooltip|4|Round 4}} 08.08.1998 H LASK 5-0 7,500 Prosenik C. {{goal|27|pen.}}, Ratajczyk {{goal|63}}, Penksa {{goal|71}}, Pürk {{goal|83}}, Wagner R. {{goal|87}} {{tooltip|5|Round 5}} 14.08.1998 A FC Tirol 3-1 7,000 Heraf {{goal|21}} {{goal|90+2}}, Pürk {{goal|67}} {{tooltip|6|Round 6}} 30.08.1998 H Sturm Graz 2-0 15,800 Prosenik C. {{goal|59|pen.}}, Saler {{goal|90+3}} 
39324319 {{tooltip|3|Round 3}} 23.07.1997 H FC Tirol 1-0 11,000 Ipoua {{goal|6}} {{tooltip|5|Round 5}} 30.07.1997 H GAK 1-1 8,500 Ipoua {{goal|87}} {{tooltip|7|Round 7}} 06.08.1997 H Lustenau 1-0 8,000 Stumpf {{goal|43}} {{tooltip|9|Round 9}} 23.08.1997 H Sturm Graz 0-2 13,500  {{tooltip|11|Round 11}} 13.09.1997 H Ried 3-0 6,000 Stumpf {{goal|43}} {{goal|67}}, Pürk {{goal|59}} 
39325853 {{tooltip|2|Round 2}} 18.09.1996 H LASK 3-1 7,500 Kühbauer {{goal|10}}, Heraf {{goal|12}}, Wagner R. {{goal|47}} {{tooltip|4|Round 4}} 11.08.1996 H Austria Wien 1-1 15,000 Zingler {{goal|8}}
Zingler {{send off|0|59}} {{tooltip|6|Round 6}} 24.08.1996 H VÖEST Linz 0-0 6,500 Ivanov {{send off|0|35}} {{tooltip|8|Round 8}} 07.09.1996 H Austria Salzburg 2-0 8,000 Kühbauer {{goal|15}}, Wagner R. {{goal|84}} {{tooltip|11|Round 11}} 02.10.1996 H GAK 4-0 5,000 Stumpf {{goal|24}} {{goal|60}}, Wagner R. {{goal|40}}, Stöger {{goal|85}} 
39327102 {{tooltip|3|Round 3}} 13.08.1994 H VÖEST Linz 0-0 4,500  {{tooltip|7|Round 7}} 03.09.1994 H FC Tirol 3-1 10,000 Obrecht {{goal|44}}, Pürk {{goal|53}}, Garger {{goal|56}} {{tooltip|9|Round 9}} 21.09.1994 H Sturm Graz 2-3 15,000 Pürk {{goal|47}} {{goal|84}} {{tooltip|12|Round 12}} 05.10.1994 H Austria Salzburg 1-1 10,500 Barisic {{goal|7}} {{tooltip|14|Round 14}} 23.10.1994 H Austria Wien 3-1 14,500 Pürk {{goal|34}}, Jovanovic P. {{goal|58}}, Barisic {{goal|87}} 
393674 1987 Tony Award Best Performance by a Leading Actor in a Musical Howard McGillin {{nom}} 1987 Tony Award Best Performance by a Leading Actress in a Musical Patti LuPone {{nom}} 1987 Tony Award Best Performance by a Featured Actor in a Musical Bill McCutcheon {{won}} 1987 Tony Award Best Performance by a Featured Actor in a Musical Anthony Heald {{nom}} 1987 Tony Award Best Direction of a Musical Jerry Zaks {{nom}} 
39367927 {{tooltip|2|Round 2}} 01.08.1990 H Vienna 3-1 4,000 Kienast R. {{goal|27}}, Keglevits {{goal|61}}, Fjørtoft {{goal|63}} {{tooltip|3|Round 3}} 04.08.1990 A Leoben 0-0 5,000  {{tooltip|4|Round 4}} 07.08.1990 A Sturm Graz 1-1 7,000 Keglevits {{goal|53}} {{tooltip|6|Round 6}} 18.08.1990 A Swarovski Tirol 2-3 14,000 Kienast R. {{goal|47}}, Fjørtoft {{goal|59}} {{tooltip|7|Round 7}} 25.08.1990 H Austria Salzburg 2-4 4,500 Fjørtoft {{goal|77}}, Pfeifenberger {{goal|84}} 
39371246 {{tooltip|3|Round 3}} 28.07.1989 H Swarovski Tirol 0-2 20,000  {{tooltip|5|Round 5}} 05.08.1989 H Vienna 4-4 6,682 Kranjcar {{goal|4}} {{goal|63}}, Pfeifenberger {{goal|48}}, Herzog {{goal|76}} {{tooltip|7|Round 7}} 15.08.1989 H Kremser SC 3-1 7,500 Pfeifenberger {{goal|16}}, Kranjcar {{goal|35}}, Fjørtoft {{goal|74}} {{tooltip|11|Round 11}} 16.09.1989 H Wiener SC 1-0 4,000 Fjørtoft {{goal|16}} {{tooltip|16|Round 16}} 14.10.1989 H GAK 1-0 4,600 Fjørtoft {{goal|74}} 
39375069 6 Shanmugam Venkatesh {{flagicon|IND}} AMF {{birth date and age|df=yes|1978|11|21}} Mohun Bagan 8 Arata Izumi {{flagicon|IND}} AMF {{birth date and age|df=yes|1982|7|31}} Mahindra United 11 Douhou Pierre {{flagicon|CIV}} AMF {{birth date and age|df=yes|1987|12|21}} Mahindra United 12 Nicolau Borges {{flagicon|IND}} MF {{birth date and age|df=yes|1979|1|20}} Mohun Bagan 16 Velington Rocha {{flagicon|IND}} MF {{birth date and age|df=yes|1991|5|24}} Margao 
39375961 Svisloch-Krovlya Osipovichi {{Hs|1}}Premier League, 15 Dinamo-Juni Minsk 3 Khimik Svetlogorsk 4 Granit Mikashevichi 5 Neman Mosty 6 
39388333  Syb Talma Syb Talma
(1864–1916) 12 February 1908 –
29 August 1913 Anti-Revolutionary Party Theo Heemskerk
(T. Heemskerk)  Willem Treub Willem Treub
(also Minister of Finance
1914)
(1858–1931) 29 August 1913 –
19 November 1914
{{ref_label|appointment|Appt}} Free-thinking
Democratic League Pieter Cort van
der Linden
(Cort van der Linden)  Piet Aalberse Piet Aalberse
(also Minister of Labour
1918–1923)
(1871–1948) 1 January 1923 –
4 August 1925 Roman Catholic
State Party Charles Ruijs de
Beerenbrouck
(Ruijs de Beerenbrouck II)  Timotheus Verschuur Timotheus Verschuur
(1886–1945) 10 August 1929 –
1 May 1932 Roman Catholic
State Party Charles Ruijs de
Beerenbrouck
(Ruijs de Beerenbrouck III)  Timotheus Verschuur Timotheus Verschuur
(1886–1945) 1 May 1932 –
8 June 1933 Roman Catholic
State Party Charles Ruijs de
Beerenbrouck
(Ruijs de Beerenbrouck III) 
39422345 1 18 48 Jimmie Johnson Hendrick Motorsports Chevrolet 90 2 6 22 Joey Logano Penske Racing Ford 90 3 5 18 Kyle Busch Joe Gibbs Racing Toyota 90 4 10 5 Kasey Kahne Hendrick Motorsports Chevrolet 90 5 3 78 Kurt Busch Furniture Row Racing Chevrolet 90 
39424597 2004–05 SC Bern NLA  1 0 0 0 0  — — — 2004–05 SC Langenthal NLB  3 0 0 0 0  — — — 2005–06 EHC Basel NLA  37 2 0 2 39  5 1 0 2005–06 EHC Olten NLB  2 0 0 0 2  — — — 2006–07 EHC Basel NLA  40 4 4 8 16  — — — 
39424672 2003–04 GCK Lions NLB  39 1 3 4 26  6 0 0 2004–05 GCK Lions NLB  31 2 6 8 6  — — — 2005–06 GCK Lions NLB  40 3 11 14 30  4 1 0 2006–07 SCL Tigers NLA  41 0 0 0 20  — — — 2007–08 SCL Tigers NLA  42 3 5 8 16  — — — 
39500159  1997 {{Esc|Malta}} Debbie Scerri "Let Me Fly" 9   1998 {{Esc|Germany}} Guildo Horn "Guildo hat euch lieb!" 7   2000 {{Esc|Belgium}} Nathalie Sorce "Envie de vivre" 24   2001 {{Esc|Poland}} Piasek "2 Long" 20   2002 {{Esc|Greece}} Michalis Rakintzis "S.A.G.A.P.O." 17  
39501272 3 Michael Liddle {{flagicon|IRL}} Hounslow {{Age|1989|12|25}} LB 50 0 17 July 2012 Sunderland Undisclosed 30 June 2014 4 Luke Joyce {{flagicon|ENG}} Bolton {{Age|1987|7|9}} CM 178 5 1 July 2009 Carlisle United Free 30 June 2015 5 Tom Aldred {{flagicon|SCO}} Bolton {{Age|1990|9|11}} CB 15 0 31 January 2013 Colchester United Free 30 June 2015 7 Shay McCartan {{flagicon|NIR}} Newry {{age|1994|5|18}} CF 2 0 2 July 2013 Burnley Free 30 June 2014 9 Danny Webber {{flagicon|ENG}} Manchester {{age|1981|12|28}} CF 1 1 26 July 2013 Doncaster Rovers Free 30 June 2014 
39503890 1 48 Jimmie Johnson Hendrick Motorsports Chevrolet rowspan="43" colspan="2" {{n/a}} 2 99 Carl Edwards Roush Fenway Racing Ford 3 15 Clint Bowyer Michael Waltrip Racing Toyota 4 20 Matt Kenseth Joe Gibbs Racing Toyota 5 29 Kevin Harvick Richard Childress Racing Chevrolet 
39572297 1 99 Carl Edwards Roush Fenway Racing Ford 35.564 202.452 2 78 Kurt Busch Furniture Row Racing Chevrolet 35.665 201.879 3 5 Kasey Kahne Hendrick Motorsports Chevrolet 35.783 201.213 4 27 Paul Menard Richard Childress Racing Chevrolet 35.856 200.803 5 43 Aric Almirola Richard Petty Motorsports Ford 35.863 200.764 
39587568 October 8, 2013 Frans Nielsen New York Islanders Slashing Martin Hanzal. October 9, 2013 $5,000.00 U.S. October 14, 2013 Jason Chimera Washington Capitals Boarding Justin Schultz. October 15, 2013 $4,487.18 U.S. October 27, 2013 Kyle Clifford Los Angeles Kings Kneeing Ryan Nugent-Hopkins. October 28, 2013 $2,756.41 U.S. December 11, 2013 Brayden Schenn Philadelphia Flyers Cross-checking Kris Versteeg. December 13, 2013 $2,230.77 U.S. January 1, 2014 Joffrey Lupul Toronto Maple Leafs Cross-checking Patrick Eaves. January 3, 2014 $10,000.00 U.S. 
3960800 9. 180 Black Saturday bushfires Australia {{dts|2009|2|7}} 10. 160–300 Miramichi Fire Canada {{dts|1825|10|7}} 11. 102 2018 Attica wildfires Greece {{dts|2018|7|23}} 14. 84 2007 Greek forest fires Greece {{dts|2007|6|28}} 15. 82 1949 Landes forest fire France {{dts|1949|8|19}} 
39619714 2 1 Ryan Hunter-Reay Andretti Autosport Chevrolet 228 + 4.6919 4 3 35 41 3 11 Tony Kanaan KV Racing Technology Chevrolet 228 + 11.6088 4 13  35 5 25 Marco Andretti Andretti Autosport Chevrolet 228 + 19.5078 4 2 57 31 6 10 Dario Franchitti Chip Ganassi Racing Honda 227 + 1 lap 3 4  28 7 12 Will Power Team Penske Chevrolet 227 + 1 lap 3 1 4 28 
396356  Animal Justice Party Bruce Poon Animal welfare  Australian Affordable Housing Party Andrew Potts Affordable housing  Australian Progressives Robert Knight Progressivism  Child Protection Party Tony Tonkin Child protection advocacy  Citizens Electoral Council of Australia Craig Isherwood LaRouche Movement 
39715407 2 99 Carl Edwards Roush Fenway Racing Ford 29.459 183.306 3 48 Jimmie Johnson Hendrick Motorsports Chevrolet 29.485 183.144 4 18 Kyle Busch Joe Gibbs Racing Toyota 29.574 182.593 5 9 Marcos Ambrose Richard Petty Motorsports Ford 29.575 182.587 6 11 Denny Hamlin Joe Gibbs Racing Toyota 29.615 182.340 
39725539 1968–69 Lokomotiva 78&ndash;77 AŠK Olimpija  Zagreb Mirko Novosel 1970–71 Crvena zvezda 82&ndash;70 AŠK Olimpija Tivoli Hall Ljubljana {{flagicon|YUG}} Đorđe Andrijašević 1972–73 Crvena zvezda 71&ndash;65 Partizan Dom Sportova Zagreb {{flagicon|YUG}} Bratislav Đorđević 1976–77 Jugoplastika 80&ndash;62 Kvarner Dom Sportova Zagreb {{flagicon|YUG}} Petar Skansi (2) 1979–80 Cibona 68&ndash;62 Bosna Borovo Sports Hall Vukovar {{flagicon|YUG}} Mirko Novosel (2) 
39749340 1 18 Kyle Busch Joe Gibbs Racing Toyota 46.458 193.723 2 20 Matt Kenseth Joe Gibbs Racing Toyota 46.560 193.299 3 15 Clint Bowyer Michael Waltrip Racing Toyota 46.594 193.158 4 5 Kasey Kahne Hendrick Motorsports Chevrolet 46.595 193.154 6 27 Paul Menard Richard Childress Racing Chevrolet 46.614 193.075 
39762915 Enrico Demonte 200 m 20.52 20.45 La Chaux-de-Fonds 7 July 38th {{abbr|Quarter|Eliminated in quarter-finals}} 21.13 Matteo Galvan 400 m 45.60 45.59 Mersin 28 June 16th {{abbr|Semi|Eliminated in semi-finals}} 45.69 SF; 45.39 QF {{AthAbbr|PB}} Giordano Benedetti 800 m 1:45.40 1:44.67 Rome 6 June 20th {{abbr|Semi|Eliminated in semi-finals}} 1:48.31 Daniele Meucci 10,000 m 27:40.00 27:32.86 Palo Alto 29 April 2012 19th 28:06.74 {{AthAbbr|SB}} Patrick Nasti 3000 m st 8:32.00 8:30.28 Dessau 31 May 33rd {{abbr|Semi|Eliminated in semi-finals}} 8:36.42 
3976330 Hartley Joe Scalzi LIB 1.3% Stuart Graham Gunn LIB 1.3% Light Malcolm Buckby LIB 2.8% Kavel Mark Goldsworthy LIB 2.9% v IND Mawson Robert Brokenshire LIB 3.5% 
3977053 1981–82 Washington Capitals NHL &nbsp; 80 32 35 67 69 &nbsp; — — — 1982–83 Washington Capitals NHL &nbsp; 80 32 37 69 64 &nbsp; 4 1 0 1983–84 Washington Capitals NHL &nbsp; 80 28 40 68 51 &nbsp; 8 2 1 1984–85 Washington Capitals NHL &nbsp; 80 53 42 95 87 &nbsp; 5 1 4 1985–86 Washington Capitals NHL &nbsp; 80 27 39 56 105 &nbsp; 9 5 4 
39803818 4 LMP1-L 12 Rebellion Racing {{flagicon|FRA}} Nico Prost
{{flagicon|DEU}} Nick Heidfeld
{{flagicon|CHE}} Mathias Beche Rebellion R-One {{Michelin}} 360 +19 Laps {{double-dagger}} 5 LMP2 38 Jota Sport {{flagicon|GBR}} Simon Dolan
{{flagicon|GBR}} Harry Tincknell
{{flagicon|GBR}} Oliver Turvey{{refn|[[Marc Gené]] was originally scheduled to drive the No. 38 Jota Sport Zytek before being called up to replace the injured Duval in the No. 1 Audi. Jota replaced Gené with [[Oliver Turvey]], who drove the car for the first time in Thursday qualifying.|name=Turvey in|group=N}} Zytek Z11SN {{Dunlop}} 356 +23 Laps {{double-dagger}} 9 LMP2 35 OAK Racing {{flagicon|GBR}} Alex Brundle
{{flagicon|GBR}} Jann Mardenborough
{{flagicon|RUS}} Mark Shulzhitskiy Ligier JS P2 {{Dunlop}} 354 +25 Laps 19 LMGTE
Am 95 Aston Martin Racing {{flagicon|DNK}} David Heinemeier Hansson
{{flagicon|DNK}} Kristian Poulsen
{{flagicon|DNK}} Nicki Thiim Aston Martin V8 Vantage GTE {{Michelin}} 334 +45 Laps {{double-dagger}} 21 LMGTE
Am 88 Proton Competition {{flagicon|DEU}} Christian Ried
{{flagicon|AUT}} Klaus Bachler
{{flagicon|ARE}} Khaled Al Qubaisi Porsche 911 RSR {{Michelin}} 332 +47 Laps 
39821130 Cattaraugus Cattaraugus DeHart H. Ames Republican  Chenango Chenango Bert Lord Republican  Erie 2nd Ross Graves Republican  Erie 3rd Nicholas J. Miller Republican Chairman of Public Institutions Erie 4th James M. Mead Democrat  
39833170 1 13 55 Brian Vickers Michael Waltrip Racing Toyota 302 16 0{{ref label|inelligible|2|a}} 2 4 18 Kyle Busch Joe Gibbs Racing Toyota 302 53 43 3 9 31 Jeff Burton Richard Childress Racing Chevrolet 302 0 41 4 1 2 Brad Keselowski Penske Racing Ford 302 14 41 5 17 43 Aric Almirola Richard Petty Motorsports Ford 302 0 39 
39833230 2 48 Jimmie Johnson Hendrick Motorsports Chevrolet 48.016 187.438 3 99 Carl Edwards Roush Fenway Racing Ford 48.088 187.157 4 11 Denny Hamlin Joe Gibbs Racing Toyota 48.097 187.122 5 14 Tony Stewart Stewart-Haas Racing Chevrolet 48.173 186.827 6 78 Kurt Busch Furniture Row Racing Chevrolet 48.200 186.722 
3984134 Prime Minister of Canada Stephen Harper February 6, 2006 – 4 November 2015 Minister of Agriculture and Agri-Food Chuck Strahl 6 Feb. 2006 – 14 Aug. 2007 Minister of Agriculture and Agri-Food Gerry Ritz 14 Aug. 2007 – 4 Nov. 2015 Minister for the purpose of the Atlantic Canada Opportunities Agency Act Peter MacKay 6 Feb. 2006 – 19 Jan. 2010 Minister for the purpose of the Atlantic Canada Opportunities Agency Act Keith Ashfield 19 Jan. 2010 – 14 Jul. 2013 
39860033 1988
Details Bristol, CT Muzzy Field  {{CBSB link|year=1988|team=Ithaca Bombers|school=Ithaca College|title=Ithaca}} 7–5 1989
Details Bristol, CT Muzzy Field  {{CBSB link|year=1989|team=North Carolina Wesleyan Battling Bishops|school=North Carolina Wesleyan College|title=North Carolina Wesleyan}} 8–713 1990
Details Battle Creek, MI C. O. Brown Stadium  {{CBSB link|year=1990|team=Eastern Connecticut State Warriors|school=Eastern Connecticut State University|title=Eastern Connecticut State}} 8–1 1991
Details Battle Creek, MI C. O. Brown Stadium  {{CBSB link|year=1991|team=Southern Maine Huskies|school=University of Southern Maine|title=Southern Maine}} 9–0 1992
Details Battle Creek, MI C. O. Brown Stadium  {{CBSB link|year=1992|team=William Paterson Pioneers|school=William Paterson University|title=William Paterson}} 3–1 
39860153 Theodulgletschersee Valais 2851 7.76 Theodulhorn 3469 Rhone Chaltwassersee Valais 2756 4.41 Monte Leone 3553 Rhone Plaine Morte Valais 2752 11.4 Schneehorn 3178 Rhone Lac de Lona Valais 2640 6.32 Sasseneire 3254 Rhone Gornersee Valais 2599 4.13 Monte Rosa 4634 Rhone 
3988853 1929 The Hollywood Revue of 1929 Herself (performer) Charles Reisner Metro-Goldwyn-Mayer 1930 Our Blushing Brides Gerry Marsh Harry Beaumont Metro-Goldwyn-Mayer 1931 Dance, Fools, Dance Bonnie Jordan Harry Beaumont Metro-Goldwyn-Mayer 1931 Laughing Sinners Ivy Stevens Harry Beaumont Metro-Goldwyn-Mayer 1931 This Modern Age Val Winters Nick Grinde Metro-Goldwyn-Mayer 
39904691 2 Valentino Rossi Yamaha 2 8 4 2 2 3 2 5 4 3 3 3 1 Ret 3 1 2 2 295 3 Jorge Lorenzo Yamaha Ret 10 3 4 6 2 4 13 3 2 2 2 2 1 1 2 3 Ret 263 4 Dani Pedrosa Honda 3 2 2 3 5 4 3 3 2 4 1 4 3 14 4 Ret Ret 3 246 5 Andrea Dovizioso Ducati 5 3 9 5 8 6 8 2 8 7 6 5 4 Ret 5 4 8 4 187 9 Stefan Bradl Honda Ret 4 5 10 7 Ret 5 10 16 Ret 7 7 Ret 4 7 Ret 4 8 117 
39906353 1982
Details Ewing, NJ  Eastern Connecticut State 2–0 1985
Details Willimantic, CT  Eastern Connecticut State 1–0 1986
Details Storm Lake, IA  Eastern Connecticut State 1–0 1990
Details Storm Lake, IA  Eastern Connecticut State 1–0 1995
Details Storm Lake, IA  Chapman 4–2 
3991811 1986–87 Catholic Memorial School HS-MA &nbsp; 22 29 34 63 30 &nbsp; — — — 1991–92 Boston Bruins NHL &nbsp; 10 1 2 3 8 &nbsp; 15 3 4 1992–93 Boston Bruins NHL &nbsp; 82 15 20 35 61 &nbsp; 4 0 1 1993–94 Boston Bruins NHL &nbsp; 84 22 32 54 59 &nbsp; 13 4 2 1994–95 Boston Bruins NHL &nbsp; 47 10 10 20 10 &nbsp; 5 0 0 
3992564 G Gunther Hell 174 81 08/30/78 Bolzano HC Bolzano D Christian Borgatello 176 84 02/10/82 Meran HC Milano D Armin Helfer 188 84 05/31/80 Bruneck HC Milano D Bob Nardella 175 80 01/30/68 Chicago, Illinois Rockford IceHogs D Florian Ramoser 188 87 10/07/79 Bolzano HC Bolzano 
3996971 2 Arunachal Pradesh AR Itanagar 3 Assam AS Dispur 4 Bihar BR Patna 5 Chhattisgarh CT Naya Raipur 6 Goa GA Panaji 
39984158 1 48 Jimmie Johnson Hendrick Motorsports Chevrolet 49.819 180.654 2 18 Kyle Busch Joe Gibbs Racing Toyota 49.823 180.639 3 99 Carl Edwards Roush Fenway Racing Ford 49.950 180.180 5 78 Kurt Busch Furniture Row Racing Chevrolet 50.085 179.695 6 22 Joey Logano Penske Racing Ford 50.111 179.601 
3999687 1960 Uwe Seeler Hamburger SV 1964 Uwe Seeler Hamburger SV 1965 Hans Tilkowski Borussia Dortmund 1966 Franz Beckenbauer Bayern Munich 1968 Franz Beckenbauer Bayern Munich 
40027664 30 May 2013 Jacksonville United States Moran Theater 31 May 2013 Tampa United States Morsani Hall 2 June 2013 Birmingham United States BJCC Concert Hall 4 June 2013 Atlanta United States Cobb Energy Performing Arts Centre 6 June 2013 Houston United States Bayou Music Center 
40053283 1952–53 Athens Ethnikos Piraeus Olympiacos &nbsp;&nbsp;5–4 (ext) 1953–54 Athens Ethnikos Piraeus Olympiacos &nbsp;12–0 1954–55 Athens Ethnikos Piraeus Aris &nbsp;&nbsp;1–0 1955–56 Athens Ethnikos Piraeus Olympiacos &nbsp;&nbsp;7–2 1956–57 Athens Ethnikos Piraeus Olympiacos &nbsp;&nbsp;6–4 (ext) 
40184909 1 6 Kamui Kobayashi ASM Formule 3 2:14.500 4 2:13.449 1  1 3 16 Romain Grosjean Signature 2:14.404 3 2:13.930 3 +0.481 3 6 5 Paul di Resta ASM Formule 3 2:15.593 10 2:14.175 5 +0.726 5 8 2 Kazuki Nakajima Manor Motorsport 2:16.302 14 2:14.231 7 +0.782 7 9 17 Charlie Kimball Signature 2:15.479 9 2:14.379 8 +0.930 8 
4018978 G Vitali Yeremeyev 184 90 09/23/75 Ust-Kamenogorsk Dynamo Moscow G Vitali Kolesnik 190 90 08/20/79 Ust-Kamenogorsk Colorado Avalanche G Kirill Zinovyev 181 80 02/22/79 Ust-Kamenogorsk Barys Astana D Vladimir Antipin 184 85 04/18/70 Temirtau Khimik Moscow Oblast D Artyom Argokov 184 92 01/16/76 Ust-Kamenogorsk Metallurg Novokuznetsk 
40201645 2 8 Lucas di Grassi Manor Motorsport 2:13.081 2 2:11.913 2 +0.565 4{{Ref|2|2}} 3 5 Robert Kubica Carlin Motorsport 2:12.754 1 2:12.163 3 +0.815 2 4 9 Mike Conway Manor Motorsport 2:14.422 8 2:12.454 4 +0.906 3 5 11 Franck Perera Prema Powerteam 2:14.665 10 2:13.228 5 +1.880 21{{Ref|1|1}}{{Ref|2|2}} 10 15 Guillaume Moreau Signature-Plus 2:15.037 16 2:13.337 10 +1.989 9 
4020574 1 July 2005 MF Jeff Whitley Cardiff City Free 1 July 2005 FW Marcus Stewart Bristol City Free 1 July 2005 FW Brian Deane Perth Glory Free 11 July 2005 MF Sean Thornton Doncaster Rovers £175,000 25 July 2005 GK Thomas Myhre Fredrikstad Free 
4020575 18. 1999 Chinen Kaori 3-1 Kobayashi Izumi 21. 2002 Kobayashi Izumi 3-2 Chinen Kaori 23. 2004 Chinen Kaori 3-1 Kobayashi Izumi 28. 2009 Xie Yimin 3-1 Aoki Kikuyo 29. 2010 Xie Yimin 3-0 Mukai Chiaki 
40207070 1 22 Joey Logano Penske Racing Ford 35.303 203.949 2 78 Kurt Busch Furniture Row Racing Chevrolet 35.347 203.695 3 48 Jimmie Johnson Hendrick Motorsports Chevrolet 35.386 203.470 4 55 Mark Martin Michael Waltrip Racing Toyota 35.430 203.218 5 31 Jeff Burton Richard Childress Racing Chevrolet 35.448 203.114 
40217011 1 11 Denny Hamlin Joe Gibbs Racing Toyota 128.969 14.878 2 78 Kurt Busch Furniture Row Racing Chevrolet 128.770 14.901 3 99 Carl Edwards Roush Fenway Racing Ford 128.692 14.910 4 55 Brian Vickers Michael Waltrip Racing Toyota 128.684 14.911 5 20 Matt Kenseth Joe Gibbs Racing Toyota 128.580 14.923 
40291007 Ashleigh Coyle 18 Derry 2 72 {{Runner-up}} Ash Harrison 26 Manchester 2 72 {{CFinalist|4th Place}} Pavandeep "Pav" Paul 22 Ilford 40 72 {{CFinalist|6th Place}} Winston Showan 27 Brentwood 1 65 {{eliminated|Evicted}} Mark Byron 24 Liverpool 1 65 {{eliminated|Evicted}} 
40348620 Dec. 21 New Mexico Bowl University Stadium
University of New Mexico<br/ >Albuquerque, NM
2:00 pm ESPN Colorado State Rams (7–6)
Washington State Cougars (6–6) MW
Pac-12 Colorado State 48
Washington State 45 Dec. 21 Las Vegas Bowl Sam Boyd Stadium
University of Nevada, Las Vegas
Whitney, NV
3:30 pm ABC #25 USC Trojans (9–4)
#20 Fresno State Bulldogs (11–1) Pac-12
MW USC 45
Fresno State 20 Dec. 21 Famous Idaho Potato Bowl Bronco Stadium
Boise, ID
5:30 pm ESPN San Diego State Aztecs (7–5)
Buffalo Bulls (8–4) MW
MAC San Diego State 49
Buffalo 24 Dec. 21 New Orleans Bowl Mercedes-Benz Superdome
New Orleans, LA
9:00 pm ESPN Louisiana–Lafayette Ragin' Cajuns (8–4)
Tulane Green Wave (7–5) Sun Belt
C-USA Louisiana–Lafayette 24
Tulane 21 Dec. 24 Hawai'i Bowl Aloha Stadium
Honolulu, HI
8:00 pm ESPN Oregon State Beavers (6–6)
Boise State Broncos (8–4) Pac-12{{efn|[[Conference USA]] was to have sent a team, but because of a lack of bowl eligible teams, the Pac-12 sent a team instead.}}
MW Oregon State 38
Boise State 23 
4038261 2000
(52nd) Liev Schreiber Orson Welles RKO 281 HBO 2001
(53rd) Ben Kingsley Otto Frank Anne Frank: The Whole Story ABC 2002
(54th) Michael Gambon Lyndon B. Johnson Path to War HBO 2003
(55th) James Woods Rudy Giuliani Rudy: The Rudy Giuliani Story USA 2004
(56th) Antonio Banderas Pancho Villa And Starring Pancho Villa as Himself HBO 
4038417 2010
(62nd) Archie Panjabi Kalinda Sharma The Good Wife CBS 2010
(62nd) Christine Baranski Diane Lockhart The Good Wife CBS 2010
(62nd) Sharon Gless Madeline Westen Burn Notice USA 2011
(63rd) Christine Baranski Diane Lockhart The Good Wife CBS 2011
(63rd) Kelly Macdonald Margaret Schroeder Boardwalk Empire HBO 
4042116 1919–20 Toronto Aura Lee OHA-Jr.  6 4 2 0 360 31 0 1921–22 Toronto St. Patricks NHL  22 11 10 1 1340 91 0 1922–23 Toronto St. Patricks NHL  24 13 10 1 1469 88 1 1923–24 Toronto St. Patricks NHL  23 10 13 0 1380 80 1 1924–25 Toronto St. Patricks NHL  30 19 11 0 1800 84 1 
40424836 3 LMP1 12 Rebellion Racing {{flagicon|FRA}} Nicolas Prost
{{flagicon|DEU}} Nick Heidfeld
{{flagicon|SUI}} Mathias Beche Lola B12/60 {{Michelin}} 230 5 LMP2 35 OAK Racing {{flagicon|BEL}} Bertrand Baguette
{{flagicon|GBR}} Martin Plowman
{{flagicon|MEX}} Ricardo González Morgan LMP2 {{Dunlop}} 221 8 LMP2 45 OAK Racing {{flagicon|FRA}} Jacques Nicolet
{{flagicon|FRA}} Jean-Marc Merlin
{{flagicon|JPN}} Keiko Ihara Morgan LMP2 {{Dunlop}} 214 9 LMGTE
Pro 51 AF Corse {{flagicon|ITA}} Gianmaria Bruni
{{flagicon|ITA}} Giancarlo Fisichella Ferrari 458 Italia GT2 {{Michelin}} 212 10 LMGTE
Pro 97 Aston Martin Racing {{flagicon|GBR}} Darren Turner
{{flagicon|DEU}} Stefan Mücke Aston Martin Vantage GTE {{Michelin}} 212 
4043325 1989 CTV Don Chevrier Tony Kubek Fergie Olver 1988 CTV Don Chevrier Tony Kubek Fergie Olver 1987 CTV Don Chevrier Tony Kubek Fergie Olver 1986 CTV Don Chevrier Tony Kubek Fergie Olver 1985 CTV Don Chevrier Tony Kubek Fergie Olver 
4043553 G Vitaliy Yeremeyev 184 90 09/23/75 Ust-Kamenogorsk HC Dynamo Moscow G Vitaly Kolesnik 190 90 08/20/79 Ust-Kamenogorsk Colorado Avalanche G Kirill Zinovyev 181 80 02/22/79 Ust-Kamenogorsk Torpedo Ust-Kamenogorsk D Vladimir Antipin 184 85 04/18/70 Temirtau Mytischi Khimik D Artyom Argokov 184 92 01/16/76 Ust-Kamenogorsk Metallurg Novokuznezk 
40452469 1994 Ace Ventura: Pet Detective Best Comedic Performance {{Nominated}}  1995 Dumb and Dumber Best Comedic Performance {{WON}}  1996 Ace Ventura: When Nature Calls Best Male Performance {{WON}}  1996 Ace Ventura: When Nature Calls Best Comedic Performance {{WON}}  1996 Batman Forever Best Villain {{Nominated}}  
40467550 1 19 39 Austin Dillon Richard Childress Racing Chevrolet 153 0 2 13 30 Kyle Larson Turner Scott Motorsports Chevrolet 153 0 4 11 18 Joey Coulter Kyle Busch Motorsports Toyota 153 40 5 8 62 Brendan Gaughan Richard Childress Racing Chevrolet 153 39 6 3 17 Timothy Peters Red Horse Racing Toyota 153 39 
4047486 9 March 1971 Nik Ahmad Kamil Nik Mahmud Unopposed Tunku Abdul Rahman Ismail Abdul Rahman 6 November 1974 Syed Nasir Ismail Unopposed Abdul Razak Hussein Hussein Onn 14 June 1982 Hee Tien Lai Unopposed Mahathir Mohamad Samy Vellu 11 June 1990 Ong Tee Keat 107 Mahathir Mohamad Samy Vellu 5 December 1990 Ong Tee Keat Unopposed Mahathir Mohamad Samy Vellu 
40489201 O
C
T
O
B
E
R 10 Dracula Untold Gary Shore Luke Evans
Sarah Gadon
Dominic Cooper
Zach McGowan Fantasy Universal Pictures  O
C
T
O
B
E
R 17 The Czar of Black Hollywood Bayer Mack Oscar Micheaux Biopic Documentary Block Starz Music Television  O
C
T
O
B
E
R 17 Dear White People Justin Simien Tyler James Williams
Dennis Haysbert
Tessa Thompson
Kyle Gallner Drama Lions Gate Entertainment  O
C
T
O
B
E
R 24 Laggies Lynn Shelton Keira Knightley
Chloë Grace Moretz
Sam Rockwell
Mark Webber Romantic comedy A24 Films  N
O
V
E
M
B
E
R 7 Jessabelle Kevin Greutert Sarah Snook
Mark Webber
Joelle Carter
Amber Stevens Horror Lions Gate Entertainment  
40565869 2019 Pamilya Ko Loida Magtulis ABS-CBN 2019 Maalaala Mo Kaya: Passport Nena Ruiz ABS-CBN 2019 Magpakailanman: Mula Zamboanga Hanggang Sementeryo (The Ethel Nierras Story) Nanay Rosalina GMA Network 2019 Tadhana: Patibong Georgette GMA Network 2019 Maalaala Mo Kaya: Pregnancy Test Dudz's Mother ABS-CBN 
4058333 3. 2000 Chinen Kaori 2-0 Kobayashi Izumi 7. 2004 Mannami Kana 2-1 Chinen Kaori 8. 2005 Chinen Kaori 2-0 Mannami Kana 9. 2006 Mannami Kana 2-1 Chinen Kaori 10. 2007 Umezawa Yukari 2-1 Mannami Kana 
405899 Ansonia New Haven 18,531 1893 1893 Bridgeport Fairfield 144,229 1836 1889 Bristol Hartford 61,353 1911 1911 Danbury Fairfield 80,893 1889 1965 Derby New Haven 12,903 1893 1893 
405910 1932 Marmaduke Grove Vallejo NAP 17.7  {{no2|defeat}} 1938 Pedro Aguirre Cerda PR 50.5  {{yes2|victory}} 1952 Salvador Allende PS 5.4  {{no2|defeat}} 1958 Salvador Allende PS 28.8  {{no2|defeat}} 1964 Salvador Allende PS 38.9  {{no2|defeat}} 
40597426 1 10 {{Tooltip|Aug.|August}} 15:30 H Augsburg Borussia Dortmund 0–4 30,660 Ostrzolek {{yel|52}}
Morávek {{yel|83}} Aubameyang {{goal|24||66||79}}
Lewandowski {{goal|86|pen.}} 17 0  2 17 {{Tooltip|Aug.|August}} 15:30 A Bremen Werder Bremen 0–1 40,112 Verhaegh {{yel|42}}
Morávek {{yel|58}}
Hahn {{yel|77}}
Callsen-Bracker {{yel|90}} Ekici {{goal|23}} {{yel|50}}
Prödl {{yel|28}}
Lukimya-Mulongoti {{yel|41}} 17 0  3 25 {{Tooltip|Aug.|August}} 17:30 H Augsburg VfB Stuttgart 2–1 30,030 Altıntop {{goal|6}}
Verhaegh {{yel|10}}
Callsen-Bracker {{goal|36}}
Hahn {{yel|86}} Abdellaoue {{yel|24}}
Ibišević {{goal|42}}
Gentner {{yel|60}}
Sakai {{yel|67}}
Traoré {{sentoff|0|70}} 12 3  5 14 {{Tooltip|Sep.|September}} 15:30 H Augsburg SC Freiburg 2–1 28,453 Mölders {{yel|45}}
Altıntop {{goal|62}}
Werner {{goal|89}} Guédé {{yel|16}}
Höfler {{yel|45}}
Mehmedi {{goal|46}} 6 9  6 21 {{Tooltip|Sep.|September}} 15:30 A Hanover Hannover 96 1–2 39,200 Baier {{yel|14}}
Ostrzolek {{yel|23}}
Verhaegh {{goal|51|pen.}}, {{yel|71}}
Morávek {{yel|58}} Marcelo {{yel|45}}
Stindl {{yel|53}}
Sobiech {{goal|60}}
Sakai {{yel|69}}
Huszti {{goal|89|pen.}} 8 9  
40648825 2 20 Matt Kenseth Joe Gibbs Racing Toyota 22.249 161.805 4 99 Carl Edwards Roush Fenway Racing Ford 22.276 161.609 5 43 Aric Almirola Richard Petty Motorsports Ford 22.276 161.609 6 2 Brad Keselowski Penske Racing Ford 22.278 161.594 7 1 Jamie McMurray Earnhardt Ganassi Racing Chevrolet 22.292 161.493 
40695762 1 29 Kevin Harvick Richard Childress Racing Chevrolet 28.796 187.526 3 48 Jimmie Johnson Hendrick Motorsports Chevrolet 28.852 187.162 4 2 Brad Keselowski Penske Racing Ford 28.996 186.233 5 22 Joey Logano Penske Racing Ford 29.006 186.168 7 20 Matt Kenseth Joe Gibbs Racing Toyota 29.049 185.893 
40713503 2 Rudolf Caracciola Private entry Alfa Romeo Alfa Romeo Monza 2.3 L8 4 Earl Howe Private entry Bugatti Bugatti T51 2.3 L8 12 Louis Chiron Automobiles E. Bugatti Bugatti Bugatti T51 2.3 L8 16 Achille Varzi Automobiles E. Bugatti Bugatti Bugatti T51 2.3 L8 20 Marcel Lehoux Private entry Bugatti Bugatti T51 2.3 L8 
40714883 100 m 10.3 Ibrahim Ismail Muftah {{flagu|Qatar}} 1988 1988 Championships {{flagicon|SYR}} Damascus, Syria  400 m 45.7 Fawzi Al-Shammari {{flagu|Kuwait}} 1998 1998 Championships {{flagicon|SYR}} Damascus, Syria  800 m 1:46.92 Belal Ali Belal Mansoor {{flagu|Bahrain}} November 2006 2006 Championships {{flagicon|EGY}} Cairo, Egypt  1500 m 3:39.74 Mohamad Al-Garni {{flagu|Bahrain}} May 2010 2010 Championships {{flagicon|EGY}} Cairo, Egypt  5000 m 13:57.1 Adam Ismail Issa {{flagu|Bahrain}} November 2006 2006 Championships {{flagicon|EGY}} Cairo, Egypt  
40735457 Jizō with the Ten Kings of Hell
{{nihongo2|地蔵十王図}}
Jizō jūō zu {{sort|1300-1392|C14}} Sagae {{nihongo|Kezō-in|華蔵院}} Goryeo Buddhist painting File:Ksitigarbha with Ten Kings of Hell (Kezoin Sagae).jpg {{convert|115.2|cm|ftin}} by {{convert|59.1|cm|ftin}} {{coord|38.410289|N|140.252023|E|display=inline|format=dms|type:landmark_region:JP_scale:10000|name=Kezō-in}}  Mount Fuji, byōbu, by Takeuchi Seihō
{{nihongo2|竹内棲鳳筆 冨士図 六曲屏風}}
Takeuchi Seihō hitsu Fuji zu rokkyoku byōbu {{sort|1864.1942|late C19}} Sakata Homma Museum of Art pair of six-fold screens File:Fuji by Takeuchi Seiho (Homma Museum of Art).jpgFile:Fuji by Takeuchi Seiho (Homma Museum of Art)r.jpg  {{coord|38.923293|N|139.842117|E|display=inline|format=dms|type:landmark_region:JP_scale:10000|name=Homma Museum of Art}}  Copperplate Landscapes, by Shiba Kōkan
{{nihongo2|司馬江漢筆 銅版風景図}}
Shiba Kōkan hitsu dōban fūkei zu {{sort|1747.1818|[[Edo period]]}} Sakata Homma Museum of Art seven prints File:Copperplate Landscape by Shiba Kokan (Homma Museum of Art).jpg  {{coord|38.923293|N|139.842117|E|display=inline|format=dms|type:landmark_region:JP_scale:10000|name=Homma Museum of Art}}  American Ship, by Honma Hokuyō
{{nihongo2|[[:ja:本間北曜|本間北曜]]筆 アメリカ船図}}
Honma Hokuyō hitsu Amerika-fune zu {{sort|1853|1853}} Sakata Homma Museum of Art from Perry's first visit File:American Ship by Honma Hokuyo (Homma Museum of Art).jpg  {{coord|38.923293|N|139.842117|E|display=inline|format=dms|type:landmark_region:JP_scale:10000|name=Homma Museum of Art}}  Four Asleep, by Nagasawa Rosetsu
{{nihongo2|長沢芦雪筆 四睡図}}
Nagasawa Rosetsu hitsu shi-sui zu {{sort|1754.1799|C18}} Sakata Homma Museum of Art the four sleeping figures are Hanshan, Shide, Fenggan, and a tiger File:Four Asleep by Nagasawa Rosetsu (Homma Museum of Art).jpg  {{coord|38.923293|N|139.842117|E|display=inline|format=dms|type:landmark_region:JP_scale:10000|name=Homma Museum of Art}}  
407372 1953 Douglas Fairbanks Presents Young Hooligan NBC 1 episode 1966–1967 The Frost Report Various roles BBC One 28 episodes 1970 Jackanory Storyteller BBC One 5 episodes 1971–1973 Now Look Here Ronnie BBC One 14 episodes 1971–1987 The Two Ronnies Himself & various characters BBC One 93 episodes 
4077090 Runner-up 1. March 31, 1991 San Antonio Hard Jill Hetherington {{flagicon|USA}} Patty Fendick
{{flagicon|YUG}} Monica Seles 6–7(2–7), 2–6 Winner 1. April 21, 1991 Houston Clay Jill Hetherington {{flagicon|USA}} Patty Fendick
{{flagicon|USA}} Mary Joe Fernández 6–1, 2–6, 6–1 Winner 2. August 4, 1991 San Diego Hard Jill Hetherington {{flagicon|USA}} Gigi Fernández
{{flagicon|FRA}} Nathalie Tauziat 6–4, 3–6, 6–2 Runner-up 3. February 2, 1992 Auckland Hard Jill Hetherington {{flagicon|RSA|1928}} Rosalyn Fairbank
{{flagicon|ITA}} Raffaella Reggi 6–1, 1–6, 5–7 Runner-up 4. March 1, 1992 Indian Wells Hard Jill Hetherington {{flagicon|GER}} Claudia Kohde-Kilsch
{{flagicon|USA}} Stephanie Rehe 3–6, 3–6 
40779238 1972 Montreal Chicoutimi 1974 Saint-Georges-de-Beauce Salaberry-de-Valleyfield 1977 LaSalle, Quebec Sherbrooke 1978 Amos Joliette 1981 Victoriaville Hull 
4095703 1973–74 London Knights OHA-Jr. &nbsp; 13 0 0 0 2 &nbsp; — — — 1978–79 Atlanta Flames NHL &nbsp; 80 0 19 19 101 &nbsp; 2 0 0 1979–80 Atlanta Flames NHL &nbsp; 80 2 9 11 119 &nbsp; 4 0 1 1980–81 Calgary Flames NHL &nbsp; 80 1 12 13 87 &nbsp; 16 0 5 1981–82 Calgary Flames NHL &nbsp; 17 0 1 1 10 &nbsp; — — — 
40959794 1 5 48 Jimmie Johnson Hendrick Motorsports Chevrolet 400 185 2 34 18 Bobby Labonte Joe Gibbs Racing Chevrolet 400 175 3 12 99 Carl Edwards Roush Racing Ford 400 170 4 36 19 Jeremy Mayfield Evernham Motorsports Dodge 400 160 6 26 16 Greg Biffle Roush Racing Ford 400 155 
40960139 Drenica 2010–11 Football Superleague of Kosovo 3 0 0 0 — — — — 3 0 Drenica 2011–12 Football Superleague of Kosovo 17 0 0 0 — — — — 17 0 Drenica 2012–13 Football Superleague of Kosovo 20 1 0 0 — — — — 20 1 Partizani Tirana 2013–14 Albanian Superliga 25 0 4 0 — — — — 29 0 Partizani Tirana 2014–15 Albanian Superliga 34 3 3 0 — — — — 37 3 
41052883 20 Matt Kenseth Joe Gibbs Racing Toyota 177.667 30.394 1 78 Kurt Busch Furniture Row Racing Chevrolet 177.445 30.432 2 22 Joey Logano Penske Racing Ford 177.282 30.460 3 2 Brad Keselowski Penske Racing Ford 177.061 30.498 4 11 Denny Hamlin Joe Gibbs Racing Toyota 176.846 30.535 5 
4106867 Baza 2–1 Ciudad de Murcia Burgos 3–1 Salamanca Ceuta 0–1 Eibar Lemona 0–2 Lleida Alcoyano 3–0 Racing Ferrol 
41094521 9 Tristram Cary "Forest Atmosphere" The Daleks 10 Tristram Cary "Skaro - Petrified Forest Atmosphere" ("Thal Wind") The Daleks 11 Tristram Cary "TARDIS Computer" The Daleks 12 Tristram Cary "Forest With Creature" The Daleks 13 Tristram Cary "City Music 1 and 2" The Daleks 
41137074 Japan  United States Kosuke Endo W 14 W Taku Ngwenya Koji Taira C 13 C Paul Emerick Ryan Nicholas C 12 C Andrew Suniula Shaun Webb FH 10 FH Mike Hercus 
41191449 7 Felipe Martins {{flagu|BRA}} AM {{birth date and age|1990|09|30}} FC Lugano 8 Patrice Bernier {{flagu|CAN}} DM {{birth date and age|1979|9|23}} Lyngby Boldklub 10 Ignacio Piatti {{flagu|ARG}} AM {{birth date and age|1985|2|4}} San Lorenzo de Almagro 16 Calum Mallace {{flagu|SCO}} DM {{birth date and age|1990|10|01}} Marquette Golden Eagles 17 Issey Nakajima-Farran {{flagu|CAN}} RM {{birth date and age|1984|05|16}} Toronto FC 
41246754 1925–26 W. C. Raftery SoCon 7 8 3 5 13th Quarterfinal — — — 1926–27 W. C. Raftery SoCon 3 12 0 7 21st Quarterfinal — — — 1927–28 W. C. Raftery SoCon 7 6 5 5 9th Quarterfinal — — — 1928–29 W. C. Raftery SoCon 6 7 1 7 22nd — — — — 1929–30 W. C. Raftery SoCon 4 10 2 6 17th Quarterfinal — — — 
4127980 1990–91 SKA Leningrad USSR &nbsp; 3 0 1 1 0 &nbsp; — — — 1996–97 Avangard Omsk RSL &nbsp; 39 20 16 36 24 &nbsp; 5 3 1 1997–98 Avangard Omsk RSL &nbsp; 20 6 11 17 6 &nbsp; — — — 1998–99 Avangard Omsk RSL &nbsp; 41 15 16 31 46 &nbsp; 5 3 1 1999–2000 Avangard Omsk RSL &nbsp; 37 19 24 43 58 &nbsp; 8 2 5 
41349166 1987 Premalokam Hamsalekha 1987 Swayamkrushi Ramesh Naidu 1987 Srinivasa Kalyanam K. V. Mahadevan 1987 Trimurtulu Bappi Lahiri 1988 Muthyamantha Muddu Hamsalekha 
41392472 Vienna Capitals Vienna Austrian Hockey League founding club A HC Pardubice Pardubice Czech Extraliga founding club A HIFK Helsinki Liiga founding club A KalPa Kuopio Liiga founding club A Tappara Tampere Liiga founding club A 
41490666 2005 Fort Minor "Petrified/Remember the Name" The Rising Tied 2005 Fort Minor "Believe Me" The Rising Tied 2006 Fort Minor "Where'd You Go" The Rising Tied 2006 Fort Minor "S.C.O.M." Fort Minor: We Major 2006 Fort Minor "Dolla" Fort Minor: We Major 
41494808 Goalkeeper Adrianna Franch Western New York Flash Defender Rachel Buehler Portland Thorns Defender Caitlin Foord Sky Blue FC Defender Ali Krieger Washington Spirit Defender Lauren Sesselmann FC Kansas City 
41501577 Academy Award 2 March 2014 Best Documentary Feature {{sortname|Joshua|Oppenheimer}} and {{sortname|Signe Byrge|Sørensen}} {{nominated}}  Alliance of Women Film Journalists 8 December 2013 Best Documentary {{sortname|Joshua|Oppenheimer}} {{nom}}  Asia Pacific Screen Awards 12 December 2013 Best Documentary Feature Film {{sort|Act of Killing, The|[[The Act of Killing]]}} {{won}}  Austin Film Critics Association 17 December 2013 Best Documentary {{sortname|Joshua|Oppenheimer}} {{won}}  Australian Film Critics Association Film & Writing Awards 1 March 2014 Best Documentary {{sort|Act of Killing, The|[[The Act of Killing]]}} {{nom}}  
41509399 1 3 Austin Dillon Richard Childress Racing Chevrolet 45.914 196.019 3 16 Greg Biffle Roush Fenway Racing Ford 45.961 195.818 4 99 Carl Edwards Roush Fenway Racing Ford 45.986 195.712 6 2 Brad Keselowski Team Penske Ford 46.084 195.296 10 27 Paul Menard Richard Childress Racing Chevrolet 46.173 194.919 
41517649 30 December 2013–
5 January 2014 Brisbane International Brisbane (AUS) 250 Series Hard A N/A 150 Final (lost to Lleyton Hewitt, 1–6, 6–4, 3–6) 24 February 2014–
2 March 2014 Dubai Tennis Championships Dubai (UAE) 500 Series Hard SF 180 500 Champion (defeated Tomáš Berdych, 3–6, 6–4, 6–3) 3 March 2014–
16 March 2014 Indian Wells Masters Indian Wells (USA) Masters 1000 Hard QF 180 600 Final (lost to Novak Djokovic, 6–3, 3–6, 6–7(3–7)) 17 March 2014–
30 March 2014 Miami Masters Miami (USA) Masters 1000 Hard A 0 180 Quarterfinals (lost to Kei Nishikori, 6–3, 5–7, 4–6) 12 April 2014–
20 April 2014 Monte-Carlo Masters Monte Carlo (MON) Masters 1000 Clay A N/A 600 Final (lost to Stanislas Wawrinka, 6–4, 6–7(5–7), 2–6) 
41523647 2 17 Aug A Pelister 2 – 1 Oliveira, Dimov 6 14 Sep H Pobeda 2 – 0 Zaharievski, Spasovski 8 29 Sep H Sloga Jugomagnat 2 – 1 Oliveira, Jovanoski (o.g.) 11 23 Oct A Rabotnichki Kometal 2 – 1 Georgievski, Ristovski 13 3 Nov H Pelister 3 – 1 Oliveira, Spasovski, Gjoševski 
41543924 Li Na {{flag|CHN}} Shenzhen Caroline Garcia {{flag|FRA}} Bogota Monica Puig {{flag|PUR}} Strasbourg Simona Halep {{flag|ROU}} Bucharest Elina Svitolina {{flag|UKR}} Baku 
41561354 3 5 Mark Winterbottom Ford FG Falcon Ford Performance Racing 1:20.8204 4 22 James Courtney Holden VF Commodore Holden Racing Team 1:20.8312 6 97 Shane van Gisbergen Holden VF Commodore Tekno Autosports 1:20.8459 8 16 Scott Pye Ford FG Falcon Dick Johnson Racing 1:20.9479 9 47 Tim Slade Holden VF Commodore Walkinshaw Racing 1:20.9603 
41561376 1 22 James Courtney Holden Racing Team Holden VF Commodore 1:03.0638 2 5 Mark Winterbottom Ford Performance Racing Ford FG Falcon 1:03.0818 4 6 Chaz Mostert Ford Performance Racing Ford FG Falcon 1:03.2487 6 222 Nick Percat James Rosenberg Racing Holden VF Commodore 1:03.2671 7 97 Shane van Gisbergen Tekno Autosports Holden VF Commodore 1:03.2781 
41561389 2 2 Garth Tander Holden VF Commodore Holden Racing Team 1:08.7276 + 0.1546s 4 5 Mark Winterbottom Ford FG Falcon Ford Performance Racing 1:08.8766 + 0.3036s 5 22 James Courtney Holden VF Commodore Holden Racing Team 1:08.8926 + 0.3196s 6 47 Tim Slade Holden VF Commodore Walkinshaw Racing 1:08.9495 + 0.3765s 7 97 Shane van Gisbergen Holden VF Commodore Tekno Autosports 1:08.9647 + 0.3917s 
41571702 1 3 Austin Dillon Richard Childress Racing Chevrolet 50.266 179.047 2 31 James Buescher Turner Scott Motorsports Chevrolet 50.422 178.423 4 4 Ricky Carmichael Turner Scott Motorsports Chevrolet 50.614 177.816 6 2 Elliott Sadler Kevin Harvick Incorporated Chevrolet 50.889 176.856 7 88 Matt Crafton ThorSport Racing Chevrolet 50.988 176.512 
4158290 1991–92 Lada Togliatti CIS &nbsp; 27 7 5 12 14 &nbsp; — — — 1996–97 Metallurg Magnitogorsk RSL &nbsp; 44 17 14 31 48 &nbsp; 11 8 4 1997–98 Metallurg Magnitogorsk RSL &nbsp; 40 13 21 34 42 &nbsp; 10 6 3 1998–99 Metallurg Magnitogorsk RSL &nbsp; 40 25 18 43 46 &nbsp; 15 4 8 1999–2000 Metallurg Magnitogorsk RSL &nbsp; 36 17 18 35 67 &nbsp; 12 5 7 
41590071 Mickey Blue Eyes Michael Felgate Hugh Grant   Love Actually David Hugh Grant   American Dreamz Martin "Tweedy" Tweed Hugh Grant   A Very English Scandal Jeremy Thorpe Hugh Grant   Amistad Roger Sherman Baldwin Matthew McConaughey   
4159240 1986 Austria Wien 1–3 Rapid Wien 1987 Rapid Wien 2–1 Swarovski Tirol 1988 Rapid Wien 1–1 (a.e.t.) (3–1 p) Kremser SC 1990 Swarovski Tirol 1–5 Austria Wien 1991 Austria Wien 3–0 SV Stockerau 
41598221 Terrassa FC 2–0 Levante UDA Gramenet 0–1 RCD Mallorca Novelda CF 3–2 FC Barcelona Amurrio Club 1–2 Athletic Bilbao Real Union 3–2 Racing Santander 
41598473 Elche 2–3 Espanyol Alicante 1–2 Villarreal Badajoz 1–4 Real Betis Barakaldo 0–1 Racing de Santander Gramenet 0–1 Barcelona 
41617665 3. January 1, 1955 Sun Bowl Texas-El Paso L 20–47 6. December 24, 1966 Sun Bowl Wyoming L 20–28 8. December 30, 1968 Peach Bowl LSU L 27–31 9. December 23, 1971 Fiesta Bowl Arizona State L 38–45 14. December 30, 1983 Peach Bowl North Carolina W 28–3 
41619114 Ararat College Ararat     website Bendigo Senior Secondary College Bendigo    1907 website Bendigo South East Secondary College Bendigo     website Berwick Secondary College Berwick     website Brunswick Secondary College Brunswick     website 
4164222 Hannover 1998–99 2. Bundesliga 8 1 1 0 — — — — 9 Hannover 1999–2000 2. Bundesliga 24 1 2 0 — — — — 26 Freiburg 2000–01 Bundesliga 25 2 2 2 — — — — 27 Freiburg 2001–02 Bundesliga 15 2 2 0 5 2 1 0 23 Borussia Dortmund 2001–02 Bundesliga 15 1 0 0 — — — — 15 
41647074 3 Nandurbar Vijaykumar Krishnarao Gavit BJP 101,328 4 Navapur Surupsingh Hirya Naik INC 93,796 5 Sakri Dhanaji Sitaram Ahire INC 74,760 6 Dhule Rural Kunal Rohidas Patil INC 119,094 8 Sindkheda Jayakumar Jitendrasinh Rawal BJP 92,794 
41658215 2003 Kapfenberg Bulls 81–74 Allianz Swans Gmunden Vösendorf Rasheed Brokenborough 2004 Kapfenberg Bulls 50–85 Allianz Swans Gmunden Wels {{n/a}} 2005 Allianz Swans Gmunden 92–64 Oberwart Gunners Vienna {{Flagicon|Austria}} De'Teri Mayes 2006 Allianz Swans Gmunden 80–69 WBC Wels Wels {{n/a}} 2007 Allianz Swans Gmunden 82–71 Kapfenberg Bulls Wels {{n/a}} 
41749754 Torpedo-Kadino Mogilev {{Hs|1}}Premier League, 15 Kommunalnik Slonim {{Hs|2}}Premier League, 16 Neman Mosty 3 Zvezda-VA-BGU Minsk 4 Granit Mikashevichi 5 
41752225 After Burner II Arcade 1987 {{dts|2013|12|18}} {{dts|2015|01|15}} {{dts|2015|01|15}} {{dts|2015|01|15}} Alien Syndrome Arcade 1987 {{dts|2016|12|22}} {{Unreleased}} {{Unreleased}} {{Unreleased}} Altered Beast Sega Genesis 1988 {{dts|2013|05|29}} {{dts|2013|12|05}} {{dts|2013|12|05}} {{dts|2013|12|05}} Champion Boxing SG-1000 1984 {{dts|2016|12|22}} {{Unreleased}} {{Unreleased}} {{Unreleased}} Ecco the Dolphin Sega Genesis 1992 {{dts|2013|06|26}} {{dts|2013|12|12}} {{dts|2013|12|12}} {{dts|2013|12|12}} 
41758011 2008 Slumdog Millionaire Broadcast Film Critics Association Award for Best Director {{won}} 2008 Slumdog Millionaire Chicago Film Critics Association Award for Best Director {{won}} 2008 Slumdog Millionaire Dallas-Fort Worth Film Critics Association Award for Best Director {{won}} 2008 Slumdog Millionaire Detroit Film Critics Society Award for Best Director {{won}} 2008 Slumdog Millionaire Florida Film Critics Circle Award for Best Director {{won}} 
41877402 1986 Ek Misaal Hindi   1986 Oomai Vizhigal Tamil   1987 Megam Karuththirukku Tamil   1987 Ananda Aradhanai Tamil   1987 Parisam Pottachu Tamil   
41877800 1996 D.C. United Tampa Bay Mutiny 1998 Chicago Fire LA Galaxy 2003 San Jose Earthquakes Chicago Fire 2004 D.C. United Columbus Crew 2005 LA Galaxy San Jose Earthquakes 
41915152 2006 Great Inheritance Jin Kyung-ho KBS2 2006 Please Come Back, Soon-ae Yoon Chan SBS 2007 How to Meet a Perfect Neighbor Yang Go-ni SBS 2008 Iljimae Adopted son of
Iljimae's two mothers SBS 2008 Glass Castle Son Kang-min SBS 
41934697 2000 Never 7: The End of Infinity Planner, scenario writer  2000 Memories Off Pure Scenario writer  2000 Memories Off 2nd Planner, scenario writer  2002 Ever 17: The Out of Infinity Planner, scenario writer  2004 Remember 11: The Age of Infinity Planner, scenario writer  
4193761 Dmitry Dorofeyev 500 m 35.48 19 35.27 20 70.75 18 Aleksandr Kibalko 1500 m     1:47.63 22 Sergey Klevchenya 500 m 35.10 11 35.18 18 70.28 13 Sergey Klevchenya 1000 m     1:08.41 9 Yuri Kokhanets 5000 m     6:36.48 27 
41946051 11 Denny Hamlin Joe Gibbs Racing Toyota 1 1 Jamie McMurray Chip Ganassi Racing Chevrolet 2 18 Kyle Busch Joe Gibbs Racing Toyota 4 2 Brad Keselowski Team Penske Ford 5 4 Kevin Harvick Stewart-Haas Racing Chevrolet 6 
42047159 9 Mar Barclays Kenya Open Kenya {{flagicon|ZAF}} Jake Roos (1) 12  6 Apr NH Collection Open Spain {{flagicon|ITA}} Marco Crespi (3) 18 New tournament
Dual-ranking event with European Tour 27 Apr Challenge de Catalunya Spain {{flagicon|ESP}} Antonio Hortal (1) 12  11 May Madeira Islands Open - Portugal - BPI Portugal {{flagicon|ENG}} Daniel Brooks (1) 18 Dual-ranking event with European Tour
Shortened to 36 holes 18 May Turkish Airlines Challenge Turkey {{flagicon|WAL}} Oliver Farr (1) 12  
42049612 1 2 Brad Keselowski Team Penske Ford 25.968 25.828 2 22 Joey Logano Team Penske Ford 25.864 25.850 3 1 Jamie McMurray Chip Ganassi Racing Chevrolet 26.091 25.905 4 48 Jimmie Johnson Hendrick Motorsports Chevrolet 26.057 26.021 6 16 Greg Biffle Roush Fenway Racing Ford 26.054 26.023 
42056270 1 22 Joey Logano Team Penske Ford 28.316 27.993 27.939 2 2 Brad Keselowski Team Penske Ford 28.247 28.114 27.965 3 15 Clint Bowyer Michael Waltrip Racing Toyota 28.197 28.100 28.021 5 48 Jimmie Johnson Hendrick Motorsports Chevrolet 28.298 28.159 28.038 7 1 Jamie McMurray Chip Ganassi Racing Chevrolet 28.223 28.102 28.067 
420604 1983–84 Winkler Flyers MJHL  14 — — — — 818 68 0 4.99 —  — — — — — — 1984–85 Winkler Flyers MJHL  34 — — — — 1973 145 1 4.41 —  7 3 4 528 41 0 1985–86 Winkler Flyers MJHL  33 — — — — 1943 124 1 3.83 —  — — — — — — 1988–89 Chicago Blackhawks NHL  23 4 12 3 — 1148 74 0 3.87 .878  — — — — — — 1989–90 Chicago Blackhawks NHL  — — — — — — — — — —  9 4 2 409 17 0 
42070995 Kairat 2008 Kazakhstan Premier League 5 0 0 0 – – – – Astana 2009 Kazakhstan Premier League 9 1 3 0 – – – – Kairat 2010 Kazakhstan Premier League 11 0 1 0 – – – – Vostok 2011 Kazakhstan Premier League 23 0 0 0 – – – – Astana 2012 Kazakhstan Premier League 13 0 6 0 - - - - 
42099391 Europeans Evgenia Medvedeva Elena Radionova Anna Pogorilaya Details Four Continents Satoko Miyahara Mirai Nagasu Rika Hongo Details Junior Worlds Marin Honda Maria Sotskova Wakaba Higuchi Details Worlds Evgenia Medvedeva Ashley Wagner Anna Pogorilaya Details Skate America Evgenia Medvedeva Gracie Gold Satoko Miyahara Details 
42114663 1 11 Denny Hamlin Joe Gibbs Racing Toyota 14.850 14.761 2 2 Brad Keselowski Team Penske Ford 14.908 14.764 3 20 Matt Kenseth Joe Gibbs Racing Toyota 14.952 14.866 4 22 Joey Logano Team Penske Ford 14.832 14.894 5 9 Marcos Ambrose Richard Petty Motorsports Ford 14.936 14.906 
42146735 European Games All-Around Aliya Mustafina Giulia Steingruber Lieke Wevers European Games Vault Giulia Steingruber Seda Tutkhalyan Lisa Top European Games Uneven Bars Aliya Mustafina Sophie Scheder Andreea Iridon European Games Balance Beam Lieke Wevers Andreea Iridon Giulia Steingruber European Games Floor Exercise Giulia Steingruber Aliya Mustafina Lieke Wevers 
42179205 1 20 Matt Kenseth Joe Gibbs Racing Toyota 38.418 38.423 38.438 2 2 Brad Keselowski Team Penske Ford 38.913 38.725 38.481 3 48 Jimmie Johnson Hendrick Motorsports Chevrolet 38.306 38.618 38.516 4 4 Kevin Harvick Stewart-Haas Racing Chevrolet 38.303 38.701 38.523 5 15 Clint Bowyer Michael Waltrip Racing Toyota 38.568 38.625 38.614 
42204356 2011 The Fighter Palm Springs International Film Festival {{won}} 2013 Silver Linings Playbook Los Angeles Film Critics Association Award for Best Screenplay {{won}} 2013 Silver Linings Playbook National Board of Review Award for Best Adapted Screenplay {{won}} 2013 Silver Linings Playbook Washington D.C. Area Film Critics Association Award for Best Adapted Screenplay {{won}} 2013 Silver Linings Playbook Broadcast Film Critics Association Award for Best Adapted Screenplay {{nom}} 
42207065 Fusa Fusa Holdhus Church Holdhus 1726 File:Holdhus kirke, Fusa kommune, Hordlanad.jpg Fusa Fusa Strandvik Church Strandvik 1857  Kvam Strandebarm Strandebarm Church Bru 1876  Kvam Vikøy Norheimsund Church Norheimsund 1992 File:Norheimsund Kyrkje.png Odda Skare Skare Church Skare 1926 File:Skare kirke.jpg 
42228707 2008–09 Canmore Eagles AJHL  3 1 2 0 76 179 9 3.02 .894  — — — — — — 2009–10 Canmore Eagles AJHL  52 23 19 8 3065 167 2 3.27 .896  9 5 4 559 28 0 2010–11 University of Denver WCHA  33 19 9 5 1998 76 1 2.28 .921  — — — — — — 2011–12 University of Denver WCHA  12 8 4 0 735 29 1 2.36 .932  — — — — — — 2012–13 University of Denver WCHA  13 5 7 0 751 37 0 2.95 .907  — — — — — — 
42230787 1 18 Kyle Busch Joe Gibbs Racing Toyota 19.008 18.988 2 11 Denny Hamlin Joe Gibbs Racing Toyota 18.960 19.022 3 22 Joey Logano Team Penske Ford 18.898 19.045 4 48 Jimmie Johnson Hendrick Motorsports Chevrolet 19.053 19.093 5 24 Jeff Gordon Hendrick Motorsports Chevrolet 19.048 19.118 
42247058 {{STN|Ichiburi}} 市振 File:Ainokaze Toyama Railway logo.png Ainokaze Toyama Railway Line Itoigawa Niigata Prefecture {{STN|Oyashirazu}} 親不知 &nbsp; Itoigawa Niigata Prefecture {{STN|Ōmi|Niigata}} 青海 &nbsp; Itoigawa Niigata Prefecture {{STN|Itoigawa}} 糸魚川 {{plainlist| * [[File:Shinkansen-W.png|18px]] [[Hokuriku Shinkansen]] * {{Colorbull|SteelBlue}} [[Ōito Line]]}} Itoigawa Niigata Prefecture {{STN|Kajiyashiki}} 梶屋敷 &nbsp; Itoigawa Niigata Prefecture 
4228627 Football Brisbane 2008 Premier League Rochedale Rovers Brisbane City Football Brisbane 2009 Premier League Peninsula Power Brisbane Wolves Football Brisbane 2010 Premier League Rochedale Rovers Brisbane Wolves Football Brisbane 2011 Premier League Wolves FC Rochedale Rovers Football Brisbane 2012 Premier League Redlands United Wolves FC 
42294370 Gary Mercer 1 David Roockley Keith Mumby 6 John Joyner Paul Harkin 7 Roy Southernwood Jeff Grayshon 8 Alan Shillito Kelvin Skerrett 11 Martin Ketteridge 
42363732 1984–85 Leksands IF SEL &nbsp; 5 0 0 0 0 &nbsp; — — — 1987–88 Moncton Hawks AHL &nbsp; 67 11 17 28 38 &nbsp; — — — 1988–89 AIK SEL &nbsp; 36 10 8 18 20 &nbsp; 2 1 0 1989–90 AIK SEL &nbsp; 38 8 17 25 22 &nbsp; 3 0 0 1996–97 Kassel Huskies DEL &nbsp; 50 18 29 47 10 &nbsp; 10 5 10 
42365700 1 14 Tony Stewart Stewart-Haas Racing Chevrolet 27.622 27.581 27.628 2 2 Brad Keselowski Team Penske Ford 27.574 27.638 27.633 3 4 Kevin Harvick Stewart-Haas Racing Chevrolet 27.234 27.593 27.650 4 16 Greg Biffle Roush Fenway Racing Ford 27.576 27.518 27.735 5 99 Carl Edwards Roush Fenway Racing Ford 27.423 27.705 27.744 
4243107 1262 2 12 November 2006 &nbsp; Levi SL 362&nbsp; Benjamin Raich Markus Larsson Giorgio Rocca 1270 10 15 December 2006 &nbsp; Val Gardena SG 131&nbsp; Bode Miller Christoph Gruber John Kucera 1271 11 16 December 2006 &nbsp; Val Gardena DH 370&nbsp; Steven Nyman Didier Cuche Fritz Strobl 1274 14 20 December 2006 &nbsp; Hinterstoder SG 132&nbsp; Bode Miller Peter Fill Hermann Maier 1276 16 {{#tag:ref|Downhill from [[Val d'Isère]] was rescheduled to [[Bormio]] on 28 December 2006|group="nb"}}28 December 2006 &nbsp; Bormio DH 371&nbsp; Michael Walchhofer Didier Cuche Mario Scheiber 
42456202 1 4 Kevin Harvick Stewart-Haas Racing Chevrolet 26.951 26.883 26.802 2 22 Joey Logano Team Penske Ford 26.902 26.745 26.865 3 43 Aric Almirola Richard Petty Motorsports Ford 26.789 26.705 26.880 4 9 Marcos Ambrose Richard Petty Motorsports Ford 26.849 26.891 26.948 5 2 Brad Keselowski Team Penske Ford 26.947 26.927 27.011 
42515154 2 2 Brad Keselowski Team Penske Ford 3 15 Clint Bowyer Michael Waltrip Racing Toyota 4 5 Kasey Kahne Hendrick Motorsports Chevrolet 5 4 Kevin Harvick Stewart-Haas Racing Chevrolet 6 55 Brian Vickers Michael Waltrip Racing Toyota 
42529294 2010
{{small|[[ARIA Music Awards of 2010|(24th)]]}} Bliss n Eso Running on Air 2010
{{small|[[ARIA Music Awards of 2010|(24th)]]}} Urthboy Spitshine 2012
{{small|[[ARIA Music Awards of 2012|(26th)]]}} Hilltop Hoods Drinking from the Sun 2013
{{small|[[ARIA Music Awards of 2013|(27th)]]}} Bliss n Eso Circus in the Sky 2014
{{small|[[ARIA Music Awards of 2014|(28th)]]}} Hilltop Hoods Walking Under Stars 
42539024 1967–68 Inter-Cities Fairs Cup 1R {{flagicon|POR}} Sporting CP 0–0, 1–2 1.0 1969–70 Inter-Cities Fairs Cup 1R {{flagicon|ESP}} Sabadell 0–2, 5–1 4.0 1975–76 UEFA Cup 1R {{flagicon|FRA}} Lyon 3–4, 3–0 17.0 1977–78 European Cup 1R {{flagicon|FIN}} KuPS 4–0, 5–2 13.0 1980–81 European Cup 1R {{flagicon|SUI}} Basel 0–1, 1–4 0.0 
4254785 1936 Maurice Duplessis 90 {{Composition bar|76|90|hex={{Canadian party colour|QC|UN}}}} {{increase}} 441 56.9% {{yes2|Majority Government}} 1939 Maurice Duplessis 85 {{Composition bar|15|86|hex={{Canadian party colour|QC|UN}}}} {{decrease}} 61 39.1% {{no2|Official Opposition}} 1944 Maurice Duplessis 91 {{Composition bar|48|91|hex={{Canadian party colour|QC|UN}}}} {{increase}} 33 38.0% {{yes2|Majority Government}} 1948 Maurice Duplessis 91 {{Composition bar|82|92|hex={{Canadian party colour|QC|UN}}}} {{increase}} 34 51.2% {{yes2|Majority Government}} 1952 Maurice Duplessis 91 {{Composition bar|68|92|hex={{Canadian party colour|QC|UN}}}} {{decrease}} 14 50.5% {{yes2|Majority Government}} 
42563845 2 Johan Cruyff 4 FC Barcelona 1990–91, 1991–92, 1992–93, 1993–94 5 Luis Molowny 3 Real Madrid 1977–78, 1978–79, 1985–86 5 Leo Beenhakker 3 Real Madrid 1986–87, 1987–88, 1988–89 5 Pep Guardiola 3 FC Barcelona 2008–09, 2009–10, 2010–11 9 Fred Pentland 2 Athletic Bilbao 1929–30, 1930–31 
42571521 3 LMP2 48 Murphy Prototypes {{flagicon|IND}} Karun Chandhok
{{flagicon|VEN}} Rodolfo González
{{flagicon|GBR}} Alex Kapadia Oreca 03 {{Dunlop}} 1:48.912 4 LMP2 41 Greaves Motorsport {{flagicon|GBR}} Tom Kimber-Smith
{{flagicon|USA}} Chris Dyson
{{flagicon|USA}} Matt McMurry Zytek Z11SN {{Dunlop}} 1:48.950 8 LMP2 28 Greaves Motorsport {{flagicon|GBR}} James Littlejohn
{{flagicon|GBR}} Anthony Wells
{{flagicon|GBR}} James Walker Zytek Z11SN {{Dunlop}} 1:50.236 14 LMGTE 55 AF Corse {{flagicon|GBR}} Duncan Cameron
{{flagicon|IRL}} Matt Griffin
{{flagicon|ITA}} Michele Rugolo Ferrari 458 Italia GT2 {{Michelin}} 1:58.835 17 LMGTE 54 AF Corse {{flagicon|ITA}} Piergiuseppe Perazzini
{{flagicon|ITA}} Marco Cioci
{{flagicon|GBR}} Michael Lyons Ferrari 458 Italia GT2 {{Michelin}} 1:59.687 
425721 1989–90 Hawkesbury Hawks CJHL  48 8 10 18 30  — — — 1990–91 Hawkesbury Hawks CJHL  54 27 45 72 49  — — — 1990–91 Sudbury Wolves OHL  2 0 2 2 0  — — — 1991–92 Sudbury Wolves OHL  66 31 54 85 22  9 2 2 1992–93 Sudbury Wolves OHL  66 44 62 106 56  14 9 10 
42576534 1 33 Brian Scott Richard Childress Racing Chevrolet 48.318 48.631 48.293 2 27 Paul Menard Richard Childress Racing Chevrolet 48.297 48.834 48.391 3 47 A. J. Allmendinger JTG Daugherty Racing Chevrolet 48.335 48.670 48.436 4 13 Casey Mears Germain Racing Chevrolet 48.323 48.695 48.518 7 10 Danica Patrick Stewart-Haas Racing Chevrolet 48.106 48.856 49.109 
42577899 2 Ayodele Adeleye {{Flagicon|Nigeria}} CB 25 December 1988 (25) {{Flagicon|Russia}} Anzhi Winter Transfer Window 32 Epaminondas Pantelakis {{Flagicon|Greece}} CB 10 February 1995 (19) Youth System  89 Georgios Sarris {{Flagicon|Greece}} CB 8 September 1989 (24) Youth System  13 Aziz Deen-Conteh {{flagicon|Sierra Leone}} {{Flagicon|England}} LB 14 January 1993 (21) {{Flagicon|England}} Chelsea  24 Minas Pitsos {{Flagicon|Greece}} LB 8 October 1980 (33) {{Flagicon|Greece}} OFI  
4260032 1995–96 North Iowa Huskies USHL  38 1 8 9 28  — — — 1996–97 North Iowa Huskies USHL  51 18 22 40 86  12 0 6 1997–98 North Iowa Huskies USHL  52 29 45 74 118  11 5 5 1998–99 St. Cloud State U. WCHA  34 6 8 14 46  — — — 1999–00 St. Cloud State U. WCHA  40 19 24 43 26  — — — 
42602122 1 4 Kevin Harvick Stewart-Haas Racing Chevrolet 27.983 27.741 27.799 2 22 Joey Logano Team Penske Ford 27.996 27.876 27.848 3 2 Brad Keselowski Team Penske Ford 28.076 27.929 27.906 4 99 Carl Edwards Roush Fenway Racing Ford 27.962 27.897 27.952 6 41 Kurt Busch Stewart-Haas Racing Chevrolet 27.891 27.895 27.973 
42638597 1 Bobby Duggan Clare 1-10 13 Cork 1 Peter O'Brien Cork 0-13 13 Waterford 1 Peter O'Brien Cork 0-13 13 Galway 4 David Drake Cork 3-0 9 Tipperary 4 Tony O'Brien Tipperary 1-6 9 Limerick 
42646 {{color|white|2}} File:Jeremiah McLain Rusk - Brady-Handy.jpg Jeremiah McLain Rusk Wisconsin March 6, 1889 March 6, 1893  Benjamin Harrison {{color|white|3}} File:J. Sterling Morton, head-and-shoulders portrait, facing left.jpg Julius Sterling Morton Nebraska March 7, 1893 March 5, 1897  Grover Cleveland {{color|white|5}} File:DFHouston.jpg David F. Houston Missouri March 6, 1913 February 2, 1920  Woodrow Wilson {{color|white|6}} File:E.T. Meredith, ggbain.16011u.jpg Edwin T. Meredith Iowa February 2, 1920 March 4, 1921  Woodrow Wilson {{color|white|7}} File:Henry Cantwell Wallace.jpg Henry Cantwell Wallace Iowa March 5, 1921 October 25, 1924  Warren G. Harding 
42648295 US Colomiers 2010–11 CFA 32 2 1 0 0 0 0 0 33 2 US Colomiers 2011–12 CFA 30 6 0 0 0 0 0 0 30 6 Laval 2012–13 Ligue 2 21 1 0 0 1 0 0 0 22 1 Laval 2013–14 Ligue 2 35 2 1 0 1 0 0 0 37 2 Caen II 2014–15 CFA 2 1 0 0 0 0 0 0 0 1 0 
4266427 Beveren D1 2001–02 26 10 3 1 0 0 29 11 Livorno D2 2002–03 21 1 0 0 0 0 21 1 Livorno D2 2003–04 22 4 0 0 0 0 22 4 Livorno D2 2004–05 17 2 2 1 0 0 19 3 Livorno D1 2006–07 13 3 2 0 5 1 20 4 
42692274 29 {{flagicon|CAN}} {{sortname|Bryan|Bickell}} LW L {{hs|29–107}}29 2004 Bowmanville, Ontario second {{small|('''[[2013 Stanley Cup Finals|2013]]''')}} 50 {{flagicon|CAN}} {{sortname|Corey|Crawford}} G L {{hs|30–175}}30 2003 Montreal, Quebec second {{small|('''[[2013 Stanley Cup Finals|2013]]''')}} 88 {{flagicon|USA}} {{sortname|Patrick|Kane}} RW L {{hs|26–217}}26 2007 Buffalo, New York third {{small|('''[[2010 Stanley Cup Finals|2010]]''', '''[[2013 Stanley Cup Finals|2013]]''')}} 2 {{flagicon|CAN}} {{sortname|Duncan|Keith}}&nbsp;– A D L {{hs|31–343}}31 2002 Winnipeg, Manitoba third {{small|('''[[2010 Stanley Cup Finals|2010]]''', '''[[2013 Stanley Cup Finals|2013]]''')}} 16 {{flagicon|SWE}} {{sortname|Marcus|Kruger|Marcus Krüger}} C L {{hs|25-028}}25 2009 Stockholm, Sweden second {{small|('''[[2013 Stanley Cup Finals|2013]]''')}} 
42705003 File:Hino Ranger Fire Truck donated by Japan.jpg Hino Ranger {{Flag|Japan}} /{{Flag|Philippines}} (Modified) Fire Engine  File:Isuzu 10w Fire Engine.jpg Isuzu New Power {{Flag|Japan}} /{{Flag|Philippines}} (Modified) Fire Engine  File:09871jfSchools Barangay E. Rodriquez, Sr. Silangan Streets Cubao Quezon Cityfvf 01.jpg Isuzu 810 {{Flag|Japan}} /{{Flag|Philippines}} (Modified) Fire Engine  File:Isuzu Giga Fire Tanker Engine of BFP Claver, Surigao del Norte.jpg Isuzu Giga {{Flag|Japan}} /{{Flag|Philippines}} (Modified) Fire Engine  File:FvfSampaloc9865 01.JPG Isuzu NKR/NPR {{Flag|Japan}} /{{Flag|Philippines}} (Modified) Fire Engine  
42711268 2008–09 GCK Lions NLB  33 2 8 10 12  — — — 2009–10 GCK Lions NLB  33 6 2 8 24  — — — 2010–11 GCK Lions NLB  12 1 7 8 6  — — — 2010–11 ZSC Lions NLA  31 2 3 5 2  5 0 1 2011–12 ZSC Lions NLA  45 5 6 11 10  15 4 1 
42728902 1 99 Carl Edwards Roush Fenway Racing Ford 1:50.268 2 18 Kyle Busch Joe Gibbs Racing Toyota 1:51.118 3 4 Kevin Harvick Stewart-Haas Racing Chevrolet 1:51.294 4 24 Jeff Gordon Hendrick Motorsports Chevrolet 1:51.385 5 48 Jimmie Johnson Hendrick Motorsports Chevrolet 1:51.393 
427476 1951 Yumjaagiin Tsedenbal Unknown Unknown {{Composition bar|176|295|hex={{Mongolian People's Revolutionary Party/meta/color}}}} {{steady}} {{steady}} 1st {{Color|green|Government}} 1954 Yumjaagiin Tsedenbal Unknown Unknown {{Composition bar|192|295|hex={{Mongolian People's Revolutionary Party/meta/color}}}} {{increase}} 16 {{steady}} 1st {{Color|green|Government}} 1957 Yumjaagiin Tsedenbal Unknown Unknown {{Composition bar|178|233|hex={{Mongolian People's Revolutionary Party/meta/color}}}} {{decrease}} 14 {{steady}} 1st {{Color|green|Government}} 1960 Yumjaagiin Tsedenbal Unknown Unknown {{Composition bar|207|267|hex={{Mongolian People's Revolutionary Party/meta/color}}}} {{increase}} 29 {{steady}} 1st {{Color|green|Government}} 1963 Yumjaagiin Tsedenbal Unknown Unknown {{Composition bar|216|270|hex={{Mongolian People's Revolutionary Party/meta/color}}}} {{increase}} 9 {{steady}} 1st {{Color|green|Government}} 
427503 1947 {{Composition bar|42|95|hex={{United National Party/meta/color}}}} {{steady}} 0 D. S. Senanayake {{yes2|Government}} 1952 {{Composition bar|54|95|hex={{United National Party/meta/color}}}} {{increase}} 13 Dudley Senanayake {{yes2|Government}} 1956 {{Composition bar|8|95|hex={{United National Party/meta/color}}}} {{decrease}} 46 S. W. R. D. Bandaranaike {{no2|Opposition}} 1960 (March) {{Composition bar|50|151|hex={{United National Party/meta/color}}}} {{increase}} 42 Dudley Senanayake {{yes2|Government}} 1960 (July) {{Composition bar|30|151|hex={{United National Party/meta/color}}}} {{decrease}} 20 Sirimavo Bandaranaike {{no2|Opposition}} 
42750720 1 48 Jimmie Johnson Hendrick Motorsports Chevrolet 28.171 27.899 27.705 2 2 Brad Keselowski Team Penske Ford 28.294 27.969 27.754 3 5 Kasey Kahne Hendrick Motorsports Chevrolet 28.165 27.958 27.890 4 10 Danica Patrick Stewart-Haas Racing Chevrolet 28.118 27.750 27.931 5 15 Clint Bowyer Michael Waltrip Racing Toyota 28.260 27.973 27.944 
42792486 1987 {{sortname|Aad|de Mos}} {{flagcountry|Netherlands}} KV Mechelen  1994 {{sortname|Johan|Boskamp}} {{flagcountry|Netherlands}} Anderlecht  1997 {{sortname|Herman|Helleputte}} {{flagcountry|Belgium}} Germinal Ekeren  1998 {{sortname|Aimé|Anthuenis}} {{flagcountry|Belgium}} Genk  2000 {{sortname|Johan|Boskamp}} {{flagcountry|Netherlands}} Genk  
4280041 Berkeley 1941 Margaret Osborne duPont Patricia Canning Todd 10–8, 2–6, 6–3 Berkeley 1950* Patricia Canning Todd Magda Rurac 6–2, 6–1 Berkeley 1953 Maureen Connolly Shirley Fry Irvin 6–0, 9–7 Berkeley 1955 Angela Mortimer Shirley Bloomer 4–6, 6–3, 6–4 Berkeley 1957 Althea Gibson Louise Brough 6–4, 6–3 
42805634 1 2 Brad Keselowski Team Penske Ford 21.991 21.892 2 18 Kyle Busch Joe Gibbs Racing Toyota 21.898 21.980 3 22 Joey Logano Team Penske Ford 21.973 21.993 4 48 Jimmie Johnson Hendrick Motorsports Chevrolet 21.958 22.037 6 24 Jeff Gordon Hendrick Motorsports Chevrolet 21.985 22.077 
42879311 October 16, 2014 Milan Lucic Boston Bruins Making an obscene gesture during the Bruins' game against the Montreal Canadiens. October 17, 2014 $5,000.00 November 8, 2014 Antoine Roussel Dallas Stars Punching an unsuspecting Justin Braun. November 10, 2014 $5,376.34 November 28, 2014 Alexei Emelin Montreal Canadiens Illegal check to the head of Brian Gionta. November 29, 2014 $11,021.51 November 29, 2014 Marco Scandella Minnesota Wild Illegal check to the head of T. J. Oshie. December 1, 2014 $2,755.38 December 6, 2014 Anders Lee New York Islanders Elbowing Carl Gunnarsson. December 9, 2014 $2,286.29 
42883361 1 11 Denny Hamlin Joe Gibbs Racing Toyota 50.360 50.010 49.610 2 41 Kurt Busch Stewart-Haas Racing Chevrolet 50.104 49.700 49.612 3 2 Brad Keselowski Team Penske Ford 50.430 49.798 49.637 4 4 Kevin Harvick Stewart-Haas Racing Chevrolet 50.193 50.001 49.770 5 24 Jeff Gordon Hendrick Motorsports Chevrolet 50.123 50.085 49.858 
42884066 Beitar Tel Aviv Ramla Ramla Ramla Municipal Stadium {{0}}6,500 Bnei Yehuda Tel Aviv Bloomfield Stadium 14,960 Hakoah Ramat Gan Ramat Gan Winter Stadium {{0}}8,000 Hapoel Afula Afula Afula Illit Stadium {{0}}5,000 Hapoel Bnei Lod Lod Lod Municipal Stadium {{0}}4,000 
428979 2001 ATL 8 2 113 50 44.2 785 6.9 2 3 62.7 31 289 9.3 1 21 113 6 5 2002 ATL 15 15 421 231 54.9 2,936 7.0 16 8 81.6 113 777 6.9 8 33 206 9 6 2003 ATL 5 4 100 50 50.0 585 5.9 4 3 69.0 40 255 6.4 1 9 64 4 1 2004 ATL 15 15 321 181 56.4 2,313 7.2 14 12 78.1 120 902 7.5 3 46 266 16 7 2005 ATL 15 15 387 214 55.3 2,412 6.2 15 13 73.1 102 597 5.9 6 33 201 11 5 
4289790 Scottsdale 1986 John McEnroe Kevin Curren 6–3, 3–6, 6–2 Scottsdale 1987 Brad Gilbert Eliot Teltscher 6–2, 6–2 Scottsdale 1989 Ivan Lendl Stefan Edberg 6–2, 6–3 Scottsdale 1992 Stefano Pescosolido Brad Gilbert 6–0, 1–6, 6–4 Scottsdale 1993 Andre Agassi Marcos Ondruska 6–2, 3–6, 6–3 
42934045 6 Jamie McCombe CB {{flagicon|ENG}} Pontefract {{Birth date and age|1983|1|1|df=y}} 38 1 – – Huddersfield Town 12 August 2012 Free  12 Luke McCullough CB {{flagicon|NIR}} Portadown {{Birth date and age|1994|2|15|df=y}} 14 0 2 0 Manchester United 25 July 2013 Free 30 June 2017 15 Liam Wakefield CB {{flagicon|ENG}} Doncaster {{Birth date and age|1994|4|9|df=y}} 7 1 – – Academy 27 June 2012 Trainee 30 June 2015 16 Andy Butler CB {{flagicon|ENG}} Doncaster {{Birth date and age|1983|11|4|df=y}} 7 1 – – Sheffield United 6 January 2015 Undisclosed 30 June 2017 22 Reece Wabara RB {{flagicon|ENG}} Birmingham {{Birth date and age|1991|12|28|df=y}} 15 0 – – Manchester City 1 August 2014 Free 30 June 2015 
42949075 2004 Outstanding Talk Show The Ellen DeGeneres Show {{won}} 2004 Outstanding Talk Show Host The Ellen DeGeneres Show {{nom}} 2004 Outstanding Special Class Writing The Ellen DeGeneres Show {{nom}} 2005 Outstanding Talk Show The Ellen DeGeneres Show {{won}} 2005 Outstanding Talk Show Host The Ellen DeGeneres Show {{won}} 
42954334 1 4 Kevin Harvick Stewart-Haas Racing Chevrolet 47.647 47.801 47.753 2 24 Jeff Gordon Hendrick Motorsports Chevrolet 48.051 48.131 47.931 3 2 Brad Keselowski Team Penske Ford 48.067 48.238 48.156 5 55 Brian Vickers Michael Waltrip Racing Toyota 48.478 48.364 48.269 6 14 Tony Stewart Stewart-Haas Racing Chevrolet 48.386 48.247 48.337 
42960471 Alpha University of Iowa Iowa City, Iowa Beta University of Michigan Ann Arbor, Michigan Gamma Iowa State University Ames, Iowa Delta University of Illinois Urbana, Illinois Epsilon Central Michigan University Mount Pleasant, Michigan 
42978828 1 4 Kevin Harvick Stewart-Haas Racing Chevrolet 35.295 35.470 35.198 2 24 Jeff Gordon Hendrick Motorsports Chevrolet 35.541 35.707 35.333 4 43 Aric Almirola Richard Petty Motorsports Ford 35.702 35.830 35.433 5 27 Paul Menard Richard Childress Racing Chevrolet 35.640 35.686 35.461 6 2 Brad Keselowski Team Penske Ford 35.532 35.553 35.484 
429833 1998 IND 16 16 326 575 56.7 3,739 6.5 26 28 71.2 15 62 4.1 0 3–13 1999 IND 16 16 331 533 62.1 4,135 7.8 26 15 90.7 35 73 2.1 2 13–3 2000 IND 16 16 357 571 62.5 4,413 7.7 33 15 94.7 37 116 3.1 1 10–6 2001 IND 16 16 343 547 62.7 4,131 7.6 26 23 84.1 35 157 4.5 4 6–10 2002 IND 16 16 392 591 66.3 4,200 7.1 27 19 88.8 38 148 3.9 2 10–6 
42991263 Ron Massey Cup Sydney 2003 10 {{leagueicon|Hull}} Wentworthville Magpies 38-4 {{leagueicon|Ireland}} St Mary's Saints Sydney Shield Sydney 2012 12 {{leagueicon|St George|24}} East Campbelltown Eagles 32-22 {{leagueicon|Huddersfield}} Guildford Owls Sydney Combined - Northern Open Age Northern Beaches ? 9 {{leagueicon|Western Suburbs}} Narrabeen Sharks 26-6 {{leagueicon|Burleigh|24}} Berowra Wallabies Sydney Combined - South Eastern Open Age Gold Sutherland 1964 5 {{leagueicon|Adelaide}} De La Salle Caringbah 20-8 {{leagueicon|Newcastle|24}} Engadine Dragons South Sydney District A Grade Inner-City 1908 7 {{leagueicon|Western Suburbs}} Redfern All Blacks 28-12 {{leagueicon|New South Wales}} Mascot Jets 
43018246 1 1 Jamie McMurray Chip Ganassi Racing Chevrolet 74.657 74.354 2 47 A. J. Allmendinger JTG Daugherty Racing Chevrolet 74.539 74.557 4 99 Carl Edwards Roush Fenway Racing Ford 74.917 74.736 5 41 Kurt Busch Stewart-Haas Racing Chevrolet 74.554 74.856 6 4 Kevin Harvick Stewart-Haas Racing Chevrolet 74.813 74.894 
43058046 Europeans Evgenia Medvedeva Anna Pogorilaya Carolina Kostner Details Four Continents Mai Mihara Gabrielle Daleman Mirai Nagasu Details Junior Worlds Alina Zagitova Marin Honda Kaori Sakamoto Details Worlds Evgenia Medvedeva Kaetlyn Osmond Gabrielle Daleman Details Skate America Ashley Wagner Mariah Bell Mai Mihara Details 
43108957 1 2 Brad Keselowski Team Penske Ford 29.092 28.790 28.603 2 22 Joey Logano Team Penske Ford 29.049 28.783 28.850 3 24 Jeff Gordon Hendrick Motorsports Chevrolet 29.077 28.967 28.903 4 11 Denny Hamlin Joe Gibbs Racing Toyota 29.248 29.030 28.974 5 4 Kevin Harvick Stewart-Haas Racing Chevrolet 29.322 29.028 29.016 
43128619 1 38 David Gilliland Front Row Motorsports Ford 45.153 2 36 Reed Sorenson Tommy Baldwin Racing Chevrolet 45.176 3 40 Landon Cassill Hillman-Circle Sport LLC Chevrolet 45.182 5 48 Jimmie Johnson Hendrick Motorsports Chevrolet 45.274 6 20 Matt Kenseth Joe Gibbs Racing Toyota 45.277 
4313121 {{sortname|Jack|Edmonds}} Professor Mathematics Mathematician  {{sortname|Hiroshi|Haruki}} Professor Mathematics Mathematician  {{sortname|Murray S.|Klamkin}} Professor Mathematics Mathematician  {{sortname|Ziva|Kunda}} Professor Arts Psychologist  {{sortname|Melvin J.|Lerner}} Professor Psychology Just-world phenomenon - 
43179949 Peter Lines 2–5 Craig Steadman Graeme Dott 1–5 Michael Georgiou Tom Ford 2–5 Andrew Pagett Ali Carter 4–5 Sam Baird Gerard Greene 5–2 Ratchayothin Yotharuck 
43179991 Thepchaiya Un-Nooh 10–8 Barry Pinches Jamie Burnett 10–8 Alex Borg Cao Yupeng 10–8 Ross Muir Anthony McGill 10–3 Hossein Vafaei Martin Gould 6–10 Adam Duffy 
43194706 1996 Group stage {{fb|TUR}} 1–0 W Nottingham Vlaović 1996 Group stage {{fb|DEN}} 3–0 W Sheffield Šuker (2), Boban 1996 Group stage {{fb|POR}} 0–3 L Nottingham {{sort dash}} 1996 Quarter-final {{fb|GER}} 1–2 L Manchester Šuker 2004 Group stage {{fb|SUI}} 0–0 D Leiria {{sort dash}} 
43195592 1 18 Kyle Busch Joe Gibbs Racing Toyota 27.820 27.574 2 48 Jimmie Johnson Hendrick Motorsports Chevrolet 27.828 27.642 3 11 Denny Hamlin Joe Gibbs Racing Toyota 27.762 27.785 4 14 Tony Stewart Stewart-Haas Racing Chevrolet 27.893 27.786 5 1 Jamie McMurray Chip Ganassi Racing Chevrolet 27.900 27.798 
43201383 University of Manchester 160 190 Selwyn College, Cambridge 350 14 July 2014 Oxford Brookes University 130 {{fontcolor|white|120}} Jesus College, Oxford 250 21 July 2014 University of Bristol 190 {{fontcolor|white|75}} Courtauld Institute of Art 265 28 July 2014 London School of Hygiene & Tropical Medicine 150 140 London School of Economics 290 25 August 2014 University of Liverpool 155 {{fontcolor|white|130}} University of Sheffield 285 1 September 2014 
4320622 MPC Computers Bowl 31st Miami Nevada 21 – 20 Champs Sports Bowl 29th Purdue Maryland 7 – 24 Insight Bowl 29th Texas Tech Minnesota 44 – 41 Liberty Bowl 29th Houston South Carolina 36 – 44 Music City Bowl 29th Clemson Kentucky 20 – 28 
43258393 2010–11 Lewiston MAINEiacs QMJHL  3 2 0 0 144 5 0 2.10 .914  — — — — — — 2011–12 P.E.I. Rocket QMJHL  29 7 9 1 1183 88 0 4.46 .868  — — — — — — 2012–13 P.E.I. Rocket QMJHL  46 28 11 3 2521 118 5 2.81 .911  6 2 4 374 21 0 2013–14 Charlottetown Islanders QMJHL  26 8 11 5 1424 78 1 3.29 .911  — — — — — — 2014–15 Toronto Marlies AHL  31 15 10 5 1809 81 4 2.69 .913  1 0 1 57 3 0 
4329167 Hekou Dongying 247,600 Kenli Dongying 242,300 Lijin Dongying 281,200 Guangrao Dongying 507,500 Lanshan Linyi 1,274,200 
43328430 46 85 Akunnaaq — Qeqertalik 47 82 Iginniarfik — Qeqertalik 48 78 Arsuk — Sermersooq 49 77 Itilleq — Qeqqata 49 77 Napasoq — Qeqqata 
43334692 Imokilly 2008 3 0-03 Imokilly 2009 2 0-02 Imokilly 2010 3 0-00 Imokilly 2011 — — Imokilly 2012 — — 
43338 {{color|white|3}} {{CSS image crop|Image=Samuel Dexter.jpg|bSize=250|cWidth=200|cHeight=200|oTop=43|oLeft=25|location=center}} Samuel Dexter Massachusetts January 1, 1801 May 13, 1801  John Adams {{color|white|3}} {{CSS image crop|Image=Samuel Dexter.jpg|bSize=250|cWidth=200|cHeight=200|oTop=43|oLeft=25|location=center}} Samuel Dexter Massachusetts January 1, 1801 May 13, 1801  Thomas Jefferson {{color|white|4}} {{CSS image crop|Image=AlbertGallatin.jpeg|bSize=225|cWidth=200|cHeight=200|oTop=23|oLeft=10|location=center}} Albert Gallatin Pennsylvania May 14, 1801 February 8, 1814  Thomas Jefferson {{color|white|4}} {{CSS image crop|Image=AlbertGallatin.jpeg|bSize=225|cWidth=200|cHeight=200|oTop=23|oLeft=10|location=center}} Albert Gallatin Pennsylvania May 14, 1801 February 8, 1814  James Madison {{color|white|5}} {{CSS image crop|Image=CAMPBELL, George W-Treasury (BEP engraved portrait).jpg|bSize=225|cWidth=200|cHeight=200|oTop=34|oLeft=15|location=center}} George W. Campbell Tennessee February 9, 1814 October 5, 1814  James Madison 
43353741 2 22 Joey Logano Team Penske Ford 49.505 49.364 49.071 3 2 Brad Keselowski Team Penske Ford 49.694 49.851 49.261 4 41 Kurt Busch Stewart-Haas Racing Chevrolet 49.538 49.459 49.272 5 24 Jeff Gordon Hendrick Motorsports Chevrolet 49.695 49.568 49.285 6 4 Kevin Harvick Stewart-Haas Racing Chevrolet 49.638 49.571 49.426 
43373657 2013 Grand Prix TMS-Army Cignal PLDT Cagayan Valley Petron RC Cola 2014 All-Filipino Generika-Army RC Cola-Air Force PLDT AirAsia Petron Cagayan Valley 2015 Grand Prix Foton Petron Philips Gold Cignal MERALCO RC Cola-Air Force 2016 All-Filipino F2 Logistics Foton RC Cola-Army Petron Generika Cignal 2016 Grand Prix Foton Petron F2 Logistics RC Cola-Army Generika Cignal 
43450831 1 24 Jeff Gordon Hendrick Motorsports Chevrolet 68.455 68.126 2 9 Marcos Ambrose Richard Petty Motorsports Ford 68.113 68.299 3 48 Jimmie Johnson Hendrick Motorsports Chevrolet 68.669 68.389 4 4 Kevin Harvick Stewart-Haas Racing Chevrolet 68.356 68.447 5 41 Kurt Busch Stewart-Haas Racing Chevrolet 68.661 68.470 
43456330 27-Feb-2014 "Out of My Mind" Chad Cherry Eva Marie 3:52 19-May-2015 "Mass Appeal" KIT Solomon Crowe 3:46 07-Oct-2015 "Stay Hype, Bro" KIT The Hype Bros 3:21 05-Aug-2016 "Stories of Greatness" KIT WWE Raw 3:20 02-Sep-2016 "Free the Flame" Lesley Roy Ember Moon 3:55 
43464643 2014 Euro Cup {{silver02}} HAVK Mladost 2014 Croatian Championship {{silver02}} HAVK Mladost 2014 Adriatic League {{bronze03}} HAVK Mladost 2013 Croatian Cup {{bronze03}} HAVK Mladost 2013 Adriatic League {{bronze03}} HAVK Mladost 
43474240 1 24 Jeff Gordon Hendrick Motorsports Chevrolet 35.233 34.971 34.857 2 22 Joey Logano Team Penske Ford 35.145 35.038 34.887 3 99 Carl Edwards Roush Fenway Racing Ford 35.093 35.095 34.932 4 55 Brian Vickers Michael Waltrip Racing Toyota 35.165 35.108 35.005 5 2 Brad Keselowski Team Penske Ford 35.299 35.224 35.012 
43486758 1999 Biyer Phul Sagar Motin Rahman Shabnur  2000 Dui Duari Mystery man Humayun Ahmed Shawon Best Actor National Film Awards 2001 Shoshurbari Zindabad Badhan Debashish Biswas Shabnur Best Actor Meril Prothom Alo Awards 2002 Hridoyer Bandhon Akash FI Manik Shabnur  2002 Premer Taj Mahal Robin Gazi Mahbub Shabnur Best Actor Meril Prothom Alo Awards 
43542145 1 4 Kevin Harvick Stewart-Haas Racing Chevrolet 14.719 14.607 2 24 Jeff Gordon Hendrick Motorsports Chevrolet 14.688 14.615 3 99 Carl Edwards Roush Fenway Racing Ford 14.722 14.624 4 18 Kyle Busch Joe Gibbs Racing Toyota 14.732 14.641 5 22 Joey Logano Team Penske Ford 14.752 14.644 
43557796 {{gold medal}} Yaniuska Espinosa Weightlifting Women's +75kg {{dts|July 15}} {{gold medal}} Wuileixis Rivas Wrestling Men's Greco-Roman 66kg {{dts|July 15}} {{gold medal}} Rosa Rodriguez Athletics Women's Hammer Throw {{dts|July 21}} {{gold medal}} Gabriel Maestre Perez Boxing Men's Welterweight {{dts|July 25}} {{gold medal}} Miguel Ubeto Apointe Cycling Men's Road Race {{dts|July 25}} 
43567935 Audax Italiano Santiago Bicentenario de La Florida {{Nts|12,000}} Cobreloa Calama Municipal de Calama {{Nts|13,000}} Cobresal El Salvador Estadio El Cobre {{Nts|12,000}} Colo-Colo Santiago Estadio Monumental {{Nts|47,017}} Huachipato Talcahuano Estadio CAP {{Nts|10,500}} 
43586975 {{gold medal}} Hong Un-jong Gymnastics Women's vault 24 Sep {{gold medal}} Om Yun-chol Weightlifting Men's 56 kg 20 Sep {{gold medal}} Kim Un-guk Weightlifting Men's 62 kg 21 Sep {{gold medal}} Ri Jong-hwa Weightlifting Women's 58 kg 22 Sep {{gold medal}} Kim Un-ju Weightlifting Women's 75 kg 25 Sep 
43586981 {{gold medal}} Esmaeil Ebadi Archery Men's individual compound {{gold medal}} Ehsan Haddadi Athletics Men's discus throw {{gold medal}} Mohammad Daneshvar Cycling, Track Men's keirin {{gold medal}} Amir Mehdizadeh Karate Men's kumite 60 kg {{gold medal}} Saeid Hassanipour Karate Men's kumite 75 kg 
43602040 A Touch of Sin 天注定
Tiān zhùdìng Jia Zhangke China
Japan  The Backwater 共喰い
Tomogui Shinji Aoyama Japan  Dawn of a Filmmaker: The Keisuke Kinoshita Story はじまりのみち
Hajimari no Michi Keiichi Hara Japan †† Fish & Cat ماهی و گربه
Mahi va Gorbeh Shahram Mokri Iran †† Harmony Lessons Асланның сабақтары
Уроки гармонии Emir Baigazin Kazakhstan
Germany
France †† 
43605762 1 4 Kevin Harvick Stewart-Haas Racing Chevrolet 29.442 29.115 29.118 2 2 Brad Keselowski Team Penske Ford 29.181 29.150 29.170 5 20 Matt Kenseth Joe Gibbs Racing Toyota 29.026 29.044 29.334 7 43 Aric Almirola Richard Petty Motorsports Ford 28.984 29.266 29.391 8 18 Kyle Busch Joe Gibbs Racing Toyota 29.173 29.277 29.409 
43620631 {{gold medal}} Svetlana Radzivil Athletics Women's high jump {{gold medal}} Ekaterina Voronina Athletics Women's heptathlon {{gold medal}} Vadim Menkov Canoeing Men's C-1 1000 metres {{gold medal}} Aleksey Mochalov Canoeing Men's K-1 1000 metres {{gold medal}} Jasur Baykuziyev Taekwondo Men's 87 kg 
43631902 Martina Hingis Sania Mirza 3 1 Ekaterina Makarova Elena Vesnina 6 2 Raquel Kops-Jones Abigail Spears 28 5 Hsieh Su-wei Flavia Pennetta 33 7 Casey Dellacqua Yaroslava Shvedova 39 9 
43657875 1 2 Brad Keselowski Team Penske Ford 21.574 21.324 2 24 Jeff Gordon Hendrick Motorsports Chevrolet 21.441 21.422 3 48 Jimmie Johnson Hendrick Motorsports Chevrolet 21.481 21.446 4 4 Kevin Harvick Stewart-Haas Racing Chevrolet 21.516 21.453 5 22 Joey Logano Team Penske Ford 21.482 21.486 
43671603 1888 Northern 7-0 Percy Park 1889 Northern 7-0 Percy Park 1891 Northern 18-0 Gosforth 1892 Rockcliff 13-0 Percy Park 1893 Rockcliff 13-3 Percy Park 
43677930 1982 Kansas State Independence Bowl Wisconsin Loss 14–3 Jim Dickey 1985 Tennessee Sugar Bowl Miami Win 35–7 Johnny Majors 1986 Tennessee Liberty Bowl Minnesota Win 21–14 Johnny Majors 1987 Tennessee Peach Bowl Indiana Win 27–22 Johnny Majors 1989 Arkansas Cotton Bowl Tennessee Loss 31-27 Ken Hatfield 
43693183 2011 Vaagai Sooda Vaa Tamil Won, Vijay Award for Best Find of the Year
Won, Ananda Vikatan Magazine's Top 10 Nambikkaigal (Hopes) of 2011
Won, Mirchi Music Awards South for Best Upcoming Music Director
Won, BIG FM Melody Music Award for Best Debut Music Director
Won, Vijay Music Awards for Popular Melody of the Year
Nominated, Filmfare Award for Best Music Director&nbsp;– Tamil 2013 Vatthikuchi Tamil  2013 Kutti Puli Tamil  2013 Naiyaandi Tamil  2014 Thirumanam Ennum Nikkah Tamil Won, Mirchi Music Awards South for Best Album of the Year (Mirchi Listeners' Choice)
Won, Zee Telugu Santosham Award for Best Music Director&nbsp;– Tamil 
43709768 1958 27–28 July Moscow Lenin Stadium {{flagicon|Soviet Union}} Soviet Union 172 – 170 {{flagicon|United States}} 126 – 109 {{flagicon|Soviet Union}} 63 – 44 1959 18–19 July Philadelphia Franklin Field {{flagicon|Soviet Union}} Soviet Union 175 – 167 {{flagicon|United States}} 127 – 108 {{flagicon|Soviet Union}} 67 – 40 1961 15–16 July Moscow Lenin Stadium {{flagicon|Soviet Union}} Soviet Union 179 – 160 {{flagicon|United States}} 124 – 111 {{flagicon|Soviet Union}} 68 – 36 1962 21–22 July Stanford Stanford Stadium {{flagicon|Soviet Union}} Soviet Union 173 – 169 {{flagicon|United States}} 128 – 107 {{flagicon|Soviet Union}} 66 – 41 1963 20–21 July Moscow Lenin Stadium {{flagicon|Soviet Union}} Soviet Union 189 – 147 {{flagicon|United States}} 119 – 114 {{flagicon|Soviet Union}} 75 – 28 
43762341 Adams State University Grizzlies Alamosa Colorado Rocky Mountain Athletic Conference  Ashland University Eagles Ashland Ohio Great Lakes Intercollegiate Athletic Conference  Assumption College Greyhounds Worcester Massachusetts Northeast-10 Conference  Bentley University Falcons Waltham Massachusetts Northeast-10 Conference  Bloomsburg University of Pennsylvania Huskies Bloomsburg Pennsylvania Pennsylvania State Athletic Conference  
43763943 1 18 Kyle Busch Joe Gibbs Racing Toyota 28.207 3 99 Carl Edwards Roush Fenway Racing Ford 28.269 5 20 Matt Kenseth Joe Gibbs Racing Toyota 28.287 6 15 Clint Bowyer Michael Waltrip Racing Toyota 28.290 7 48 Jimmie Johnson Hendrick Motorsports Chevrolet 28.300 
43778290 1 8 Nicolas Prost e.dams-Renault 1:42.200  1 2 11 Lucas di Grassi Audi Sport ABT 1:42.306 +0.106 2 3 66 Daniel Abt Audi Sport ABT 1:42.454 +0.254 3 4 5 Karun Chandhok Mahindra Racing 1:42.461 +0.261 4 5 27 Franck Montagny Andretti 1:42.530 +0.330 8{{ref|1|1}} 
43795372 2000 Peabody Award The Daily Show with Jon Stewart {{won}} 2002 Teen Choice Award for Choice TV – Personality The Daily Show with Jon Stewart {{nom}} 2003 Teen Choice Award for Choice TV – Late Night The Daily Show with Jon Stewart {{nom}} 2005 Peabody Award The Daily Show with Jon Stewart {{won}} 2005 Special Recognition Award The Daily Show with Jon Stewart {{won}} 
43826612 1 2 Brad Keselowski Team Penske Ford 27.281 27.090 2 1 Jamie McMurray Chip Ganassi Racing Chevrolet 27.377 27.121 3 4 Kevin Harvick Stewart-Haas Racing Chevrolet 27.342 27.193 4 11 Denny Hamlin Joe Gibbs Racing Toyota 27.328 27.253 5 18 Kyle Busch Joe Gibbs Racing Toyota 27.368 27.260 
43829574  Tua Tagovailoa 5 2018 Auburn 3 Mike Shula 4 1985 Memphis State John Parker Wilson 4 2007 Arkansas AJ McCarron 4 2011 Vanderbilt AJ McCarron 4 2012 Western Kentucky 
43834205 1 4 Kevin Harvick Stewart-Haas Racing Chevrolet 22.129 22.095 2 18 Kyle Busch Joe Gibbs Racing Toyota 22.278 22.167 3 11 Denny Hamlin Joe Gibbs Racing Toyota 22.266 22.188 4 2 Brad Keselowski Team Penske Ford 22.220 22.203 5 1 Jamie McMurray Chip Ganassi Racing Chevrolet 22.314 22.231 
43923952 1 4 22 Joey Logano Team Penske Ford 267 48 3 7 18 Kyle Busch Joe Gibbs Racing Toyota 267 42 5 12 99 Carl Edwards Roush Fenway Racing Ford 267 39 7 25 11 Denny Hamlin Joe Gibbs Racing Toyota 267 37 9 13 27 Paul Menard Richard Childress Racing Chevrolet 267 35 
43943168 Nintendo Nintendo DS December 2, 2004 32,990,000 March 2013 Nintendo Game Boy Advance February 21, 2001 16,960,000 March 2009 Nintendo Wii December 2, 2006 12,750,000 March 2014 Sega Sega Saturn November 22, 1994 10,000,000 2001 NEC PC Engine October 30, 1987 8,000,000 ? 
4395515 1958 Rod Dedeaux 36-8-0 Defeated Missouri, 8-7 1961 Rod Dedeaux 43-9-1 Defeated Oklahoma St., 1-0 1963 Rod Dedeaux 37-16-1 Defeated Arizona, 5-2 1968 Rod Dedeaux 49-14-1 Defeated Southern Illinois, 4-3 1970 Rod Dedeaux 51-13-1 Defeated Florida St., 2-1 
43967944 Brampton Centre {{sortname|Bal|Gosal}} Incumbent Member of Parliament, Minister of State (Sport) M Brampton Insurance broker    Don Valley East {{sortname|Maureen|Harquail|nolink=1l}} 2011 candidate in St. Pauls, 2008 by-election candidate in Willowdale F Toronto Lawyer    Don Valley North {{sortname|Joe|Daniel}} Incumbent Member of Parliament for Don Valley East M Toronto Businessman    Don Valley West {{sortname|John|Carmichael|John Carmichael (politician)}} Incumbent Member of Parliament M Toronto Business executive    Hamilton Centre {{sortname|Yonatan|Rozenszajn|nolink=1}}  M Hamilton Lawyer    
43977016 Brampton Centre {{sort name|Ramesh|Sangha}}  M Brampton Lawyer    Brampton East {{sort name|Raj|Grewal}}  M Brampton Lawyer    Brampton West {{sort name|Kamal|Khera}}  F Brampton Nurse    Etobicoke North {{sort name|Kirsty|Duncan}} Incumbent Member of Parliament F Etobicoke Medical geographer    Hamilton Centre {{sort name|Anne|Tennier|nolink=1}} 2011 candidate in this riding F Hamilton Engineer    
43983319 Brampton Centre {{sort name|Rosemary|Keenan|nolink=1}} Chairwoman of the Peel Sierra Club F Brampton Environmentalist    Brampton East {{sort name|Harbaljit|Kahlon|nolink=1}}  M Brampton Business strategist    Brampton West {{sort name|Adaoma|Patterson|nolink=1}}  F Brampton Event manager    Don Valley North {{sort name|Akil|Sadikali|nolink=1}} 2011 Green Party candidate in Don Valley East M Toronto Software engineer    Etobicoke North {{sort name|Faisal|Hassan|nolink=1}} Former York South—Weston NDP riding association president M Etobicoke Executive assistant    
44004 1 File:ThomasEwingSr.jpg Thomas Ewing Ohio March 8, 1849 July 22, 1850  Zachary Taylor 1 File:ThomasEwingSr.jpg Thomas Ewing Ohio March 8, 1849 July 22, 1850  Millard Fillmore 2 File:Thomas McKean Thompson McKennan.png Thomas M. T. McKennan Pennsylvania August 15, 1850 August 26, 1850  Millard Fillmore 3 File:AxHHStuart.jpg Alexander H. H. Stuart Virginia September 14, 1850 March 7, 1853  Millard Fillmore {{color|white|5}} File:Jacob Thompson (ca. 1857).jpg Jacob Thompson Mississippi March 10, 1857 January 8, 1861  James Buchanan 
44005214 {{gold medal}} Souad Ait Salem Athletics Half marathon   {{gold medal}} Nabil Lasmari Badminton Men's singles   {{gold medal}} Abderahim Mechenouai Boxing Flyweight   {{gold medal}} Abdelhalim Ouradi Boxing Bantamweight   {{gold medal}} Abdelkader Chadi Boxing Featherweight   
44006591 3 Vladimir Leshonok {{flagicon|RUS}} MF {{birth date and age2|df=yes|2010|11|6|1984|8|14}} Salyut Belgorod 2010  12 1 7 Andrei Pazin {{flagicon|RUS}} MF {{birth date and age2|df=yes|2010|11|6|1986|1|20}} Nosta Novotroitsk 2010  39 6 8 Aleksandr Oleinik {{flagicon|RUS}} MF {{birth date and age2|df=yes|2010|11|6|1982|1|1}} Nosta Novotroitsk 2010  32 0 14 Vladimir Tatarchuk {{flagicon|RUS}} MF {{birth date and age2|df=yes|2010|11|6|1987|9|20}} CSKA Moscow 2008    18 Azim Fatullayev {{flagicon|RUS}} MF {{birth date and age2|df=yes|2010|11|6|1986|6|7}} Sudostroitel Astrakhan 2008    
440128 1984–85 Moncton Golden Flames AHL  7 4 2 6 7  — — — 1985–86 Guelph Platers OHL  23 18 15 33 65  20 18 13 1986–87 Moncton Golden Flames AHL  38 20 18 38 72  — — — 1986–87 Calgary Flames NHL  32 5 10 15 85  2 0 0 1987–88 Calgary Flames NHL  74 13 15 28 282  9 2 3 
440133 1988–89 Hull Olympiques QMJHL &nbsp; 28 34 36 70 14 &nbsp; 9 7 12 1988–89 Chicago Blackhawks NHL &nbsp; 20 9 9 18 4 &nbsp; 10 1 3 1989–90 Chicago Blackhawks NHL &nbsp; 78 26 40 66 54 &nbsp; 20 11 7 1990–91 Chicago Blackhawks NHL &nbsp; 79 41 53 94 80 &nbsp; 6 3 5 1991–92 Chicago Blackhawks NHL &nbsp; 80 53 50 103 98 &nbsp; 18 12 10 
440135 1988–89 Nacka HK SWE II &nbsp; 25 10 8 18 18 &nbsp; — — — 1990–91 Quebec Nordiques NHL &nbsp; 80 23 36 59 58 &nbsp; — — — 1991–92 Quebec Nordiques NHL &nbsp; 80 33 43 76 103 &nbsp; — — — 1992–93 Quebec Nordiques NHL &nbsp; 80 47 67 114 96 &nbsp; 6 3 1 1993–94 Quebec Nordiques NHL &nbsp; 84 32 53 85 60 &nbsp; — — — 
44018986 1991 Oulu {{flagathlete|[[Sebastien Flute]]|FRA}} {{flagathlete|[[Natalia Valeeva]]|URS}} No event No event  1993 Perpignan {{flagathlete|[[Gennady Metrofanov]]|RUS}} {{flagathlete|[[Jennifer O'Donnell]]|USA}} No event No event  1995 Birmingham {{flagathlete|[[Magnus Pettersson]]|SWE}} {{flagathlete|[[Natalia Valeeva]]|MDA}} {{USA}} {{UKR}}  1997 Istanbul {{flagathlete|[[Chung Jae-Hun (archer)|Chung Jae-Hun]]|KOR}} {{flagathlete|[[Tatyana Muntyan]]|UKR}} {{KOR}} {{GER}}  1999 Havana {{flagathlete|[[Magnus Pettersson]]|SWE}} {{flagathlete|[[Natalia Valeeva]]|ITA}} {{AUS}} {{FRA}}  
44039666 1 5 2 Brad Keselowski Team Penske Ford 194 47 2 13 20 Matt Kenseth Joe Gibbs Racing Toyota 194 43 3 33 15 Clint Bowyer Michael Waltrip Racing Toyota 194 41 4 29 40 Landon Cassill Hillman-Circle Sport LLC Chevrolet 194 0 6 7 33 Travis Kvapil Hillman-Circle Sport LLC Chevrolet 194 38 
4408437 2015 Rikard Karlberg {{SWE}} Milano 269 −19 Playoff Martin Kaymer 2010 Fredrik Andersson Hed {{SWE}} Royal Park i Roveri 268 −16 2 strokes David Horsey 2008 Hennie Otto {{ZAF}} Castello Tolcinasco 263 −25 1 stroke Oliver Wilson 2004 Graeme McDowell {{NIR}} Castello Tolcinasco 197* −19 Playoff Thomas Levet 2000 Ian Poulter {{ENG}} Is Molas 267 −21 1 stroke Gordon Brand, Jnr 
44092411 1 1 Jamie McMurray Chip Ganassi Racing Chevrolet 19.033 18.954 2 22 Joey Logano Team Penske Ford 19.109 19.011 3 20 Matt Kenseth Joe Gibbs Racing Toyota 18.971 19.066 4 14 Tony Stewart Stewart-Haas Racing Chevrolet 19.155 19.070 5 11 Denny Hamlin Joe Gibbs Racing Toyota 19.048 19.076 
44128010 Taoiseach  Albert Reynolds 1993–94 Fianna Fáil Minister for Foreign Affairs  Dick Spring 1993–94 Labour Party Minister for Enterprise and Employment  Ruairi Quinn 1993–94 Labour Party Minister for Tourism and Trade  Charlie McCreevy 1993–94 Fianna Fáil Minister for Transport, Energy and Communications  Brian Cowen 1993–94 Fianna Fáil 
44157180 1 3 48 Jimmie Johnson Hendrick Motorsports Chevrolet 341 48 2 5 4 Kevin Harvick Stewart-Haas Racing Chevrolet 341 43 3 26 2 Brad Keselowski Team Penske Ford 341 42 4 9 18 Kyle Busch Joe Gibbs Racing Toyota 341 40 5 21 1 Jamie McMurray Chip Ganassi Racing Chevrolet 341 39 
44212144 1 Malaysia Masters Grand Prix Gold SPICE Stadium Penang January 19 January 24 120,000 Report 2 Syed Modi International Grand Prix Gold Babu Banarasi Das Indoor Stadium Lucknow January 26 January 31 120,000 Report 3 Thailand Masters Grand Prix Gold Nimibutr Stadium Bangkok February 8 February 13 120,000 Report 4 German Open Grand Prix Gold RWE-Sporthalle Mulheim an der Ruhr March 1 March 6 120,000 Report 5 Swiss Open Grand Prix Gold St. Jakobshalle Basel March 15 March 20 120,000 Report 
44225528 2001 Gomel Torpedo-MAZ Minsk BATE Borisov 2002 Dnepr-Transmash Mogilev Dinamo Minsk Torpedo-MAZ Minsk 2003 Torpedo Zhodino Torpedo-SKA Minsk BATE Borisov 2004 Dinamo Minsk Dinamo Brest Torpedo-SKA Minsk 2005 Dinamo Minsk BATE Borisov Shakhtyor Soligorsk 
44228680 1 Bernard Hinault {{FRA}} Renault-Gitane-Campagnolo DNF —  3 Bernard Becaas {{FRA}} Renault-Gitane-Campagnolo 76 + 1h 45' 09"  5 Yvon Bertin {{FRA}} Renault-Gitane-Campagnolo DNF —  6 Patrick Bonnet {{FRA}} Renault-Gitane-Campagnolo 34 + 1h 01' 38"  7 Jean Chassang {{FRA}} Renault-Gitane-Campagnolo 74 + 1h 44' 34"  
44245512 Week 1 Jozy Altidore Toronto FC Clint Dempsey Seattle Sounders FC Nick Rimando Real Salt Lake Week 2 David Villa New York City FC Innocent Emeghara San Jose Earthquakes Tyler Deric Houston Dynamo Week 3 Bradley Wright-Phillips New York Red Bulls Octavio Rivero Vancouver Whitecaps FC Tyler Deric Houston Dynamo Week 4 Kelyn Rowe New England Revolution Jack McInerney Montreal Impact Tyler Deric Houston Dynamo Week 5 Shaun Maloney Chicago Fire Javier Morales Real Salt Lake Brek Shea Orlando City SC 
44245769 3 7 {{flagicon|NGA}} Nduka Ozokwo 25 Dec 1988 Enugu MF 30 1 7 2 37 3 6  {{Tooltip|→|Continued from}} previous season. 5 13 {{flagicon|TUN}} Wissem Ben Yahia 9 Sep 1984 Tunis MF 28 3 2 2 30 5 7 1 {{Tooltip|→|Continued from}} previous season. 7 18 {{flagicon|GUI}} Ibrahim Yattara 3 Jun 1980 Kamsar MF 4  1  5    {{Tooltip|2012 ST|2012 Summer transfer from}} Al Shabab FC. 10 55 {{flagicon|TUR}} Hakan Bayraktar 11 Feb 1976 Samsun MF 26  5  31  3  {{Tooltip|→|Continued from}} previous season. 14 10 {{flagicon|ARG}} Emmanuel Culio 30 Aug 1983 Buenos Aires MF 31 5 4 1 35 6 11 1 {{Tooltip|2012 SL|2012 Summer loan from}} Galatasaray. 
44262104 Naftan Novopolotsk {{Hs|1}}Premier League, 13 Vedrich-97 Rechitsa {{Hs|2}}Premier League, 14 Darida Minsk Raion 3 Torpedo-Kadino Mogilev 5 Granit Mikashevichi 6 
44278 {{color|white|1}} File:Hobby-Oveta-Culp.jpg Oveta Culp Hobby Texas April 11, 1953 July 31, 1955  Dwight D. Eisenhower {{color|white|3}} File:ArthurSFlemming.jpg Arthur S. Flemming Ohio August 1, 1958 January 19, 1961  Dwight D. Eisenhower {{color|white|4}} File:Ribicoff.jpg Abraham A. Ribicoff Connecticut January 21, 1961 July 13, 1962  John F. Kennedy {{color|white|5}} File:Celebrez.jpg Anthony J. Celebrezze Ohio July 31, 1962 August 17, 1965  John F. Kennedy {{color|white|6}} File:John W. Gardner, U.S. Secretary of Health, Education, and Welfare.jpg  John W. Gardner California August 18, 1965 Lyndon B. Johnson March 1, 1968 
44278448 Alessandra Ambrosio 2000–2003 • 2005–2017 Current Angel Adriana Lima 1999–2003 • 2005–2008 • 2010–2018 Current Angel Candice Swanepoel 2007–2015 • 2017–2018 Current Angel Karlie Kloss 2011–2014 • 2017 Current Angel Lily Aldridge 2009–2017 Current Angel Behati Prinsloo 2007–2015 • 2018 Current Angel Doutzen Kroes 2005–2006 • 2008–2009 • 2011–2014 Current Angel Lais Ribeiro 2010–2011 • 2013–2018 Featured Sigrid Agren 2013–2014  Izabel Goulart 2005–2016 Former Angel 
4429235 Paul LaDue Defenseman LAK 2016–Present 0 Andrew MacWilliam Defenseman TOR 2014–2015 0 Zane McIntyre Goaltender BOS 2016–2017 0 Curtis Murphy Defenseman MIN 2002–2003 0 Brady Murray Forward LAK 2007–2008 0 
44316959 Lokomotiv Vitebsk {{Hs|1}}Premier League, 14 Vedrich-97 Rechitsa 4 Granit Mikashevichi 5 ZLiN Gomel 7 Kommunalnik Slonim 8 
44354751 2014–2015 Elano Chennaiyin 2014 Alessandro Del Piero Delhi Dynamos 2014 Robert Pires Goa 2014 Freddie Ljungberg Mumbai City 2014 Joan Capdevila NorthEast United 
44373060 Lokomotiv Minsk {{Hs|1}}Premier League, 15 Molodechno-2000 Molodechno {{Hs|2}}Premier League, 16 Vedrich-97 Rechitsa 4 Granit Mikashevichi 5 ZLiN Gomel 6 
44396829 Lokomotiv Minsk {{Hs|1}}Premier League, 13 Belshina Bobruisk {{Hs|2}}Premier League, 14 Granit Mikashevichi 5 Vedrich-97 Rechitsa 7 Volna Pinsk 8 
44424582 60 17 October 2009 2009 Pacific Cup Qualifier Cook Islands def. Samoa 22-20 Barlow Park Cairns 4,261 59 9 November 2008 2008 World Cup Samoa def. France 42-10 Penrith Stadium Penrith 8,028 58 5 November 2008 2008 World Cup Ireland def. Samoa 34-16 Parramatta Stadium Parramatta 8,602 57 31 October 2008 2008 World Cup Samoa def.Tonga 20-12 Penrith Stadium Penrith 11,787 56 14 November 2007 2008 World Cup Qualifying (Final) Samoa def.Lebanon 38-16 Post Office Road Featherstone 1,323 
44556433 MF {{flagicon|BRA}} Ferdinando 0 0 14 0 0 0 14 0 MF {{flagicon|BRA}} Renan Teixeira 18 1 0 0 0 0 18 1 MF {{flagicon|BRA}} Victor Bolt 15 0 0 0 0 0 15 0 MF {{flagicon|BRA}} Bruno Xavier 0+2 0 0 0 0 0 2 0 MF {{flagicon|BRA}} Diego Souza 0+2 0 0 0 0 0 2 0 
44563261 WT20I 340 15 March {{crw|IND}} Mithali Raj {{crw|BAN}} Jahanara Alam M. Chinnaswamy Stadium, Bangalore {{crw|IND}} by 72 runs WT20I 341 15 March {{crw|NZL}} Suzie Bates {{crw|SRI}} Shashikala Siriwardene Feroz Shah Kotla Ground, New Delhi {{crw|NZ}} by 7 wickets WT20I 342 16 March {{crw|PAK}} Sana Mir {{crw|WIN}} Stafanie Taylor M. A. Chidambaram Stadium, Chennai {{crw|WIN}} by 4 runs WT20I 343 17 March {{crw|BAN}} Jahanara Alam {{crw|ENG}} Charlotte Edwards M. Chinnaswamy Stadium, Bangalore {{crw|ENG}} by 36 runs WT20I 344 18 March {{crw|IRE}} Isobel Joyce {{crw|NZL}} Suzie Bates Punjab Cricket Association IS Bindra Stadium, Mohali {{crw|NZ}} by 93 runs 
44643759 2006 Listening for Lions Gloria Whelan AudioFile Earphones Award, Audie Award; Novel originally printed in 2005  2006 The Boleyn Inheritance Philippa Gregory Abridged (2006) and unabridged (2011) versions  2007 The Thirteenth Tale Diane Setterfield Novel originally printed in 2006  2008 The Other Queen Philippa Gregory Abridged version  2009 Her Fearful Symmetry Audrey Niffenegger   
44721502 {{sortname|Alexander|Bogdanov}}
Алекса́ндр Богда́нов Bolshevik 1873 1928 1906 Imprisoned (1905)
Ext. exile (1905–1914) Russian File:A A Bogdanov.jpg {{sortname|Mark|Broido}}
Марк Бройдо Menshevik 1877 1927 1900 Imprisoned (1908–1910) Russian {{center|—}} {{sortname|Pyotr|Bronstein}}
Пётр Бронштейн Menshevik 1851 1944 1900 Imprisoned (in 1910) Russian {{center|—}} {{sortname|Ansis|Buševics}}
Анзис Бушевиц SDLC 1878 1943 1906 {{center|—}} Latvian {{center|—}} {{sortname|Boris|Gorev}}
Борис Горев Menshevik 1874 1937 1903 Imprisoned (in 1908) Russian File:Gorev, BI (1).jpg 
44858354 1 The Wedding Party 2 2017 512,000,000 Ebonylife Films / FilmOne / Inkblot Production / Koga Studios Niyi Akinmolayan 3 Chief Daddy 2018 387,463,949 EbonyLife Films Niyi Akinmolayan 4 King of Boys 2018 231,719,753 Kemi Adetiba Visuals Kemi Adetiba 6 A Trip to Jamaica 2016 178,500,000 Corporate World Pictures Robert Peters 8 30 Days in Atlanta 2014 137,200,000 Corporate World Pictures Robert Peters 
449238 1993–94 Poldi SONP Kladno ELH  2 1 1 0 — 60 5 0 5.00 .839  2 2 0 120 14 0 1994–95 Poldi SONP Kladno ELH  26 13 9  — 1334 68 0 3.06 .915  5 2 3 241 19 0 1995–96 Wheeling Thunderbirds ECHL  35 20 10 2 — 1912 117 0 3.67 .881  7 4 3 436 19 0 1995–96 Fredericton Canadiens AHL  — — — — — — — — — —  1 0 1 59 4 0 1996–97 Fredericton Canadiens AHL  47 12 26 7 — 2645 154 2 3.49 .902  — — — — — — 
449341 1980 with CiU – {{Composition bar|35|135|hex={{Democratic Convergence of Catalonia/meta/color}}}} Government Jordi Pujol 1984 with CiU – {{Composition bar|56|135|hex={{Democratic Convergence of Catalonia/meta/color}}}} Government Jordi Pujol 1988 with CiU – {{Composition bar|54|135|hex={{Democratic Convergence of Catalonia/meta/color}}}} Government Jordi Pujol 1992 with CiU – {{Composition bar|54|135|hex={{Democratic Convergence of Catalonia/meta/color}}}} Government Jordi Pujol 1995 with CiU – {{Composition bar|46|135|hex={{Democratic Convergence of Catalonia/meta/color}}}} Government Jordi Pujol 
44935429 1 Brands Hatch Rothmans F5000 Brands Hatch 17 March Peter Gethin Chevron B24 Chevrolet 2 Mallory Park Rothmans F5000 Mallory Park 1 April Graham McRae McRae GM1 Chevrolet 4 Snetterton Rothmans F5000 Snetterton 20 April Brett Lunger Trojan T101 Chevrolet 6 Oulton Park Rothmans F5000 Oulton Park 13 May Teddy Pilette Chevron B24 Chevrolet 10 {{flagicon|GBR}} Mallory Park Rothmans F5000 Mallory Park 8 July Brett Lunger Trojan T101 Chevrolet 
4496273 Charles-B.-Banville Ecological Reserve Lac-Huron 10.00 Chicobi Ecological Reserve Lac-Chicobi 21.23 Dunes-de-Berry Ecological Reserve Berry 2.59 G.-Oscar-Villeneuve Ecological Reserve Mont-Valin 5.67 Jackrabbit Ecological Reserve Montcalm 7.50 
45000991 11 Evgeni Berzin {{RUS}} Gewiss-Ballan DNF  12 Guido Bontempi {{ITA}} Gewiss-Ballan 89  13 Dario Bottaro {{ITA}} Gewiss-Ballan 79  14 Bruno Cenghialta {{ITA}} Gewiss-Ballan 15  15 Gabriele Colombo {{ITA}} Gewiss-Ballan 51  
450096 Abbuoto Aboto, Cecubo. Italy, Lazio  717 (2000) 1984 Abrusco Abrostalo, Abrostine, Abrostino, Abrusco nero, Abrusco nero di toscana, Abrusio, Colore, Colorino Italy, Tuscany  6 (2000)  Acolon  Germany Blaufränkisch x Dornfelder 135 1971 Agiorgitiko Aghiorghitico, Aghiorghitiko, Nemeas Mavro, Nemeas Mavroudi, St.George. Greece    Albaranzeuli nero  Italy, Sardinia    
45043227 2 {{dts|January 15, 2015}} {{sortname|Charles Frederick|Warner|nolink=1}} {{dts|July 20, 1967}} 47 30 17 Male Black Oklahoma Lethal injection  3 {{dts|January 15, 2015}} {{sortname|Johnny Shane|Kormondy|nolink=1}} {{dts|May 20, 1972}} 42 21 21 Male White Florida Lethal injection  4 {{dts|January 21, 2015}} {{sortname|Arnold|Prieto, Jr.|nolink=1}} {{dts|June 9, 1973}} 41 20 21 Male Hispanic Texas Lethal injection  6 {{dts|January 29, 2015}} {{sortname|Robert Charles|Ladd|nolink=1}} {{dts|March 19, 1957}} 57 39 18 Male Black Texas Lethal injection  7 {{dts|February 4, 2015}} {{sortname|Donald Keith|Newbury|Texas Seven}} {{dts|May 18, 1962}} 52 38 14 Male White Texas Lethal injection  
45050735 1 Lucien Aimar {{FRA}} Ford France-Hutchinson 1  2 Jacques Anquetil {{FRA}} Ford France-Hutchinson DNF  3 Arie den Hartog {{NED}} Ford France-Hutchinson 45  4 Vin Denson {{GBR2}} Ford France-Hutchinson DNF  5 Pierre Everaert {{FRA}} Ford France-Hutchinson DNF  
45062928 1 Eddy Merckx {{BEL}} Molteni 2  2 Herman Beysens {{BEL}} Molteni DNF  3 Ludo Delcroix {{BEL}} Molteni 57  4 Jos Deschoenmaecker {{BEL}} Molteni 17  5 Jos Huysmans {{BEL}} Molteni 59  
45082801 {{gold medal}} {{sortname|Lotte|Friis}} 2009 Rome Swimming Women's 800&nbsp;m freestyle {{gold medal}} {{sortname|Lotte|Friis}} 2011 Shanghai Swimming Women's 1500&nbsp;m freestyle {{gold medal}} {{sortname|Jeanette|Ottesen}} 2011 Shanghai Swimming Women's 100&nbsp;m freestyle {{gold medal}} {{sortname|Jeanette|Ottesen Gray}} 2013 Barcelona Swimming Women's 50&nbsp;m butterfly {{silver medal}} {{sortname|Louise|Ørnstedt}} 2003 Barcelona Swimming Women's 100&nbsp;m backstroke 
4510280 1954–55 Dinamo Zagreb First League 1 0 1955–56 Dinamo Zagreb First League 12 9 1956–57 Dinamo Zagreb First League 15 9 1957–58 Dinamo Zagreb First League 22 17 1958–59 Dinamo Zagreb First League 14 7 
45137887 11 Pierre Beuffeuil {{FRA}} Mercier-BP-Hutchinson 47  12 Robert Cazala {{FRA}} Mercier-BP-Hutchinson 30  13 Jean Gainche {{FRA}} Mercier-BP-Hutchinson 20  14 Alfons Hellemans {{BEL}} Mercier-BP-Hutchinson 60  15 Frans Melckenbeeck {{BEL}} Mercier-BP-Hutchinson DNF  
45165452 121 Wladimir Belli {{ITA}} Panaria-Vinavil 68  122 Alessandro Baronti {{ITA}} Panaria-Vinavil 112  123 Davide Bramati {{ITA}} Panaria-Vinavil DNF-6  124 Oscar Camenzind {{SUI}} Panaria-Vinavil 36  125 Roberto Conti {{ITA}} Panaria-Vinavil DNS-P  
45222987 2012 Ballyea Kilmaley 2011 Sixmilebridge Cratloe 2009 Sixmilebridge Crusheen 2008 Clonlara Newmarket-on-Fergus 2007 Inagh-Kilnamona Newmarket-on-Fergus 
4522426 1959
Details Slippery Rock, PA  Pratt Institute (NY) 4−3
{{small|(2OT) 1962
Details Richmond, IN  East Stroudsburg State 4−0 1964
Details Upper Montclair, NJ  Trenton State 3−0 1966
Details Belmont, NC  Quincy 6−1 1968
Details Quincy, IL  Davis & Elkins 2−1
{{small|(5OT) 
4525043 1978–79 {{flagicon|KSA}} Majed Abdullah Al-Nassr 18 1979–80 {{flagicon|KSA}} Majed Abdullah Al-Nassr 17 1980–81 {{flagicon|KSA}} Majed Abdullah Al-Nassr 21 1982–83 {{flagicon|KSA}} Majed Abdullah Al-Nassr 14 1985–86 {{flagicon|KSA}} Majed Abdullah Al-Nassr 15 
45284066 America East Conference {{CBSB link|year=1998|team=Delaware Fighting Blue Hens|title=Delaware}} 1998 America East Conference Baseball Tournament Frawley Stadium • Wilmington, DE {{CBSB link|year=1998|team=Delaware Fighting Blue Hens|title=Delaware}} Atlantic Coast Conference {{CBSB link|year=1998|team=Florida State Seminoles|title=Florida State}} 1998 Atlantic Coast Conference Baseball Tournament Durham Bulls Athletic Park • Durham, NC {{CBSB link|year=1998|team=Wake Forest Demon Deacons|title=Wake Forest}} Big 12 Conference {{CBSB link|year=1998|team=Texas A&M Aggies|title=Texas A&M}} 1998 Big 12 Conference Baseball Tournament AT&T Bricktown Ballpark • Oklahoma City, OK {{CBSB link|year=1998|team=Texas Tech Red Raiders|title=Texas Tech}} Big Ten Conference {{CBSB link|year=1998|team=Illinois Fighting Illini|title=Illinois}} 1998 Big Ten Conference Baseball Tournament Illinois Field • Champaign, IL {{CBSB link|year=1998|team=Minnesota Golden Gophers|title=Minnesota}} Big West Conference North - {{CBSB link|year=1998|team=Nevada Wolf Pack|title=Nevada}}
South - {{CBSB link|year=1998|team=Cal State Fullerton Titans|title=Cal State Fullerton}} 1998 Big West Conference Baseball Tournament Titan Field • Fullerton, CA {{CBSB link|year=1998|team=Long Beach State 49ers|title=Long Beach State}} 
45386159 Saturday, April 11 Chicago Bliss Atlanta Steam 8:00 PM ET Arena at Gwinnett Center Chicago Bliss 27
Atlanta Steam 24 Recap Saturday, April 18 Atlanta Steam Omaha Heart 8:00 PM CT Ralston Arena Atlanta Steam 79
Omaha Heart 0 Recap Saturday, April 25 Omaha Heart Chicago Bliss 8:00 PM CT Toyota Park Chicago Bliss 49
Omaha Heart 0 Recap Saturday, May 2 Omaha Heart Atlanta Steam 8:00 PM ET Arena at Gwinnett Center Atlanta Steam 62
Omaha Heart 0 Recap Sunday, May 10 Atlanta Steam Chicago Bliss 1:00 PM CT Toyota Park Chicago Bliss 29
Atlanta Steam 13 Recap 
454047 2000 NYJ 13 22 - 370 16.8 63 1 16 0 0 2001 NYJ 16 59 - 868 14.7 40 7 42 0 0 2002 NYJ 16 89 - 1,264 14.2 43 5 67 1 0 2003 WSH 16 82 - 1,204 14.7 64 6 54 0 0 2004 WSH 16 90 - 950 10.6 45 1 52 1 1 
45437088 Vienna Capitals Vienna Austrian Hockey League founding club A HC Pardubice Pardubice Czech Extraliga founding club A HIFK Helsinki Liiga founding club A KalPa Kuopio Liiga founding club A Tappara Tampere Liiga founding club A 
45466203 7 June 2014 Jake Jervis Portsmouth Free 17 June 2014 Antonio Reguero Kilmarnock Free 18 July 2014 Jordi Balk Utrecht Free 18 July 2014 Ben Frempah Leicester City Free 6 August 2014 Filip Kiss Cardiff City Loan 
45485062 1 37 48 Jimmie Johnson Hendrick Motorsports Chevrolet 325 47 2 2 4 Kevin Harvick Stewart-Haas Racing Chevrolet 325 44 4 1 22 Joey Logano Team Penske Ford 325 41 5 36 20 Matt Kenseth Joe Gibbs Racing Toyota 325 40 7 11 47 A. J. Allmendinger JTG Daugherty Racing Chevrolet 325 37 
455109 1994–95 Lake Superior CCHA  28 16 7 3 1616 75 2 2.78 .887  — — — — — — 1995–96 Lake Superior CCHA  29 21 4 2 1658 67 2 2.42 .904  — — — — — — 1996–97 Lake Superior CCHA  37 19 3 4 2197 134 3 3.66 .876  — — — — — — 1997–98 Providence Bruins AHL  55 15 31 4 3053 164 3 3.22 .898  — — — — — — 1998–99 Providence Bruins AHL  48 37 9 1 2771 134 3 2.90 .896  19 15 4 1209 48 1 
4555498 1996–97 Calgary Flames NHL  68 19 16 35 12  — — — 1997–98 Calgary Flames NHL  50 6 8 14 16  — — — 1997–98 Montreal Canadiens NHL  28 6 5 11 6  10 2 0 1998–99 Montreal Canadiens NHL  74 8 10 18 16  — — — 1999–2000 Toronto Maple Leafs NHL  82 29 27 56 10  12 2 4 
45555784 1 18 4 Kevin Harvick Stewart-Haas Racing Chevrolet 267 48 5 19 11 Denny Hamlin Joe Gibbs Racing Toyota 267 39 6 22 47 A. J. Allmendinger JTG Daugherty Racing Chevrolet 267 38 7 11 2 Brad Keselowski Team Penske Ford 267 38 8 5 42 Kyle Larson Chip Ganassi Racing Chevrolet 267 36 
45556 {{color|white|10}} William T. Barry Kentucky March 9, 1829 Jackson {{color|white|15}} Cave Johnson Tennessee March 6, 1845 Polk {{color|white|16}} Jacob Collamer Vermont March 8, 1849 Taylor {{color|white|18}} Samuel Dickinson Hubbard Connecticut August 31, 1852 Fillmore {{color|white|20}} Aaron V. Brown Tennessee March 6, 1857 Buchanan 
4556046 2007–08 Washington Capitals NHL  82 14 55 69 24  7 4 2 2008–09 Washington Capitals NHL  82 22 66 88 46  14 3 12 2009–10 Washington Capitals NHL  82 33 68 101 50  7 5 4 2010–11 Washington Capitals NHL  77 18 47 65 40  9 0 2 2011–12 Washington Capitals NHL  42 14 30 44 24  13 2 6 
45601722 1986–87 Steve Vacendak Big South 8 20 1 7 5th Quarterfinal — — — 1987–88 Steve Vacendak Big South 17 13 5 7 4th Champions‡ — — — 1988–89 Steve Vacendak Big South 16 13 5 7 6th Semifinal — — — 1989–90 Steve Vacendak Big South 19 10 6 6 4th Semifinal — — — 1990–91 Steve Vacendak Big South 8 20 5 9 5th Quarterfinal — — — 
45605320 1933 Columbus Red Birds 4–2 Minneapolis Millers 1934 Columbus Red Birds 5–2 Minneapolis Millers 1942 Columbus Red Birds 4–0 Toledo Mud Hens 1943 Columbus Red Birds 3–0 Indianapolis Indians 1950 Columbus Red Birds 4–3 Indianapolis Indians 
45626033 2 14 Fabian Coulthard Holden VF Commodore Brad Jones Racing 1:20.4342 5 22 James Courtney Holden VF Commodore Holden Racing Team 1:20.7208 7 18 Lee Holdsworth Holden VF Commodore Charlie Schwerkolt Racing 1:20.8552 9 8 Jason Bright Holden VF Commodore Brad Jones Racing 1:20.9042 11 97 Shane van Gisbergen Holden VF Commodore Tekno Autosports 1:20.9585 
45631163 1 4 Kevin Harvick Stewart-Haas Racing Chevrolet 26.074 25.616 25.577 2 22 Joey Logano Team Penske Ford 26.142 25.654 25.615 3 1 Jamie McMurray Chip Ganassi Racing Chevrolet 25.977 25.735 25.637 4 20 Matt Kenseth Joe Gibbs Racing Toyota 25.991 25.707 25.701 6 2 Brad Keselowski Team Penske Ford 26.111 25.738 25.748 
45632909 1988–89 Oliver Purnell Big South 15 13 5 7 5th Quarterfinal — — — 1989–90 Oliver Purnell Big South 7 22 3 9 7th Semifinal — — — 1990–91 Oliver Purnell Big South 22 7 12 2 2nd Semifinal — — — 1991–92 Ron Bradley Big South 20 9 12 2 1st† Semifinal — — — 1992–93 Ron Bradley Big South 16 15 8 8 5th Semifinal — — — 
45636654 ODI 2028 26 June {{cr|ENG}} Michael Vaughan {{cr|ZIM}} Heath Streak Trent Bridge, Nottingham {{cr|ZIM}} by 4 wickets ODI 2029 28 June {{cr|ENG}} Marcus Trescothick {{cr|RSA}} Graeme Smith The Oval, London {{cr|ENG}} by 6 wickets ODI 2030 29 June {{cr|RSA}} Graeme Smith {{cr|ZIM}} Heath Streak St Lawrence Ground, Canterbury {{cr|RSA}} by 46 runs ODI 2031 1 July {{cr|ENG}} Michael Vaughan {{cr|ZIM}} Heath Streak Headingley, Leeds No result ODI 2032 3 July {{cr|ENG}} Michael Vaughan {{cr|RSA}} Graeme Smith Old Trafford, Manchester {{cr|RSA}} by 7 wickets 
45688889 1 41 Kurt Busch Stewart-Haas Racing Chevrolet 38.979 38.911 38.889 2 4 Kevin Harvick Stewart-Haas Racing Chevrolet 38.905 39.080 38.909 3 20 Matt Kenseth Joe Gibbs Racing Toyota 38.791 39.104 38.926 4 18 David Ragan Joe Gibbs Racing Toyota 39.022 39.029 38.943 5 42 Kyle Larson Chip Ganassi Racing Chevrolet 39.033 39.197 39.059 
4595346 04 St. Louis Missouri 310,864 Midwest 05 Chicago Illinois 298,977 Midwest 06 Baltimore Maryland 267,354 South 08 Cincinnati Ohio 216,239 Midwest 09 New Orleans Louisiana 191,418 South 
460388 1982 Tony Penikett  35.4 {{Composition bar|6|16|hex={{Canadian party colour|YT|NDP}}}} {{increase}} 5 {{increase}} 2nd {{no2|Official Opposition}} 1985 Tony Penikett  41.1 {{Composition bar|8|16|hex={{Canadian party colour|YT|NDP}}}} {{increase}} 2 {{increase}} 1st {{yes2|'''Minority Government'''}} 1989 Tony Penikett  41.1 {{Composition bar|9|16|hex={{Canadian party colour|YT|NDP}}}} {{increase}} 1 {{steady}} 1st {{yes2|'''Majority Government'''}} 1992 Tony Penikett  35.1 {{Composition bar|6|17|hex={{Canadian party colour|YT|NDP}}}} {{decrease}} 3 {{decrease}} 2nd {{no2|Official Opposition}} 1996 Piers McDonald 5,774 39.9 {{Composition bar|11|17|hex={{Canadian party colour|YT|NDP}}}} {{increase}} 5 {{increase}} 1st {{yes2|'''Majority Government'''}} 
4611023 Ballarat Trams in Ballarat Horse December 1887 1905 &nbsp; Ballarat Trams in Ballarat Electric 1905 19 September 1971  Ballarat Ballarat Tramway Museum Electric 1 February 1975  , heritage tram, a company founded in 1971, from 1971 to 1975 the construction of the track Bendigo Trams in Bendigo Accumulator (storage battery) 14 June 1890 23 September 1890 &nbsp; Bendigo Trams in Bendigo Steam 1 February 1892 June 1902 &nbsp; 
4615030 Forest Glen Moncton Greater Moncton Westmorland K 4 A-East     Arnold H. McLeod Moncton Greater Moncton Westmorland K 4 A-East     Claude D. Taylor Riverview Greater Moncton Albert K 5 A-East 1973    Frank L. Bowser Riverview Greater Moncton Albert K 5 A-East 1962    West Riverview Riverview Greater Moncton Albert K 5 A-East     
46204885 1 15 11 Denny Hamlin Joe Gibbs Racing Toyota 500 47 2 12 2 Brad Keselowski Team Penske Ford 500 43 3 1 22 Joey Logano Team Penske Ford 500 42 4 8 20 Matt Kenseth Joe Gibbs Racing Toyota 500 41 5 20 18 David Ragan Joe Gibbs Racing Toyota 500 39 
46314262 2012 2. Son Of Sardaar - Title Track Son Of Sardaar Himesh Reshammiya 2012 3. Son Of Sardaar - Title Track (Remix) Son Of Sardaar Himesh Reshammiya 2012 4. Po Po Son Of Sardaar Himesh Reshammiya 2012 5. Khiladi - Title Track Khiladi 786 Himesh Reshammiya 2012 6. Khiladi - Title Track (Remix) Khiladi 786 Himesh Reshammiya 
46315260 1 41 Kurt Busch Stewart-Haas Racing Chevrolet 27.879 27.885 27.857 2 4 Kevin Harvick Stewart-Haas Racing Chevrolet 27.752 27.832 27.875 3 2 Brad Keselowski Team Penske Ford 28.051 27.974 27.951 4 5 Kasey Kahne Hendrick Motorsports Chevrolet 28.005 28.024 27.989 5 48 Jimmie Johnson Hendrick Motorsports Chevrolet 28.099 28.071 28.063 
46317063 Allan Quatermain {{sort|1887.1|1887}} Longmans, Green & Co. Allan Quatermain series  Colonel Quaritch, VC {{sort|1889.1|1889}} Longmans Green Published in three volumes  Eric Brighteyes {{sort|1891|1891}} Longmans Green   Nada the Lily {{sort|1892|1892}} Longmans Green Allan Quatermain and Ayesha series  Joan Haste {{sort|1895.2|1895}} Longmans Green   
46375256 1 Scott Grix Fullback 0 Wakefield Trinity Wildcats 2013 31 11 7 0 58 2 Luke George Wing 0 Wakefield Trinity Wildcats 2013 7 3 0 0 12 4 Joe Wardle Centre 0 Bradford Bulls 2013 28 16 1 0 66 6 Danny Brough Stand Off 0 Wakefield Trinity Wildcats 2013 31 9 153 2 334 9 Shaun Lunt Hooker 0 Workington Town 2013 29 23 0 0 92 
46400027 1 20 Matt Kenseth Joe Gibbs Racing Toyota 14.928 14.953 14.917 2 2 Brad Keselowski Team Penske Ford 14.926 15.006 14.939 3 19 Carl Edwards Joe Gibbs Racing Toyota 15.036 15.026 14.953 4 4 Kevin Harvick Stewart-Haas Racing Chevrolet 15.019 14.978 14.966 5 11 Denny Hamlin Joe Gibbs Racing Toyota 15.109 15.050 15.059 
46433879 1 3 Timmy Hansen Team Peugeot-Hansen Peugeot 208 T16 3rd 1st 1st 1st 16 2 57 Toomas Heikkinen Marklund Motorsport Volkswagen Polo 1st 10th 2nd 4th 15 4 92 Anton Marklund Marklund Motorsport Volkswagen Polo 8th 5th 10th 3rd 13 6 79 {{flagicon|SWE}} Edward Sandström EKS RX Audi S1 6th 8th 6th 6th 11 8 88 Henning Solberg Monster Energy World RX Citroën DS3 9th 9th 8th 5th 9 
46435375 4 57 Toomas Heikkinen Marklund Motorsport Volkswagen Polo 2nd 4th 1st 17th 13 6 3 Timmy Hansen Team Peugeot-Hansen Peugeot 208 T16 3rd 7th 7th 6th 11 7 92 Anton Marklund Marklund Motorsport Volkswagen Polo 7th 9th 5th 4th 10 8 1 Timur Timerzyanov Team Peugeot-Hansen Peugeot 208 T16 6th 5th 8th 10th 9 9 26 {{flagicon|GBR}} Andy Scott Albatec Racing Peugeot 208 11th 10th 9th 9th 8 
46466350 2015 Drama Desk Awards Outstanding Actor in a Musical Robert Fairchild {{won}} 2015 Drama Desk Awards Outstanding Actress in a Musical Leanne Cope {{nominated}} 2015 Drama Desk Awards Outstanding Featured Actor in a Musical Max von Essen {{nominated}} 2015 Drama Desk Awards Outstanding Book of a Musical Craig Lucas {{nominated}} 2015 Drama Desk Awards Outstanding Costume Design Bob Crowley {{nominated}} 
46490537 1 22 Joey Logano Team Penske Ford 21.089 21.303 21.248 2 11 Denny Hamlin Joe Gibbs Racing Toyota 21.121 21.080 21.294 3 41 Kurt Busch Stewart-Haas Racing Chevrolet 20.987 21.297 21.326 4 47 A. J. Allmendinger JTG Daugherty Racing Chevrolet 21.136 21.294 21.332 5 4 Kevin Harvick Stewart-Haas Racing Chevrolet 20.840 21.152 21.356 
46537850 1 24 Jeff Gordon Hendrick Motorsports Chevrolet 49.171 49.160 2 5 Kasey Kahne Hendrick Motorsports Chevrolet 49.577 49.441 3 21 Ryan Blaney Wood Brothers Racing Ford 49.508 49.460 5 48 Jimmie Johnson Hendrick Motorsports Chevrolet 49.601 49.507 6 14 Tony Stewart Stewart-Haas Racing Chevrolet 49.634 49.509 
46598577 1 July 2015 DF {{flagicon|ENG}} Sean Clohessy Colchester United Free transfer  1 July 2015 MF {{flagicon|ENG}} Sammy Moore AFC Wimbledon Free transfer  1 July 2015 MF {{flagicon|ENG}} Blair Turgott Coventry City Free transfer  6 July 2015 FW {{flagicon|ENG}} Ollie Palmer Mansfield Town Undisclosed  27 July 2015 GK {{Flagicon|AUS}} Alex Cisak Burnley Undisclosed  
46609066 1 22 Joey Logano Team Penske Ford 28.139 28.251 28.067 2 5 Kasey Kahne Hendrick Motorsports Chevrolet 28.294 28.262 28.138 3 2 Brad Keselowski Team Penske Ford 28.240 28.198 28.146 5 19 Carl Edwards Joe Gibbs Racing Toyota 28.075 28.146 28.187 6 4 Kevin Harvick Stewart-Haas Racing Chevrolet 28.201 28.234 28.228 
46627463 Dec. 19 New Mexico Bowl University Stadium
Albuquerque, NM
2:00 pm ESPN Arizona Wildcats (6–6)
New Mexico Lobos (7–5) Pac-12
Mountain West Arizona 45
New Mexico 37 Las Vegas Bowl Sam Boyd Stadium
Whitney, NV
3:30 pm ABC #22 Utah Utes (9–3)
BYU Cougars (9–3) Pac-12
Independent Utah 35
BYU 28 Camellia Bowl Cramton Bowl
Montgomery, AL
5:30 pm ESPN Appalachian State Mountaineers (10–2)
Ohio Bobcats (8–4) Sun Belt
MAC Appalachian State 31
Ohio 29 Cure Bowl Orlando Citrus Bowl Stadium
Orlando, FL
7:00 pm CBSSN San Jose State Spartans (5–7)
Georgia State Panthers (6–6) Mountain West
Sun Belt San Jose State 27
Georgia State 16 New Orleans Bowl Mercedes-Benz Superdome
New Orleans, LA
9:00 pm ESPN Louisiana Tech Bulldogs (8–4)
Arkansas State Red Wolves (9–3) C-USA
Sun Belt Louisiana Tech 47
Arkansas State 28 
46651354 "Their Hearts Were Full of Spring" 1964 Little Deuce Coupe The Four Freshmen {{refn|group=nb|As "[[A Young Man is Gone]]" with new lyrics by [[Mike Love]].{{sfn|Lambert|2007|p=337}} }} "Louie Louie" 1964 Shut Down Volume 2 The Kingsmen {{sfn|Lambert|2007}} "The Little Old Lady from Pasadena" 1964 Beach Boys Concert Jan and Dean {{sfn|Lambert|2007}} "Monster Mash" 1964 Beach Boys Concert Bobby (Boris) Pickett and the Crypt-Kickers {{sfn|Lambert|2007}} "Papa-Oom-Mow-Mow" 1964 Beach Boys Concert The Rivingtons {{refn|group=nb|An additional version appears on ''[[Beach Boys' Party!]]''.{{sfn|Lambert|2007}} }} 
46662874 2005–06 HC Davos NLA  7 0 0 0 2  — — — 2006–07 HC Davos NLA  26 3 3 6 12  17 1 0 2007–08 HC Davos NLA  44 7 5 12 36  12 1 0 2008–09 HC Davos NLA  45 3 12 15 38  20 2 2 2009–10 HC Davos NLA  40 8 5 13 30  4 0 0 
46679168 1 27 Paul Menard Richard Childress Racing Chevrolet 28.434 28.470 2 16 Greg Biffle Roush Fenway Racing Ford 28.427 28.472 3 55 David Ragan Michael Waltrip Racing Toyota 28.595 28.564 4 15 Clint Bowyer Michael Waltrip Racing Toyota 28.682 28.678 5 3 Austin Dillon Richard Childress Racing Chevrolet 28.777 28.697 
46707071 1963
({{detailsLink|Rugby union at the 1963 South Pacific Games}}) I Suva {{ru-rt|Fiji|colonial}} round
robin {{ru|Tonga}} {{ru|Samoa|name=Western Samoa}}  1969
({{detailsLink|Rugby union at the 1969 South Pacific Games}}) III Port Moresby {{ru-rt|Fiji|colonial}} 88–3 {{ru|Papua New Guinea|1965}} {{ru|New Caledonia|1853}}  1971
({{detailsLink|Rugby union at the 1971 South Pacific Games}}) IV Papeete {{ru-rt|Samoa|name=Western Samoa}} 23–9 {{flagdeco|New Zealand}} {{nrut|Cook Islands}} {{ru|Tahiti|1946}}  1979
({{detailsLink|Rugby union at the 1979 South Pacific Games}}) VI Suva {{ru-rt|Tonga}} 6–3 {{ru|Fiji}} {{ru|New Caledonia|1853}}  1983
({{detailsLink|Rugby union at the 1983 South Pacific Games}}) VII Apia {{ru-rt|Fiji}} 18–10 {{ru|Samoa|name=Western Samoa}} {{ru|Tonga}}  
4671046 1983 December 19, 1982 Val Gardena, Italy Combined 1984 December 9, 1983 Val-d'Isère, France Downhill 1984 December 10, 1983 Val-d'Isère, France Combined 1986 February 22, 1986 Åre, Sweden Downhill 1987 January 4, 1987 Laax, Switzerland Downhill 
46743237 1 20 Matt Kenseth Joe Gibbs Racing Toyota 27.913 27.869 27.799 2 22 Joey Logano Team Penske Ford 28.281 28.074 28.003 3 19 Carl Edwards Joe Gibbs Racing Toyota 28.116 27.954 28.018 4 16 Greg Biffle Roush Fenway Racing Ford 28.131 28.080 28.092 5 11 Denny Hamlin Joe Gibbs Racing Toyota 28.175 28.070 28.124 
46761377 Julian Edelman WR TE Tyler Higbee Trent Brown LT LT Andrew Whitworth Joe Thuney LG LG Rodger Saffold Shaq Mason RG RG Austin Blythe Marcus Cannon RT RT Rob Havenstein 
46780384 1 {{dts|1=2013|2=4|3=4|format=md}} Royal Challengers Bangalore Bengaluru Lost by 2 runs Scorecard 2 {{dts|1=2013|2=4|3=6|format=md}} Chennai Super Kings Chennai Won by 9 runs; MoM – {{flagicon|Trinidad and Tobago}} Kieron Pollard 57* (38) Scorecard 3 {{dts|1=2013|2=4|3=9|format=md}} Delhi Daredevils Mumbai Won by 44 runs; MoM – {{flagicon|IND}} Dinesh Karthik 86 (48) Scorecard 4 {{dts|1=2013|2=4|3=13|format=md}} Pune Warriors India Mumbai Won by 41 runs; MoM – {{flagicon|IND}} Rohit Sharma 62* (32) Scorecard 5 {{dts|1=2013|2=4|3=17|format=md}} Rajasthan Royals Jaipur Lost by 87 runs Scorecard 
46780583 1 {{dts|1=2014|2=4|3=16|format=md}} Kolkata Knight Riders Abu Dhabi Lost by 41 runs Scorecard 2 {{dts|1=2014|2=4|3=19|format=md}} Royal Challengers Bangalore Dubai Lost by 7 wickets Scorecard 3 {{dts|1=2014|2=4|3=25|format=md}} Chennai Super Kings Dubai Lost by 7 wickets Scorecard 4 {{dts|1=2014|2=4|3=27|format=md}} Delhi Daredevils Sharjah Lost by 6 wickets Scorecard 5 {{dts|1=2014|2=4|3=30|format=md}} Sunrisers Hyderabad Abu Dhabi Lost by 15 runs Scorecard 
46797902 1 11 Denny Hamlin Joe Gibbs Racing Toyota 22.553 22.463 22.483 3 42 Kyle Larson Chip Ganassi Racing Chevrolet 22.506 22.562 22.545 4 20 Matt Kenseth Joe Gibbs Racing Toyota 22.711 22.609 22.546 5 22 Joey Logano Team Penske Ford 22.553 22.593 22.557 6 4 Kevin Harvick Stewart-Haas Racing Chevrolet 22.606 22.627 22.571 
46813443 08 Aliganj South Mohan Singh INC SC 10 Allahabad City East Ganesh Prasad Jaiswal INC SC 46 Banda Pahalwan Singh INC SC 50 Bansgaon South East Bhrigunath INC SC 59 Basti East Ansman Singh INC SC 
46830115 Michael Luisa Bolghiran 19 {{n/a}} Cologne Episode 2 24 (quit) Thomas Laura Penelope Baumgärtner 19 {{height|m=1.71}} Berg, Switzerland Episode 2 23 (quit) Thomas Saskia Böhlcke 18 {{height|m=1.74}} Hanover Episode 2 22-21 Michael Fred Riss 17 {{height|m=1.75}} Ratzeburg Episode 2 22-21 Michael Sophie Schweer 19 {{height|m=1.76}} Ahlen Episode 3 20-19 
46836988 1972 {{sortname|Reggie|Dunnavant}} Richmond  1974 {{sortname|Mike|Ramsey|dab=infielder}} Appalachian State  1975 {{sortname|George|Weicker}} Davidson  1978 {{sortname|Wayne|Tolleson}} Western Carolina  1979 {{sortname|Randy|Ingle}} Appalachian State  
4683857 1967 Nancy Greene Marielle Goitschel Annie Famose 1968–69 Gertrud Gabl Florence Steurer Wiltrud Drexel 1975–76 Rosi Mittermaier Lise-Marie Morerod Monika Kaserer 1981–82 Erika Hess Irene Epple Christin Cooper 1984–85 Michela Figini Brigitte Oertli Maria Walliser 
46868507 2 5 4 Kevin Harvick Stewart-Haas Racing Chevrolet 160 43 3 9 48 Jimmie Johnson Hendrick Motorsports Chevrolet 160 41 4 11 22 Joey Logano Team Penske Ford 160 40 5 1 41 Kurt Busch Stewart-Haas Racing Chevrolet 160 39 6 19 20 Matt Kenseth Joe Gibbs Racing Toyota 160 38 
4688926 1978–79 Brandon Wheat Kings WHL &nbsp; 20 11 11 22 12 &nbsp; — — — 1979–80 Kitchener Rangers OMJHL &nbsp; 19 3 9 12 35 &nbsp; — — — 1979–80 Kingston Canadians OMJHL &nbsp; 43 30 17 47 36 &nbsp; 3 0 2 1981–82 Edmonton Oilers NHL &nbsp; 4 0 0 0 0 &nbsp; — — — 1981–82 Toronto Maple Leafs NHL &nbsp; 11 3 4 7 8 &nbsp; — — — 
46892747 1969 {{sortname|Ahmed|Arab}} {{flagcountry|Algeria}} CR Belcourt  1970 {{sortname|Hacène|Lalmas}} {{flagcountry|Algeria}} CR Belcourt  1971 {{sortname|Ali|Benfadah}} {{flagcountry|Algeria}} MC Alger  1972 {{sortname|Hadj|Boufermès}} {{flagcountry|Algeria}} Hamra Annaba  1973 {{sortname|Smaïl|Khabatou}} {{flagcountry|Algeria}} MC Alger  
46935956 Andrew Ebbett  SC Bern {{start date|2015|06|24}} two-year contract David Warsofsky Boston Bruins  {{start date|2015|07|01}} 1 year/$600,000 Sergei Plotnikov Lokomotiv Yaroslavl  {{start date|2015|07|01}} 1 year/$925,000 Kael Mouillierat New York Islanders  {{start date|2015|07|01}} 1 year/$575,000 Steven Oleksy Washington Capitals  {{start date|2015|07|01}} 1 year/$575,000 
46944532 1 5 Kasey Kahne Hendrick Motorsports Chevrolet 35.909 35.703 35.645 2 4 Kevin Harvick Stewart-Haas Racing Chevrolet 35.748 35.645 35.712 3 2 Brad Keselowski Team Penske Ford 36.205 35.845 35.741 4 19 Carl Edwards Joe Gibbs Racing Toyota 36.064 35.812 35.809 6 24 Jeff Gordon Hendrick Motorsports Chevrolet 36.526 35.799 35.823 
4700098 2007 GB 16 39 31 79.5 53 48 48 100 141 2008 GB 16 34 27 79.4 53 46 46 100 127 2009 GB 16 36 27 75.0 52 49 48 98.0 129 2010 GB 16 28 22 78.6 56 46 46 100 112 2011 GB 16 28 24 85.7 58 69 68 98.6 140 
4701364 1982–83 Calgary Flames NHL &nbsp; 22 1 4 5 25 &nbsp; 9 0 2 1983–84 Calgary Flames NHL &nbsp; 72 9 23 32 97 &nbsp; 11 1 0 1984–85 Calgary Flames NHL &nbsp; 70 9 30 39 67 &nbsp; 4 1 0 1985–86 Calgary Flames NHL &nbsp; 77 11 21 32 81 &nbsp; 22 1 6 1986–87 Calgary Flames NHL &nbsp; 79 7 33 40 111 &nbsp; 3 1 0 
47028315 1 18 April Rajasthan Royals Cape Town Won by 75 runs, MoM – {{flagicon|IND}} Rahul Dravid 66 (48) Scorecard 3 22 April Deccan Chargers Cape Town Lost by 24 runs Scorecard 4 24 April Kings XI Punjab Durban Lost by 7 wickets Scorecard 6 29 April Kolkata Knight Riders Durban Won by 5 Wickets, MoM – {{flagicon|SAF}} Mark Boucher 25* (13) Scorecard 7 1 May Kings XI Punjab Durban Won by 8 runs Scorecard 
47030884 1 {{dts|1=2015|2=4|3=8|format=mdy}} Mumbai Indians Kolkata Won by 7 wickets, MoM - {{flagicon|South Africa}} Morne Morkel 2/18 (4 Overs) Scorecard 2 {{dts|1=2015|2=4|3=11|format=mdy}} Royal Challengers Bangalore Kolkata Lost by 3 wickets Scorecard 3 {{dts|1=2015|2=4|3=18|format=mdy}} Kings XI Punjab Pune Won by 4 wickets, MoM - {{flagicon|Jamaica}} Andre Russell 66(36) and 2/39 (4 Overs) Scorecard 4 {{dts|1=2015|2=4|3=20|format=mdy}} Delhi Daredevils New Delhi Won by 6 wickets, MoM - {{flagicon|India}} Umesh Yadav 2/18 (4 Overs) Scorecard 5 {{dts|1=2015|2=4|3=22|format=mdy}} Sunrisers Hyderabad Visakhapatnam Lost by 16 runs (D/L) Scorecard 
47030952 1 19 April Rajasthan Royals Delhi Won by 9 wickets, MoM - {{flagicon|Sri Lanka}} Farveez Maharoof 2/11 (4 overs) 2 22 April Deccan Chargers Hyderabad Won by 9 wickets, MoM - {{flagicon|India}} Virender Sehwag 94* (41) 3 27 April Kings XI Punjab Mohali Lost by 4 wickets 4 30 April Royal Challengers Bangalore Delhi Won by 10 runs, MoM - {{flagicon|Australia}} Glenn McGrath 4/29 (4 overs) 5 2 May Chennai Super Kings Chennai Won by 8 wickets, MoM - {{flagicon|India}} Virender Sehwag 1/21 (2 overs) and 71 (41) 
47030958 1 {{dts|1=2013|2=4|3=3|format=dmy}} Kolkata Knight Riders Kolkata Lost by 6 wickets KKR vs. DD 2 {{dts|1=2013|2=4|3=6|format=dmy}} Rajasthan Royals New Delhi Lost by 5 runs DD vs. RR 3 {{dts|1=2013|2=4|3=6|format=dmy}} Mumbai Indians Mumbai Lost by 44 runs MI vs. DD 4 {{dts|1=2013|2=4|3=12|format=dmy}} Sunrisers Hyderabad New Delhi Lost By 3 wickets DD vs. SH 5 {{dts|1=2013|2=4|3=16|format=dmy}} Royal Challengers Bangalore Bengaluru Scores level; Lost Super Over by 4 runs RCB vs. DD 
47030962 1 {{dts|1=2014|2=4|3=17|format=dmy}} Royal Challengers Bangalore Sharjah Lost by 8 wickets Score Card 2 {{dts|1=2014|2=4|3=19|format=dmy}} Kolkata Knight Riders Dubai Won by 4 wickets; MoM – {{flagicon|RSA}} JP Duminy 52* (35) Score Card 3 {{dts|1=2014|2=4|3=21|format=dmy}} Chennai Super Kings Abu Dhabi Lost by 93 runs Score Card 4 {{dts|1=2014|2=4|3=25|format=dmy}} Sunrisers Hyderabad Dubai Lost by 5 runs Score Card 5 {{dts|1=2014|2=4|3=27|format=dmy}} Mumbai Indians Sharjah Won by 6 wickets; MoM – {{flagicon|IND}} Murali Vijay 40 (34) Score Card 
47031106 1 19 April Chennai Super Kings Mohali Lost by 33 runs 2 21 April Rajasthan Royals Jaipur Lost by 6 wickets 3 25 April Mumbai Indians Mohali Won by 66 runs, MoM&nbsp;– {{flagicon|Sri Lanka}} Kumar Sangakkara&nbsp;– 94 (56) 4 27 April Delhi Daredevils Mohali Won by 4 wickets, MoM&nbsp;– {{flagicon|Australia}} Simon Katich&nbsp;– 75 (52) 5 1 May Deccan Chargers Hyderabad Won by 7 wickets, MoM&nbsp;– {{flagicon|Australia}} Shaun Marsh&nbsp;– 84* (62) 
47031108 1 19 April Delhi Daredevils Cape Town Lost by 10 Wickets (D/L Method) 2 21 April Kolkata Knight Riders Durban Lost by 11 runs (D/L Method) 3 24 April Royal Challengers Bangalore Durban Won by 7 wickets, MoM - {{flagicon|England}} Ravi Bopara 84 (59) 4 26 April Rajasthan Royals Cape Town Won by 27 runs, MoM - {{flagicon|Sri Lanka}} Kumar Sangakkara 5 29 April Mumbai Indians Durban Won by 3 runs, MoM - {{flagicon|Sri Lanka}} Kumar Sangakkara 45* (44) 
47031110 1 13 March Delhi Daredevils Mohali Lost by 5 Wickets 2 16 March Royal Challengers Bangalore Bengaluru Lost by 8 Wickets 3 19 March Deccan Chargers Cuttack Lost by 6 runs 4 21 March Chennai Super Kings Chennai Match tied, Won (In The Superover), MoM - {{flagicon|South Africa}} Juan Theron 2/17(4 overs),2 wkts in the Super-Over 5 24 March Rajasthan Royals Mohali Lost by 31 runs 
47031113 1 10 April Pune Warriors India Mumbai Lost by 7 wickets 2 13 April Chennai Super Kings Mohali Won by 6 wickets MoM&nbsp;– {{flagicon|India}} Paul Valthaty&nbsp;– 120* (63) 3 16 April Deccan Chargers Hyderabad Won by 8 wickets MoM&nbsp;– {{flagicon|India}} Paul Valthaty&nbsp;– 75 (47) and 4/29 (4 overs) 4 21 April Rajasthan Royals Mohali Won by 48 runs MoM&nbsp;– {{flagicon|Australia}} Shaun Marsh&nbsp;– 71 (42) 5 23 April Delhi Daredevils Delhi Lost by 29 runs 
47031119 1 {{dts|1=2013|2=4|3=7|format=mdy}} Pune Warriors India Pune Won By 8 Wickets MoM&nbsp;– {{flagicon|India}} Manan Vohra 43* (28) Score Board 2 {{dts|1=2013|2=4|3=10|format=mdy}} Chennai Super Kings Mohali Lost by 10 Wickets Score Board 3 {{dts|1=2013|2=4|3=14|format=mdy}} Rajasthan Royals Jaipur Lost by 6 wickets  4 {{dts|1=2013|2=4|3=16|format=mdy}} Kolkata Knight Riders Mohali Won by 4 Runs MoM&nbsp;– {{flagicon|India}} Manpreet Gony 42 (18) & 1-18  5 {{dts|1=2013|2=4|3=19|format=mdy}} Sunrisers Hyderabad Hyderabad Lost by 5 Wickets  
47031124 1 {{dts|1=2014|2=4|3=18|format=mdy}} Chennai Super Kings Abu Dhabi Won by 6 Wickets MoM&nbsp;– {{flagicon|AUS}} Glenn Maxwell 95 (43) Score Board 2 {{dts|1=2014|2=4|3=20|format=mdy}} Rajasthan Royals Sharjah Won by 7 Wickets MoM&nbsp;– {{flagicon|AUS}} Glenn Maxwell 89 (45) Score Board 3 {{dts|1=2014|2=4|3=22|format=mdy}} Sunrisers Hyderabad Sharjah Won by 72 Runs MoM&nbsp;– {{flagicon|AUS}} Glenn Maxwell 95 (43) Score Board 4 {{dts|1=2014|2=4|3=26|format=mdy}} Kolkata Knight Riders Abu Dhabi Won by 23 Runs MoM&nbsp;– {{flagicon|india}} Sandeep Sharma 3/21 (4 Overs) Score Board 5 {{dts|1=2014|2=4|3=28|format=mdy}} Royal Challengers Bangalore Dubai Won by 5 Wickets MoM&nbsp;– {{flagicon|india}} Sandeep Sharma 3/15 (3 Overs) Score Board 
47031125 1 {{dts|1=2015|2=4|3=10|format=mdy}} Rajasthan Royals Pune Lost by 26 runs Score Board 2 {{dts|1=2015|2=4|3=12|format=mdy}} Mumbai Indians Mumbai Won by 18 runs, MoM&nbsp;– {{flagicon|AUS}} George Bailey 61 (32) Score Board 3 {{dts|1=2015|2=4|3=15|format=mdy}} Delhi Daredevils Pune Lost by 5 Wickets Score Board 4 {{dts|1=2015|2=4|3=18|format=mdy}} Kolkata Knight Riders Pune Lost by 4 Wickets Score Board 5 {{dts|1=2015|2=4|3=21|format=mdy}} Rajasthan Royals Ahmedabad Match Tied, Won Super Over, MoM&nbsp;– {{flagicon|AUS}} Shaun Marsh 65 (40) Score Board 
47055415 1 11 18 Kyle Busch Joe Gibbs Racing Toyota 110 47 2 2 41 Kurt Busch Stewart-Haas Racing Chevrolet 110 43 3 6 15 Clint Bowyer Michael Waltrip Racing Toyota 110 42 4 17 4 Kevin Harvick Stewart-Haas Racing Chevrolet 110 40 5 19 22 Joey Logano Team Penske Ford 110 39 
47071418 Joseph R. Smallwood Bonavista North Liberal Clyde Brown Bonavista South Liberal Herbert L. Pottle Carbonear-Bay de Verde Liberal Gordon Janes Fogo Liberal John R. Courage Fortune Bay and Hermitage Liberal 
47088719 Aetolia-Akarnania Western Greece 60.90 39.10 Athens A Attica 53.21 46.79 Athens B Attica 58.06 41.94 Chalkidiki Central Macedonia 59.15 40.85 Cyclades South Aegean 62.73 37.27 
4711045 1999–00 SaPKo Mestis  42 18 16 34 34  — — — 2000–01 TuTo Mestis  41 20 20 40 22  — — — 2005–06 Hartford Wolf Pack AHL  74 30 40 70 34  6 2 3 2005–06 New York Rangers NHL  6 2 0 2 0  — — — 2006–07 Hartford Wolf Pack AHL  54 20 26 46 30  7 2 6 
47115212 2 12 48 Jimmie Johnson Hendrick Motorsports Chevrolet 161 43 3 35 11 Denny Hamlin Joe Gibbs Racing Toyota 161 42 4 34 4 Kevin Harvick Stewart-Haas Racing Chevrolet 161 40 5 28 41 Kurt Busch Stewart-Haas Racing Chevrolet 161 39 6 23 24 Jeff Gordon Hendrick Motorsports Chevrolet 161 38 
47127188 Antonov An-24 {{flag|USSR}} Military transport aircraft V 1 V.I.P Transport. Known as Balaka. Antonov An-26 {{flag|USSR}} Military transport aircraft  2  Cessna T-37 Tweet {{flag|USA}} Jet Trainer B 11 Retired from active service. Replaced with Hongdu K-8W jet trainers. Douglas Dakota {{flag|USA}} Military transport aircraft  1 Ex Indian Air Force. Fouga CM.170 Magister {{flag|France}} Jet Trainer  8 Retired in favor of more capable Aero L-39 Albatros. 
47172013 1 42 Kyle Larson Chip Ganassi Racing Chevrolet 29.583 182.537 2 2 Brad Keselowski Team Penske Ford 29.729 181.641 3 24 Jeff Gordon Hendrick Motorsports Chevrolet 29.938 180.373 4 22 Joey Logano Team Penske Ford 29.983 180.102 6 48 Jimmie Johnson Hendrick Motorsports Chevrolet 30.035 179.790 
47177864 {{sort|1|October}} 2015.1{{anchor|2010–11}}2010 {{flag|Albania}} Erjon Mustafaj Shkumbini Peqin FW  {{sort|1|September}} 2015.1{{anchor|2011–12}}2011 {{flag|Albania}} Gilman Lika Tirana MF  {{sort|1|April}} 2015.1{{anchor|2012–13}}2013 {{flag|Albania}} Gilman Lika Tirana MF  {{sort|1|April}} 2015.1{{anchor|2013–14}}2014 {{flag|Albania}} Ilion Lika Tirana GK  {{sort|3|October}} 2015.3{{anchor|2014–15}}2014 {{flag|Albania}} Elis Bakaj Tirana MF  
47198666 Ross Barbour Bonavista South Liberal John T. Cheeseman Burgeo and La Poile Liberal Isaac Mercer Fogo Liberal John R. Courage Fortune Bay and Hermitage Liberal Raymond W. Guy Grand Falls Liberal 
47202766 1 Eoin Conway Cork 1-12 15 Limerick 2 Eoin Guinan Kilkenny 0-11 11 Galway 3 Eoin Guinan Kilkenny 0-9 9 Wexford 4 Billy Beckett Kilkenny 2-2 8 Wexford 4 Eoin Guinan Kilkenny 0-8 8 Dublin 
47215231 William P. Saunders Bay de Verde Liberal Joseph R. Smallwood Bonavista North Liberal Ross Barbour Bonavista South Liberal Walter H. Hodder Burgeo and La Poile Liberal H.R.V. Earle Fortune Liberal 
47218856 QB Albert Hill 5'7" 164 Sr. Washington, Georgia Georgia Tech HB Everett Strupper 5'7" 148 Sr. Columbus, Georgia Georgia Tech HB Buck Flowers 5'7" 140 Fr. Sumter, South Carolina Davidson FB Joe Guyon 5'11" 186 Jr. Magdalena, New Mexico Georgia Tech E Moon Ducote 5'10" 187 Jr. Cottonport, Louisiana Auburn 
47230711 1 19 Carl Edwards Joe Gibbs Racing Toyota 28.581 28.266 28.179 2 22 Joey Logano Team Penske Ford 28.463 28.120 28.209 3 55 David Ragan Michael Waltrip Racing Toyota 28.413 28.255 28.209 4 18 Kyle Busch Joe Gibbs Racing Toyota 28.537 28.307 28.271 5 11 Denny Hamlin Joe Gibbs Racing Toyota 28.557 28.349 28.297 
47241015 Bawdsey Manor File:Bawdsey Manor - geograph.org.uk - 533542.jpg Bawdsey Victorian manor house built in 1886 most notable for the role it had to play in the development of radar during the Second World War, during its time as an Air Ministry research station. Grade II* listed building. Burgh Windmill File:Burgh Mill, Suffolk 2005.jpg Burgh Tower mill built in 1842 which has been converted to residential accommodation. Grade II listed building. Fort Green Mill, Aldeburgh File:Fort Green Mill, Aldeburgh.jpg Aldeburgh Tower mill built in 1824 which has been converted to residential accommodation. Framlingham Castle File:Franglingham Castle 01.jpg Framlingham Medieval castle established in 1148 with a curtain wall, an unusual feature at the time. Grade I listed building. Friston Windmill File:Friston Post Mill - geograph.org.uk - 1970480.jpg Friston Conserved post mill built in 1812. Grade II* listed building. 
47285693 1 19 Carl Edwards Joe Gibbs Racing Toyota 49.038 49.056 2 22 Joey Logano Team Penske Ford 48.830 49.143 3 55 David Ragan Michael Waltrip Racing Toyota 49.033 49.211 4 14 Tony Stewart Stewart-Haas Racing Chevrolet 48.505 49.228 5 42 Kyle Larson Chip Ganassi Racing Chevrolet 48.541 49.279 
47294670 {{gold medal}} Xie Siyi Diving Men's 1 m springboard {{dts|July 27}} {{gold medal}} He Chao Diving Men's 3 m springboard {{dts|July 31}} {{gold medal}} Shi Tingmao Diving Women's 3 m springboard {{dts|August 1}} {{gold medal}} Sun Yang Swimming Men's 400 m freestyle {{dts|August 2}} {{gold medal}} Qiu Bo Diving Men's 10 m platform {{dts|August 2}} 
47354472 1 18 Kyle Busch Joe Gibbs Racing Toyota 51.107 50.859 50.444 2 4 Kevin Harvick Stewart-Haas Racing Chevrolet 50.869 50.665 50.514 3 22 Joey Logano Team Penske Ford 51.201 50.720 50.608 4 3 Austin Dillon Richard Childress Racing Chevrolet 50.894 50.945 50.659 5 14 Tony Stewart Stewart-Haas Racing Chevrolet 50.762 50.826 50.667 
47355215 4 6 13 December 2015 &nbsp; Davos Sprint F &nbsp; Federico Pellegrino Baptiste Gros Sondre Turvoll Fossli Martin Johnsrud Sundby  5 7 19 December 2015 &nbsp; Toblach Sprint F &nbsp; Federico Pellegrino Simeon Hamilton Andrew Young Martin Johnsrud Sundby   12 5 January 2016 &nbsp; Oberstdorf Sprint C &nbsp; Emil Iversen Sergey Ustiugov Alexey Poltoranin Martin Johnsrud Sundby   13 6 January 2016 &nbsp; Oberstdorf 15&nbsp;km C Mass Start &nbsp; Alexey Poltoranin Dario Cologna Francesco De Fabiani Martin Johnsrud Sundby  8 17 16 January 2016 &nbsp; Planica Sprint F &nbsp; Federico Pellegrino Baptiste Gros Richard Jouve Martin Johnsrud Sundby  
4738997 Ami Mizuno Aya Hisakawa Karen Bernstein as Amy Kate Higgins Rei Hino Michie Tomizawa Katie Griffin as Raye Cristina Vee Makoto Kino Emi Shinohara Susan Roman as Lita Amanda Miller Minako Aino Rica Fukami Stephanie Morgenstern as Mina Cherami Leigh Mamoru Chiba Toru Furuya Vincent Corazza as Darien Robbie Daymond 
47419558 1 47 A. J. Allmendinger JTG Daugherty Racing Chevrolet 1:09.110 1:08.993 3 14 Tony Stewart Stewart-Haas Racing Chevrolet 1:09.390 1:09.187 4 4 Kevin Harvick Stewart-Haas Racing Chevrolet 1:09.296 1:09.222 5 24 Jeff Gordon Hendrick Motorsports Chevrolet 1:09.357 1:09.350 6 42 Kyle Larson Chip Ganassi Racing Chevrolet 1:09.494 1:09.477 
47430589 7 Bryan Herta 20.064 +0.364 169.737 Forsythe Racing 8 Paul Tracy 20.148 +0.448 169.029 Team Green 9 Cristiano da Matta 20.162 +0.462 168.912 Newman-Haas Racing 10 Tony Kanaan 20.187 +0.487 168.703 Mo Nunn Racing 11 Jimmy Vasser 20.191 +0.491 168.669 Patrick Racing 
47440980 1968 Indianapolis, Indiana Not in Top 4 0–2 1969 Lincolnwood, Illinois Third Place 3–2 1970 Lincolnwood, Illinois Champions 5–1 1971 Lincolnwood, Illinois Runner–Up 3–2 1972 Gary, Indiana Not in Top 4 0–2 
47441626 1973 Dover, Delaware Third Place 3–2 1974 Montgomery County, Pennsylvania Not in Top 4 1–2 1981 Dover, Delaware Not in Top 4 1–2 1984 Salisbury, Maryland Not in Top 4 0–2 1987 Georgetown, Delaware Not in Top 4 2–2 
47443692 1975 Aiea, Hawaii Not in Top 4 1–2 1977 Hilo, Hawaii Fourth Place 2–2 1979 Tucson, Arizona Not in Top 4 1–2 1982 Tucson, Arizona Third Place 3–2 1985 Tucson, Arizona Not in Top 4 2–2 
47451852 1970 San Juan Fourth Place 2–2 1973 San Juan Not in Top 4 1–2 1974 San Juan Not in Top 4 2–2 1982 San Juan Champions 5–0 1985 Carolina Runner–Up 4–2 
47453029 Canterbury-Bankstown Bulldogs National Rugby League Stadium Australia 1935 8 Cronulla-Sutherland Sharks National Rugby League Shark Park 1967 1 Manly-Warringah Sea Eagles National Rugby League Brookvale Oval 1947 8 Parramatta Eels National Rugby League Western Sydney Stadium 1947 4 Penrith Panthers National Rugby League Penrith Stadium 1967 2 
47482884 1981 Boardman, Ohio Champions 3–0 1982 Libertyville, Illinois Runner–Up 2–2 1983 Madison, Wisconsin Not in Top 4 0–3 1984 Fort Wayne, Indiana Not in Top 4 0–3 1986 Athens County, Ohio Runner–Up 2–2 
47484077 1982 Seaford, Delaware Not in Top 4 0–2 1983 Seaford, Delaware Fourth Place 1–3 1984 Wilmington, Delaware Third Place 3–2 1985 Salisbury, Maryland Runner–Up 3–2 1986 Waldorf, Maryland Champions 4–0 
47489496 2003 Bridgewater, Virginia US Final 4–1 2004 Tampa, Florida Champions 6–0 2005 Tarpon Springs, Florida Runner–Up 4–2 2006 Alexandria, Virginia Not in Top 4 1–3 2008 Mechanicsville, Virginia Not in Top 4 2–2 
47489986 1984 Pearl City, Hawaii Champions 3–0 1988 Hilo, Hawaii Runner–Up 3–2 1989 Pearl City, Hawaii Third Place 3–2 1990 Aiea, Hawaii Fourth Place 2–2 1991 Henderson, Nevada Runner–Up 4–2 
47491304 1 1 20 Matt Kenseth Joe Gibbs Racing Toyota 200 48 2 7 4 Kevin Harvick Stewart-Haas Racing Chevrolet 200 43 4 4 3 Austin Dillon Richard Childress Racing Chevrolet 200 41 5 2 11 Denny Hamlin Joe Gibbs Racing Toyota 200 39 6 3 19 Carl Edwards Joe Gibbs Racing Toyota 200 39 
47491941 1982 Vega Baja Third Place 2–2 1984 Yabucoa Runner–Up 2–2 1985 Isabela Not in Top 4 1–2 1986 Yabucoa Third Place 3–2 1987 Arroyo Not in Top 4 1–2 
47534708 1 Rafidah Aziz Deputy Minister of Finance 1977 Hussein Onn 2 Napsiah Omar Deputy Minister of Housing and Local Government 1982 Mahathir Mohamad 6 Siti Zaharah Sulaiman Deputy Minister in the Prime Minister's Department 1986 Mahathir Mohamad 8 Zaleha Ismail Deputy Minister of Transport 1987 Mahathir Mohamad (6) Siti Zaharah Sulaiman Deputy Minister of Public Enterprises 1990 Mahathir Mohamad 
47542010 N Family, oil on hemp cloth, by Koide Narashige
{{nihongo2|Nの家族（小出楢重筆　一九一九／油絵　麻布）}}
enu no kazoku (Koide Narashige hitsu 1919 abura-e mafu) {{sort|1919|1919}} Kurashiki Ohara Museum of Art  File:Koide Narashige - N Family.jpg {{convert|79.0|cm|in}} by {{convert|91.0|cm|in}} {{coord|34.5961746|N|133.77062178|E|display=inline|format=dms|type:landmark_region:JP_scale:10000|name=Ohara Museum of Art}}  Ukita Yoshie, colour on silk
{{nihongo2|絹本著色[[:ja:宇喜多能家|宇喜多能家]]像}}
kenpon chakushoku Ukita Yoshie zō {{sort|1524|1524}} Okayama Okayama Prefectural Museum  File:Ukita Yoshie (Okayama Prefectural Museum).jpeg  {{coord|34.668209|N|133.933863|E|display=inline|format=dms|type:landmark_region:JP_scale:10000|name=Okayama Prefectural Museum}}  Along the River During the Qingming Festival, colour on silk
{{nihongo2|絹本著色清明上河図〈趙浙筆／萬暦五年十月の年記がある〉}}
kenpon chakushoku seimei jōga zu {{sort|1368.1644|[[Ming dynasty]]}} Okayama Hayashibara Museum of Art one emakimono File:Along River Qingming Festival (Hayashibara Museum of Art).gif {{convert|28.7|cm|in}} by {{convert|576|cm|ftin}} {{coord|34.66358372|N|133.93324308|E|display=inline|format=dms|type:landmark_region:JP_scale:10000|name=Hayashibara Museum of Art}}  Jizō with the Ten Kings of Hell, colour on silk
{{nihongo2|絹本著色地蔵十王像}}
kenpon chakushoku Jizō jūō zu {{sort|1200-1392|late [[Goryeo]]}} Kasaoka {{nihongo|Nikkō-ji|日光寺}} Goryeo Buddhist painting File:Ksitigarbha with the Ten Kings of Hell (Nikkoji Kasaoka).jpg {{convert|117.1|cm|in}} by {{convert|59.2|cm|in}} {{coord|34.452170|N|133.511310|E|display=inline|format=dms|type:landmark_region:JP_scale:10000|name=Nikkōji}}  Mount Lu, ink on silk, by Yujian
{{nihongo2|絹本墨画廬山図〈玉澗筆／自賛がある〉}}
kenpon bokuga rosan zu (Gyokkan hitsu) {{sort|1127.1279|[[Southern Song]]}} Okayama Okayama Prefectural Museum of Art  
47554184 1 11 Denny Hamlin Joe Gibbs Racing Toyota 14.760 14.764 14.602 2 18 Kyle Busch Joe Gibbs Racing Toyota 14.679 14.682 14.618 3 19 Carl Edwards Joe Gibbs Racing Toyota 14.849 14.742 14.686 4 55 David Ragan Michael Waltrip Racing Toyota 14.682 14.788 14.708 5 22 Joey Logano Team Penske Ford 14.897 14.780 14.721 
47563962 1962 New London, Ohio Third Place 0–1 1963 Gary, Indiana Third Place 1–1 1964 Des Moines, Iowa Third Place 0–1 1965 Merrillville, Indiana Fourth Place 1–2 1966 Dayton, Ohio Not in Top 4 0–2 
47564622 1965 Norwich, Connecticut Third Place 1–1 1973 Oxon Hill, Maryland Runner–Up 3–2 1974 Berwick, Pennsylvania Not in Top 4 1–2 1976 New Castle, Delaware Not in Top 4 1–2 1979 Auburn, Maine Third Place 2–2 
47566410 1962 Fort Lauderdale, Florida Third Place 0–1 1964 Brenham, Texas Runner–Up 1–1 1965 El Campo, Texas Runner–Up 2–1 1966 Elkton, Maryland Third Place 2–1 1969 Louisville, Kentucky Not in Top 4 0–2 
47570653 Thomas G. Rideout Baie Verte-White Bay Liberal W. George Cross Bonavista North Progressive Conservative Roger Simmons Burgeo-Bay d'Espoir Liberal Patrick J. Canning Burin-Placentia West Liberal Rod Moores Carbonear Liberal Reform 
47572247 1964 Superior, Arizona Third Place 0–1 1976 Aiea, Hawaii Runner–Up 3–2 1978 Kaneohe, Hawaii Not in Top 4 1–2 1980 Kaneohe, Hawaii Runner–Up 4–2 1991 Pearl City, Hawaii Runner–Up 3–2 
476152 2004 Victoria Rowell The Young and the Restless CBS  2004 Tracey Ross Passions NBC  2004 Tamara Tunie As the World Turns CBS  2004 Tonya Williams The Young and the Restless CBS  2005 Victoria Rowell The Young and the Restless CBS  
47620965 Match 1 21 May {{cr|JER}} Peter Gough {{cr|OMA}} Ajay Lalcheta Grainville Cricket Ground, Saint Saviour No result Match 2 21 May {{cr|NGA}} Kunle Adegbola {{cr|TAN}} Shaheed Dhanani Farmers Cricket Club Ground, Saint Martin {{cr|NGA}} by 6 wickets Match 3 21 May {{cr|GUE}} Jamie Nussbaumer {{cr|VAN}} Andrew Mansale FB Playing Fields, Saint Clement {{cr|GUE}} by 5 runs (DLS) Match 4 22 May {{cr|JER}} Peter Gough {{cr|VAN}} Andrew Mansale Grainville Cricket Ground, Saint Saviour {{cr|JER}} by 102 runs Match 5 22 May {{cr|GUE}} Jamie Nussbaumer {{cr|TAN}} Shaheed Dhanani Farmers Cricket Club Ground, Saint Martin {{cr|GUE}} by 8 wickets 
47630977 1993 Masaaki Sawanobori Shimizu S-Pulse MF {{flagu|Japan}}  1994 Kazuaki Tasaka Bellmare Hiratsuka MF {{flagu|Japan}}  1998 Shinji Ono Urawa Red Diamonds MF {{flagu|Japan}}  2001 Koji Yamase Consadole Sapporo MF {{flagu|Japan}}  2006 Jungo Fujimoto Shimizu S-Pulse MF {{flagu|Japan}}  
4766275 1 John Steffensen Australia 2 5 1 ?.? 45.05 s Q PB 3 Lansford Spence Jamaica 1 5 1 ?.? 45.32 s Q  4 Martyn Rooney England 1 3 2 ?.? 45.35 s Q PB 5 Alleyne Francique Grenada 2 3 2 ?.? 45.36 s Q SB 5 California Molefe Botswana 3 3 2 ?.? 45.36 s Q FS 1 
476738 2003 Kirk Franklin  2003 Mary Mary  2004 Donnie McClurkin  2004 Shirley Caesar  2004 Byron Cage  
47676381 1 2 Brad Keselowski Team Penske Ford 27.482 27.442 27.492 2 41 Kurt Busch Stewart-Haas Racing Chevrolet 27.396 27.590 27.691 3 4 Kevin Harvick Stewart-Haas Racing Chevrolet 27.526 27.540 27.718 4 22 Joey Logano Team Penske Ford 27.417 27.541 27.733 5 24 Jeff Gordon Hendrick Motorsports Chevrolet 27.435 27.607 27.753 
4771208 1980–81 Saskatoon Blades WHL  66 15 27 42 97  — — — 1981–82 Saskatoon Blades WHL  71 27 29 56 135  5 0 1 1982–83 Saskatoon Blades WHL  71 35 59 94 42  6 1 3 1983–84 Nova Scotia Voyageurs AHL  56 13 12 25 55  12 2 8 1984–85 Sherbrooke Canadiens AHL  70 22 28 50 109  17 9 8 
47715302 Barking and Dagenham 1986 {{Composition bar|5|48|hex={{SDP–Liberal Alliance/meta/color}}}} {{no2|Opposition}} {{Composition bar|0|51|hex={{Liberal Democrats (UK)/meta/color}}}} Barnet 1964 {{Composition bar|6|63|hex={{Liberal Party (UK)/meta/color}}}} {{no2|3rd Party}} {{Composition bar|0|63|hex={{Liberal Democrats (UK)/meta/color}}}} Bexley 1994 {{Composition bar|14|62|hex={{Liberal Democrats (UK)/meta/color}}}} {{no2|3rd Party}} {{Composition bar|0|62|hex={{Liberal Democrats (UK)/meta/color}}}} Brent 2006 {{Composition bar|27|63|hex={{Liberal Democrats (UK)/meta/color}}}} {{yes2|Joint control<br /><small>with Conservatives</small>}} {{Composition bar|0|63|hex={{Liberal Democrats (UK)/meta/color}}}} Bromley 1998 {{Composition bar|27|60|hex={{Liberal Democrats (UK)/meta/color}}}} {{yes2|Joint control<br /><small>with Labour</small>}} {{Composition bar|0|60|hex={{Liberal Democrats (UK)/meta/color}}}} 
47722974 1983 Naples, Florida Not Yet Created Orange Park, Florida Tampa, Florida 1985 Brookfield, Illinois Not Yet Created Des Moines, Iowa Williamsport, Pennsylvania 1986 Tampa, Florida Not Yet Created Jenison, Michigan Tallmadge, Ohio 1988 Naples, Florida Not Yet Created Tigard, Oregon Portland, Maine 2001 Maunabo, Puerto Rico Naples, Florida {{flagicon|California}} Glendale, S. California Waldorf, Maryland 
47750198 1 22 Joey Logano Team Penske Ford 21.158 21.170 21.349 2 20 Matt Kenseth Joe Gibbs Racing Toyota 20.883 21.141 21.368 3 2 Brad Keselowski Team Penske Ford 21.084 21.366 21.369 4 18 Kyle Busch Joe Gibbs Racing Toyota 21.077 21.285 21.437 5 55 David Ragan Michael Waltrip Racing Toyota 21.173 21.318 21.458 
47773856 2018 Santo Domingo Open Rosario Maddaloni 21–13, 19–21, 21–18 {{gold1}} Winner 2017 Santo Domingo Open Luis Ramon Garrido 12–21, 21–16, 21–12 {{gold1}} Winner 2017 Giraldilla International Rosario Maddaloni 21–15, 21–15 {{gold1}} Winner 2016 Giraldilla International Luka Wraber 21–16, 21–17 {{gold1}} Winner 2015 Suriname International Howard Shu 21–11, 21–16 {{gold1}} Winner 
47779573 23 February Push the Sky Away Nick Cave and the Bad Seeds  2 March Push the Sky Away Nick Cave and the Bad Seeds  16 March The Next Day David Bowie  23 March The Next Day David Bowie  30 March The Next Day David Bowie  
47795101 1 6 Chaz Mostert Prodrive Racing Australia Ford FG X Falcon 1:08.7165  2 5 Mark Winterbottom Prodrive Racing Australia Ford FG X Falcon 1:08.9069 + 0.1904s 4 18 Lee Holdsworth Charlie Schwerkolt Racing Holden VF Commodore 1:09.0200 + 0.3035s 6 14 Fabian Coulthard Brad Jones Racing Holden VF Commodore 1:09.1058 + 0.3893s 7 97 Shane van Gisbergen Tekno Autosports Holden VF Commodore 1:09.1132 + 0.3967s 
47803923 1 51 Greg Murphy K-mart Racing Team 54 1hr 01min 24.3090sec 1 2 1 Mark Skaife Holden Racing Team 54 + 1.315 s 7 3 50 Jason Bright Team Brock 54 + 2.776 s 21 4 2 Todd Kelly Holden Racing Team 54 + 3.727 s 2 5 20 Jason Bargwanna Larkham Motor Sport 54 + 10.078 s 4 
47807501 1 4 Kevin Harvick Stewart-Haas Racing Chevrolet 28.675 188.317 2 22 Joey Logano Team Penske Ford 28.737 187.911 3 2 Brad Keselowski Team Penske Ford 28.750 187.826 5 3 Austin Dillon Richard Childress Racing Chevrolet 28.760 187.761 7 18 Kyle Busch Joe Gibbs Racing Toyota 28.893 186.896 
47883907 Neil Robertson 1–5 Ashley Hugill Cao Yupeng 3–5 Zhao Xintong Marco Fu 5–3 Hammad Miah Yu Delu 5–4 Liam Highfield Kurt Maflin 5–0 Jamie Curtis-Barrett 
47884393 Andrew Higginson 9–10 Nigel Bond Gerard Greene 10–9 Jimmy White Peter Ebdon 10–6 James Wattana Ben Woollaston 9–10 Chris Wakelin Robbie Williams 10–7 Gareth Allen 
47891647 1 13 20 Matt Kenseth Joe Gibbs Racing Toyota 300 47 2 7 11 Denny Hamlin Joe Gibbs Racing Toyota 300 43 3 8 22 Joey Logano Team Penske Ford 300 41 4 25 16 Greg Biffle Roush Fenway Racing Ford 300 41 5 1 19 Carl Edwards Joe Gibbs Racing Toyota 300 40 
47893461 1928 Birmingham Barons 4–0 Memphis Chicks 1937 Little Rock Travelers 4–3 Atlanta Crackers 1938 Atlanta Crackers 4–1–1 Nashville Vols 1939 Nashville Vols 4–3 Atlanta Crackers 1940 Nashville Vols 4–2 Atlanta Crackers 
47953727 1 20 Matt Kenseth Joe Gibbs Racing Toyota 2 11 Denny Hamlin Joe Gibbs Racing Toyota 3 19 Carl Edwards Joe Gibbs Racing Toyota 4 22 Joey Logano Team Penske Ford 5 48 Jimmie Johnson Hendrick Motorsports Chevrolet 
47993909 3 Mark Gorman {{flagicon|KAZ}} DF {{birth date and age2|df=yes|2013|11|2|1989|2|9}} Lokomotiv Astana 2012 55 1 5 Aleksandr Kislitsyn {{flagicon|KAZ}} DF {{birth date and age2|df=yes|2013|11|2|1986|3|8}} Tobol 2013 29 3 18 Alexei Eremenko {{flagicon|FIN}} MF {{birth date and age2|df=yes|2013|11|2|1983|3|24}} Rubin Kazan 2013 10 0 22 Kirill Shestakov {{flagicon|KAZ}} MF {{birth date and age2|df=yes|2013|11|2|1985|6|19}} Vostok 2011   24 Anton Zemlianukhin {{flagicon|KGZ}} MF {{birth date and age2|df=yes|2013|11|2|1988|12|11}} Aktobe 2013 4 1 
48062317 1 20 Matt Kenseth Joe Gibbs Racing Toyota 28.072 27.904 27.759 2 18 Kyle Busch Joe Gibbs Racing Toyota 28.057 28.074 27.957 3 22 Joey Logano Team Penske Ford 28.340 27.962 27.976 4 16 Greg Biffle Roush Fenway Racing Ford 28.351 28.134 27.987 5 11 Denny Hamlin Joe Gibbs Racing Toyota 28.379 28.128 27.992 
48127500  Theo Heemskerk Theo Heemskerk
(Prime Minister)
(1852–1932) 11 February 1908 –
29 August 1913 Anti-Revolutionary Party Theo Heemskerk
(T. Heemskerk)  Dirk Jan de Geer Jonkheer
Dirk Jan de Geer
(1870–1960) 4 August 1925 –
8 March 1926 Christian Historical Union Hendrikus Colijn
(Colijn I)  Hendrik van Boeijen Hendrik van Boeijen
(also Minister of General
Affairs 1940–1944)
(1889–1947) 24 June 1937 –
31 May 1944
{{ref_label|resigned|Res}} Christian Historical Union Hendrikus Colijn
(Colijn IV • V)  Hendrik van Boeijen Hendrik van Boeijen
(also Minister of General
Affairs 1940–1944)
(1889–1947) 24 June 1937 –
31 May 1944
{{ref_label|resigned|Res}} Christian Historical Union Dirk Jan de Geer
(De Geer II)  Hendrik van Boeijen Hendrik van Boeijen
(also Minister of General
Affairs 1940–1944)
(1889–1947) 24 June 1937 –
31 May 1944
{{ref_label|resigned|Res}} Christian Historical Union Pieter Sjoerds Gerbrandy
(Gerbrandy I) 
481800 Win 1953 Australian Championships Grass Ken Rosewall {{flagicon|AUS}} Don Candy
{{flagicon|AUS}} Mervyn Rose 9–11, 6–4, 10–8, 6–4 Win 1953 Wimbledon Grass Ken Rosewall {{flagicon|AUS}} Rex Hartwig
{{flagicon|AUS}} Mervyn Rose 6–4, 7–5, 4–6, 7–5 Loss 1954 U.S. National Championships Grass Ken Rosewall {{flagicon|USA}} Vic Seixas
{{flagicon|USA}} Tony Trabert 6–3, 4–6, 6–8, 3–6 Loss 1955 Australian Championships Grass Ken Rosewall {{flagicon|USA}} Vic Seixas
{{flagicon|USA}} Tony Trabert 3–6, 2–6, 6–2, 6–3, 1–6 Win 1955 Wimbledon Grass Rex Hartwig {{flagicon|AUS}} Neale Fraser
{{flagicon|AUS}} Ken Rosewall 7–5, 6–4, 6–3 
48191884 1 14 22 Joey Logano Team Penske Ford 269 47 2 5 11 Denny Hamlin Joe Gibbs Racing Toyota 269 42 3 21 48 Jimmie Johnson Hendrick Motorsports Chevrolet 269 42 4 24 5 Kasey Kahne Hendrick Motorsports Chevrolet 269 40 5 3 18 Kyle Busch Joe Gibbs Racing Toyota 269 39 
48292200 {{leagueicon|Barrow|16}} Barrow Raiders Barrow, Cumbria Craven Park 7,600 File:Coventrycolours.png Coventry Bears Coventry, West Midlands Butts Park Arena 4,000 {{leagueicon|Doncaster|16px}} Doncaster Doncaster, South Yorkshire Keepmoat Stadium 15,231 {{leagueicon|new south wales|16px}} Gloucestershire All Golds Cheltenham, Gloucestershire Prince of Wales Stadium 480 {{leagueicon|Hemel|16}} Hemel Stags Hemel Hempstead, Hertfordshire Pennine Way 2,000 
48293135 1 24 Jeff Gordon Hendrick Motorsports Chevrolet 49.296 49.234 2 5 Kasey Kahne Hendrick Motorsports Chevrolet 49.348 49.453 3 48 Jimmie Johnson Hendrick Motorsports Chevrolet 49.506 49.467 4 20 Matt Kenseth Joe Gibbs Racing Toyota 49.506 49.468 6 6 Trevor Bayne Roush Fenway Racing Ford 49.717 49.674 
48298466 2012 NCAA Division&nbsp;I Indoor Championships 7th 200&nbsp;m Nampa, Idaho 23.36 2012 NCAA Division&nbsp;I Indoor Championships 6th 60&nbsp;m Nampa, Idaho 7.28 2012 U.S. Junior Championships 1st 100&nbsp;m Bloomington, Indiana 11.43 2012 U.S. Junior Championships 2nd 200&nbsp;m Bloomington, Indiana 23.30 2013 NCAA Division&nbsp;I Indoor Championships 5th 200&nbsp;m Fayetteville, Arkansas 23.00, indoor {{AthAbbr|PB}} 
48306510 December 11, 1971 California Lutheran 30–14 Westminster (PA) Thousand Oaks, California December 14, 1974 Texas Lutheran 42–0 Missouri Valley Seguin, Texas December 13, 1975 Texas Lutheran 34–8 California Lutheran Thousand Oaks, California December 4, 1976 Westminster (PA) 20–13 Redlands Redlands, California December 3, 1977 Westminster (PA) 17–9 California Lutheran Thousand Oaks, California 
48321821 Sto Para Pente 2005–2007 Mega Channel Comedy  Peninta Peninta 2005–2007 Mega Channel Comedy  Mazi sou 2006–2007 Mega Channel Drama  Tis Agapis Maheria 2006–2007 Mega Channel Drama  Eftyhismenoi Mazi 2007–2009 Mega Channel Comedy  
48321843 2014 Pinoy Big Brother: All In Herself/Housemate ABS-CBN Guest Appearance 2014 Kris TV Herself/Guest ABS-CBN Guest Appearance 2015 Ipaglaban Mo!: Inabusong Karapatan Nina ABS-CBN Main Role 2015 Ipaglaban Mo!: Pinekeng Anyo Minnie ABS-CBN Main Role 2015 Ipaglaban Mo!: Maging Akin Ka Lang Jenny/ Jean's Sister ABS-CBN Supporting Role 
48323742 1 Exhibition Ground Brisbane {{flagu|Australia}} 28 December 1934 1 3 Melbourne Cricket Ground Melbourne {{flagu|Australia}} 18 January 1935 2 4 Lancaster Park Christchurch {{flagu|New Zealand}} 16 February 1935 2 5 County Cricket Ground, Northampton Northampton {{flagu|England}} 12 January 1937 1 6 Stanley Park Blackpool {{flagu|England}} 26 June 1937 2 
48330595 Commerce Commerce Commerce Laurie Halverson Zack Stephenson Education Policy Education Policy Education Policy Cheryl Youakim Mary Kunesh-Podein Environment and Natural Resources Policy Environment and Natural Resources Policy Environment and Natural Resources Policy John Persell Jamie Becker-Finn Government Operations Government Operations Government Operations Mike Freiberg Duane Sauke Subcommittees Subcommittees Elections Raymond Dehn Kristin Bahner 
48334617  Husqvarna 7 Tanel Leok {{nowrap|1{{ref|‡|‡}}}}  KTM 7 Tanel Leok {{nowrap|2{{ref|‡|‡}}}}–3, 6–9, 11–16 Suzuki World MXGP Suzuki 22 Kevin Strijbos 1–9, 13–18 Rockstar Energy Husqvarna Factory Racing Husqvarna 12 Max Nagl All Red Bull KTM Factory Racing KTM 15 Dean Wilson 17–18 
48336879 3 Mohammad-Hassan Aboutorabi Fard   United Front 693,384 29.69 4 Morteza Agha-Tehrani   Stability Front 690,848 29.59 8 Ahmad Tavakoli   United Front 404,595 35.92 11 Seyyed Mehdi Hashemi   Stability Front 369,317 32.80 12 Mohammad Reza Bahonar   United Front 368,096 32.68 
48386110 1 5 24 Jeff Gordon Hendrick Motorsports Chevrolet 500 47 2 4 1 Jamie McMurray Chip Ganassi Racing Chevrolet 500 42 3 10 11 Denny Hamlin Joe Gibbs Racing Toyota 500 42 5 6 18 Kyle Busch Joe Gibbs Racing Toyota 500 39 8 12 4 Kevin Harvick Stewart-Haas Racing Chevrolet 500 37 
4842373 1997–98 Rochester Americans AHL  74 10 15 25 98  4 1 2 1998–99 Rochester Americans AHL  74 16 17 33 121  20 3 4 1999–00 Rochester Americans AHL  76 34 24 58 122  21 6 7 1999–00 Buffalo Sabres NHL  3 1 0 1 0  — — — 2000–01 Buffalo Sabres NHL  41 8 3 11 22  — — — 
48429379 Models Models Lumia 430 Lumia 435 Lumia 530 Lumia 532 Lumia 535 Lumia 630 Lumia 635/636/638 Lumia 730 Lumia 735 Lumia 830 Lumia 930 Physical specifications Physical specifications Lumia 430 Lumia 435 Lumia 530 Lumia 532 Lumia 535 Lumia 630 Lumia 635/636/638 Lumia 730 Lumia 735 Lumia 830 Lumia 930 Memory Memory Lumia 430 Lumia 435 Lumia 530 Lumia 532 Lumia 535 Lumia 630 Lumia 635/636/638 Lumia 730 Lumia 735 Lumia 830 Lumia 930 Display Display Lumia 430 Lumia 435 Lumia 530 Lumia 532 Lumia 535 Lumia 630 Lumia 635/636/638 Lumia 730 Lumia 735 Lumia 830 Lumia 930 Technology Technology Lumia 430 Lumia 435 Lumia 530 Lumia 532 Lumia 535 Lumia 630 Lumia 635/636/638 Lumia 730 Lumia 735 Lumia 830 Lumia 930 
48443632 1 8 48 Jimmie Johnson Hendrick Motorsports Chevrolet 334 47 2 1 2 Brad Keselowski Team Penske Ford 334 44 3 2 4 Kevin Harvick Stewart-Haas Racing Chevrolet 334 42 4 3 18 Kyle Busch Joe Gibbs Racing Toyota 334 41 5 13 19 Carl Edwards Joe Gibbs Racing Toyota 334 39 
4845004 Hamilton Tiger-Cats Hamilton Amateur Athletic Association Grounds 1872–1949 Unknown 1872 Hamilton, Ontario  Hamilton Tiger-Cats Ivor Wynne Stadium 1950–2012 29,600 1930 Hamilton, Ontario  Hamilton Tiger-Cats Ron Joyce Stadium 2014 6,500 2008 Hamilton, Ontario  Montreal Alouettes Delorimier Stadium 1946–1953 20,000 1928 Montreal, Quebec  Montreal Alouettes Autostade 1968–1971
1973–1976 33,172 1967 Montreal, Quebec  
48491453 2 Sammy Brown 13.5 2011 3 Mack Mitchell 13.0 1973 Craig Veasey 13.0 1989 5 Sam Proctor 12.0 1979 Glenn Montgomery 12.0 1988 
48508093 1 48 Jimmie Johnson Hendrick Motorsports Chevrolet 25.688 25.306 25.147 2 41 Kurt Busch Stewart-Haas Racing Chevrolet 25.445 25.178 25.196 4 19 Carl Edwards Joe Gibbs Racing Toyota 25.610 25.310 25.263 6 42 Kyle Larson Chip Ganassi Racing Chevrolet 25.448 25.305 25.301 8 4 Kevin Harvick Stewart-Haas Racing Chevrolet 25.552 25.319 25.340 
4851420 Bahama woodstar Calliphlox evelynae Trochilidae File:Fl mammals lc.svg  Inagua woodstar Calliphlox lyrura Trochilidae File:Fl mammals lc.svg Sometimes considered a subspecies of Bahama woodstar, found only on Inagua Bahama swallow Tachycineta cyaneoviridis Hirundinidae File:Fl mammals en.svg  Bahama nuthatch Sitta insularis Sittidae File:Fl mammals cr.svg Sometimes considered a subspecies of brown-headed nuthatch. Bahama oriole Icterus northropi Icteridae File:Fl mammals cr.svg  
48551292 2017 "Treat You Better" Best Pop Video {{nom}}  2017 "There's Nothing Holdin' Me Back" Song of the Summer {{nom}}  2018 "In My Blood" Best Pop Video {{nominated}}  2018 "In My Blood" Best Cinematography {{nom}}  2018 "In My Blood" Best Direction {{nom}}  
48569425 1 11 Denny Hamlin Joe Gibbs Racing Toyota 30.665 30.689 30.568 2 22 Joey Logano Team Penske Ford 30.520 30.519 30.636 3 18 Kyle Busch Joe Gibbs Racing Toyota 30.691 30.587 30.671 5 24 Jeff Gordon Hendrick Motorsports Chevrolet 30.758 30.705 30.806 7 19 Carl Edwards Joe Gibbs Racing Toyota 30.525 30.777 30.846 
48595620 1 Akhilesh Yadav SP Mar 2012 – Mar 2018 3 Ambika Choudhury SP Mar 2012 – Mar 2018 4 Dr. Madhu Gupta SP Mar 2012 – Mar 2018 5 Naresh Chandra Uttam SP Mar 2012 – Mar 2018 7 Umar Khan SP Mar 2012 – Mar 2018 
48607973 17 Jan EurAsia Cup Malaysia n/a Team Europe n/a Team event 1 Feb{{#tag:ref|Final round delayed to Monday due to bad weather and lightning|group="nb"}} SMBC Singapore Open Singapore $1,000,000 {{flagicon|KOR}} Song Young-han (1) 28 Co-sanctioned with the Japan Golf Tour 7 Feb Leopalace21 Myanmar Open Myanmar $750,000 {{flagicon|ZAF}} Shaun Norris (2) 15 Co-sanctioned with the Japan Golf Tour 14 Feb Bashundhara Bangladesh Open Bangladesh $300,000 {{flagicon|THA}} Thitiphun Chuayprakong (1) 14  21 Feb Maybank Championship Malaysia Malaysia $3,000,000 {{flagicon|AUS}} Marcus Fraser (2) 38 Co-sanctioned with the European Tour 
48616260 Aberavon Quins 21 - 25 Pencoed Abergavenny 0 - 7 Tonna Aberystwyth v Laugharne Bryncoch 8 - 41 Treherbert Caldicot 0 - 46 Garndiffaith 
48632162 1 Jamie McMurray Chip Ganassi Racing Chevrolet 2 Brad Keselowski Team Penske Ford 3 Austin Dillon Richard Childress Racing Chevrolet 4 Kevin Harvick Stewart-Haas Racing Chevrolet 5 Kasey Kahne Hendrick Motorsports Chevrolet 
48662587 2016 9th Korea Drama Awards Top Excellence Award, Actor Yoo Seung-ho {{Nom}} 2016 52nd Baeksang Arts Awards Best Actor Namkoong Min {{Nom}} 2016 5th APAN Star Awards Excellence Award, Actor in a Miniseries Namkoong Min {{Won}} 2016 24th SBS Drama Awards Grand Prize (Daesang) Namkoong Min {{Nom}} 2016 24th SBS Drama Awards Top Excellence Award, Actress in a Genre & Fantasy Drama Park Min-young {{Nom}} 
48697623 1995 Lipton Championships Miami United States 1996 Toshiba Classic San Diego United States 1997 State Farm Evert Cup Indian Wells United States 1999 du Maurier Open Toronto Canada 2003 Kremlin Cup Moscow Russia 
48714133 23 Ronald Zubar {{flagicon|GLP}} CB {{Birth date and age2|2016|3|6|df=yes|1985|9|20}} AC Ajaccio 40 4 55 Damien Perrinelle {{flagicon|FRA}} CB {{Birth date and age2|2016|3|6|df=yes|1983|9|12}} FC Istres 51 2 4 Tyler Adams {{flagicon|USA}} CM {{Birth date and age2|2016|3|6|df=yes|1999|2|14}} Academy 4 0 7 Derrick Etienne {{flagicon|HAI}} CM {{Birth date and age2|2016|3|6|df=yes|1996|11|25}} Academy 3 0 8 Felipe {{flagicon|BRA}} CM {{Birth date and age2|2016|3|6|df=yes|1990|9|30}} Montreal Impact 81 8 
48796072 18 December 2015 MF {{flagicon|USA}} Lance Rozeboom Austin Aztex Free 13 January 2016 DF {{flagicon|CAN}} Kyle Porter Atlanta Silverbacks Free 14 January 2016 DF {{flagicon|ENG}} Onua Obasi Rochester Rhinos Free 14 January 2016 DF {{flagicon|USA}} Rich Balchan Tampa Bay Rowdies Free 2 February 2016 MF {{flagicon|CAN}} Mozzi Gyorio Austin Aztex Free 
48813204 25–28 Feb RACV Ladies Masters Australia {{flagicon|KOR}} Jiyai Shin (4) Co-sanctioned with the ALPG Tour 10–13 Mar World Ladies Championship China {{flagicon|KOR}} Lee Jung-min (1) - individual
{{flagicon|KOR}} Lee Jung-min & Ko Jin-young - team Co-sanctioned with the LPGA of Korea Tour and China LPGA Tour 5–8 May Lalla Meryem Cup Morocco {{flagicon|ESP}} Nuria Iturrioz (1)  17–19 Jun Tipsport Golf Masters Czech Republic {{flagicon|DNK}} Nanna Koerstz Madsen (1)  21–24 Jul Aberdeen Asset Management Ladies Scottish Open Scotland {{flagicon|FRA}} Isabelle Boineau (1)  
4886786 Animal Crossing: City Folk Social Simulation Nintendo EAD Nintendo EU, JP, NA O(4), D, WC24, DS 2008-11-16  Battalion Wars 2 Third-person shooter Kuju Entertainment Nintendo EU, JP, NA O(2) 2007-10-29  The Beatles: Rock Band Music game Pi Studios Electronic Arts AUS, EU, NA O(4), P&P, S 2009-09-09  Boom Blox Bash Party Physics-based puzzle game EA Los Angeles Electronic Arts EU, NA D 2009-05 {{dead link|date=December 2017 |bot=InternetArchiveBot |fix-attempted=yes }} Call of Duty: Modern Warfare 3 First-person Shooter Infinity Ward Activision AUS, EU, NA O(12), S 2011-11-08  
48868333 28 February 1984 Millersville United States Millersville University 1 March 1984 Columbus United States Ohio Center 6,864 / 6,864 $82,368 2 March 1984 Toledo United States Centennial Hall 4 March 1984 Detroit United States Joe Louis Arena 15,501 / 15,501 $209,263 6 March 1984 Cedar Rapids United States Five Seasons Center 
48883191 {{Gold medal}} Gholamreza Rahimi Archery Men's individual recurve open 13 September {{Gold medal}} Zahra Nemati Archery Women's Individual recurve open 15 September {{Gold medal}} Mohammad Khalvandi Athletics Men's Javelin Throw–F57 12 September {{Gold medal}} Majid Farzin Powerlifting Men's 80 kg 12 September {{Gold medal}} Siamand Rahman Powerlifting Men's +107 kg 14 September 
4890456 1973–74 Virginia Wings AHL &nbsp; 65 24 42 66 37 &nbsp; — — — 1973–74 Detroit Red Wings NHL &nbsp; 12 2 5 7 4 &nbsp; — — — 1979–80 Quebec Nordiques NHL &nbsp; 52 18 33 51 28 &nbsp; — — — 1980–81 Quebec Nordiques NHL &nbsp; 78 24 49 73 104 &nbsp; 5 1 2 1981–82 Quebec Nordiques NHL &nbsp; 19 1 8 9 4 &nbsp; — — — 
48932833 Rozova Dolina 3–1 Lokomotiv Plovdiv Velbazhd Kyustendil 1–0 Marek Dupnitsa Spartak Sofia 4–0 Gigant Belene Cherno More Varna 1–2 Dobrudzha Dobrich Hebar Pazardzhik 0–1 Lokomotiv Sofia 
489580 29th Avenue {{rail-interchange|vancouver|expo|size=20}} Expo Vancouver Zone 1 1985 {{formatnum:{{TransLink (BC) ridership|29th Ave}}}}  Braid {{rail-interchange|vancouver|expo|size=20}} Expo New Westminster Zone 2 2002 {{formatnum:{{TransLink (BC) ridership|Braid}}}}  Brentwood Town Centre {{rail-interchange|vancouver|millennium|size=20}} Millennium Burnaby Zone 2 2002 {{formatnum:{{TransLink (BC) ridership|Brentwood}}}}  Burquitlam {{rail-interchange|vancouver|millennium|size=20}} Millennium Coquitlam Zone 3 2016 {{formatnum:{{TransLink (BC) ridership|Burquitlam}}}}  Burrard {{rail-interchange|vancouver|expo|size=20}} Expo Vancouver Zone 1 1985 {{formatnum:{{TransLink (BC) ridership|Burrard}}}} {{rint|vancouver|bus|95|size=20}} 95 B-Line 
48983836 ? アメ401–アメ406 アメイ1–アメイ6
(Amei) 4-4-0 ALCo 1911 6 File:Sentetsu Amei.png All six to KNR in 1945. - - マテニ1–マテニ33
(Mateni) 4-8-2 Kawasaki 1939–1945 33 File:Sentetsu Matei.png  - ミカ701–ミカ712 ミカイ1–ミカイ12
(Sentetsu Mikai) 2-8-2 Baldwin 1919 12   - ミカ801–ミカ812 ミカニ1–ミカニ12
(Mikani) 2-8-2 ALCo 1919 12   -  ミカシ1–ミカシ24
(Mikashi) 2-8-2 Kawasaki 1939–1942 24   
49008422 07.03–20.03 Indian Wells Masters Indian Wells ATP World Tour Masters 1000 Hard SF 360 45 Lost in third round against Federico Delbonis 23.03–03.04 Miami Masters Miami ATP World Tour Masters 1000 Hard F 600 45 Lost in third round against Grigor Dimitrov 11.04–17.04 Monte-Carlo Masters Monte-Carlo ATP World Tour Masters 1000 Clay DNS 0 360 Lost in the semifinals against Rafael Nadal 01.05–08.05 Madrid Open Madrid ATP World Tour Masters 1000 Clay W 1,000 600 Lost in the final against Novak Djokovic 13.06–19.06 Queen's Club Championships London ATP World Tour 500 Grass W 500 500 Won in the final against Milos Raonic 
49030494 {{dts|February 13}} No.X Jaejoong  {{dts|February 20}} No.X Jaejoong  {{dts|February 27}} Press It Taemin  {{dts|March 5}} Press It Taemin  {{dts|March 26}} Flight Log: Departure Got7  
49044094 1920 Georgia 8–0–1 Herman Stegeman 1921 Vanderbilt 7–0–1 Dan McGugin 1922 Vanderbilt 8–0–1 Dan McGugin 1923 Illinois 8–0 Robert Zuppke 1923 Yale 8–0 Tad Jones 
49081460 Jean-Pierre Papin {{FRA}} FW Olympique de Marseille* SC Toulon 3–0 {{dts|format=dmy|1990|3|15}}  Jean-Pierre Papin {{FRA}} FW Olympique de Marseille* Lille OSC 4–1 {{dts|format=dmy|1990|3|31}}  Etienne Mendy {{FRA}} FW AS Saint-Étienne* Stade Brestois 29 6–1 {{dts|format=dmy|1990|12|2}}  Enzo Scifo {{BEL}} MF AJ Auxerre* FC Sochaux 4–1 {{dts|format=dmy|1991|2|10}}  Jean-Pierre Papin {{FRA}} FW Olympique de Marseille* AS Nancy 6–2 {{dts|format=dmy|1991|4|6}}  
49092592 January 18 Lagao Hum TV  January 25 Mann Mayal Hum TV  January 28 Ab Kar Meri Rafugari ARY Digital  February 3 Kisay Chahoon Hum TV  February 22 Zindagi Tujh Ko Jiya Hum TV  
49109116 Vytenis Andriukaitis 4 Žirmūnų LSDP Until 15 September 2014 Juozas Bernatonis Nationwide LSDP  Rimantas Dagys 11 Šilainių TS  Vytautas Juozapaitis Nationwide TS  Gediminas Kirkilas Nationwide LSDP  
491834 2 Norman W. Sanderson Republican Minnesott Beach Carteret, Craven, Pamlico 2012 3 Erica D. Smith Democratic Henrico Beaufort, Bertie, Martin, Northampton, Vance, Warren 2014 4 Toby Fitch Democratic Wilson Edgecombe, Halifax, Wilson 2018↑ 5 Donald G. Davis Democratic Greenville Greene, Pitt 2012 8 Bill Rabon Republican Southport Bladen, Brunswick, New Hanover (part), Pender 2010 
49186665 July 27, 2019 Fukuoka Japan Marine Messe Fukuoka  July 28, 2019 Fukuoka Japan Marine Messe Fukuoka  August 9, 2019 Kobe Japan World Memorial Hall  August 10, 2019 Kobe Japan World Memorial Hall  August 11, 2019 Kobe Japan World Memorial Hall  
4920175 1991 ATL 2 0 0 0 0 4 0.0 0 0 2 — 1 11 0.0 0 0 0.0 0 0 1992 GB 15 13 8 5 302 471 64.1 3,227 18 13 76T 34 208 85.3 47 198 4.2 1 19 1993 GB 16 16 9 7 318 522 60.9 3,303 19 24 66T 30 199 72.2 58 216 3.7 1 27 1994 GB 16 16 9 7 363 582 62.4 3,882 33 14 49 31 188 90.7 42 202 4.8 2 36T 1995 GB 16 16 11 5 359 570 63.0 4,413 38 13 99T 33 217 99.5 39 181 4.6 3 40 
49285148 September 19, 2013 New York City United States Bowery Ballroom September 20, 2013{{ref label|OCS|A|A}} Ocean City United States Roland E. Powell Convention Center September 21, 2013{{ref label|FMA|B|B}} Saratoga Springs United States Saratoga Performing Arts Center October 10, 2013 Manchester England Manchester Academy 3 October 18, 2013{{ref label|SFT|F|F}} Dallas United States Silverado Main Stage 
49290596 Burundi Le Messager Ngozi 2016 Burundian Cup winners Comoros Volcan Club 2016 Comoros Cup winners Gabon Akanda 2016 Coupe du Gabon Interclubs runners-up Guinea AS Kaloum 2016 Guinée Coupe Nationale runners-up Liberia Monrovia Club Breweries 2016 Liberian Cup winners 
49314157 Taoiseach Leo Varadkar 2017–present  Fine Gael Minister for Public Expenditure and Reform Paschal Donohoe 2017–present  Fine Gael Minister for Education and Skills Richard Bruton 2017–present  Fine Gael Minister for Foreign Affairs and Trade Simon Coveney 2017–present  Fine Gael Minister for Justice and Equality Charles Flanagan 2017–present  Fine Gael 
49324149 Botev Plovdiv 0–1 Sliven Lokomotiv Plovdiv 2–1 Haskovo Slavia Sofia 1–0 Bdin Vidin Hebar Pazardzhik 4–1 Pirin Blagoevgrad Litex Lovech 0–2 Yantra Gabrovo 
49337570 5/2/16 Super League XXI 1 {{leagueicon|Catalans|12}}Catalans Dragons H DW Stadium W 12-6 McIlorum (2) Smith 2/3 13,436 Sky Sports 12/2/16 Super League XXI 2 Image:Giantscolours.svgHuddersfield A Galpharm Stadium W 18-13 L.Farrell, Manfredi, Charnley Smith 3/3 5,912 Sky Sports 11/3/16 Super League XXI 5 Image:Rhinoscolours.svgLeeds H DW Stadium W 28-6 Bateman, Gildart, Manfredi, Clubb, Gelling Smith 4/5 14,425 Sky Sports 17/3/16 Super League XXI 6 {{leagueicon|Widnes Vikings|12}}Widnes H DW Stadium L 12-18 L.Farrell, Charnley (2) Smith 0/3 11,773 Sky Sports 25/3/16 Super League XXI 7 Image:Saintscolours.svgSt. Helens A Langtree Park W 24-12 Manfredi, Powell, J.Tomkins, Smith Smith 4/4 Attendance Sky Sports 
49342169 Albion SC Pros San Diego, California West - Southwest Expansion North County Battalion San Diego, California West - Southwest Expansion Southern California Sports Club San Bernardino, California West - Southwest Expansion Corinthians USA Fontana, California West - Southwest Expansion AFC Ann Arbor Ann Arbor, Michigan Midwest - Great Lakes West From Great Lakes Premier League 
49345564 1 Luke Dorn Fullback N/A London Broncos 5 1 0 0 4 2 Joel Monaghan Winger N/A Warrington Wolves 6 3 0 0 12 3 Jake Webster Centre N/A Hull Kingston Rovers 8 4 0 0 16 5 Denny Solomona Wing N/A London Broncos 8 9 0 0 36 7 Luke Gale Scrum Half N/A Bradford Bulls 8 0 27 1 55 
49393126 1 48 Jimmie Johnson Hendrick Motorsports Chevrolet 2 2 Brad Keselowski Team Penske Ford 3 47 A. J. Allmendinger JTG Daugherty Racing Chevrolet 4 42 Kyle Larson Chip Ganassi Racing Chevrolet 6 13 Casey Mears Germain Racing Chevrolet 
49398406 Lokomotiv Plovdiv 2–0 Shumen Tundzha Yambol 1–0 Yantra Gabrovo Sliven 2–1 Slivnishki Geroy Rakovski Sevlievo 1–2 Slavia Sofia Spartak Pleven 3–2 Metalurg Pernik 
49402410 1 2 18 Kyle Busch Joe Gibbs Racing Toyota 60 2 10 1 Jamie McMurray Chip Ganassi Racing Chevrolet 60 3 5 41 Kurt Busch Stewart-Haas Racing Chevrolet 60 4 4 19 Carl Edwards Joe Gibbs Racing Toyota 60 6 11 42 Kyle Larson Chip Ganassi Racing Chevrolet 60 
49421640 2000–01 Tony Ingle Peach Belt 11 15 6 10 T-7th — — — — 2001–02 Tony Ingle Peach Belt 20 10 13 6 T-3rd Finals — — — 2002–03 Tony Ingle Peach Belt 25 10 14 5 2nd Finals — — — 2003–04 Tony Ingle Peach Belt 35 4 16 0 1st Champions‡ NCAA Division II Champions^ — — 2004–05 Tony Ingle Peach Belt 24 6 13 3 T-1st Semifinals NCAA First Round^ — — 
49434711 1 21 Gautier Paulin Honda 1:42.773  3 259 Glenn Coldenhoff KTM 1:43.069 +0.296 4 243 Tim Gajser Honda 1:43.425 +0.625 5 461 Romain Febvre Yamaha 1:43.655 +0.882 6 89 Jeremy van Horebeek Yamaha 1:43.779 +1.006 
49507224 1 Jamie McMurray Chip Ganassi Racing Chevrolet 2 Brad Keselowski Team Penske Ford 3 Austin Dillon Richard Childress Racing Chevrolet 4 Kevin Harvick Stewart-Haas Racing Chevrolet 5 Kasey Kahne Hendrick Motorsports Chevrolet 
49510964 1 Jamie McMurray Chip Ganassi Racing Chevrolet 2 Brad Keselowski Team Penske Ford 3 Austin Dillon Richard Childress Racing Chevrolet 4 Kevin Harvick Stewart-Haas Racing Chevrolet 5 Kasey Kahne Hendrick Motorsports Chevrolet 
49515624 1 461 Romain Febvre Yamaha 19  25 2 222 Tony Cairoli KTM 19 +2.775 22 3 243 Tim Gajser Honda 19 +5.871 20 5 89 Jeremy van Horebeek Yamaha 19 +21.958 16 6 100 Tommy Searle Kawasaki 19 +33.173 15 
49531464 1953 Jean Sibelius Finland 1958 Dmitri Šostakovitš Soviet Union 1963 Igor Stravinsky United States 1965 Benjamin Britten United Kingdom 1965 Erik Bergman Finland 
49537593 2 July A Moon Shaped Pool Radiohead  9 July A Moon Shaped Pool Radiohead  17 September Skeleton Tree Nick Cave and the Bad Seeds  24 September Skeleton Tree Nick Cave and the Bad Seeds  1 October Skeleton Tree Nick Cave and the Bad Seeds  
49546525 GK Rodney Ubbergen Telstar {{flagicon|Netherlands}} 1 0 DF Marlon Felter Walking Boyz Company {{flagicon|Suriname}} 1 0 DF Gregory Pokie Walking Boyz Company {{flagicon|Suriname}} 0 0 DF Naldo Kwasie Transvaal {{flagicon|Suriname}} 0 0 DF Steve Olfers Aalborg BK {{flagicon|Denmark}} 0 0 
49581200 27 Jan Johnnie Walker Classic Australia 1,300,000 {{flagicon|ZAF}} Retief Goosen (n/a) 42 Co-sanctioned with the European Tour
and PGA Tour of Australasia 10 Feb London Myanmar Open Myanmar 200,000 {{flagicon|THA}} Thongchai Jaidee (3) 6  17 Feb Hero Honda Masters India 300,000 {{flagicon|IND}} Harmeet Kahlon (1) 6  24 Feb Caltex Singapore Masters Singapore 900,000 {{flagicon|IND}} Arjun Atwal (4) 16 Co-sanctioned with the European Tour 3 Mar Carlsberg Malaysian Open Malaysia 1,000,000 {{flagicon|SCO}} Alastair Forsyth (n/a) 16 Co-sanctioned with the European Tour 
49581329 31 Jan London Myanmar Open Myanmar 200,000 {{flagicon|TWN}} Wang Ter-chang (2)  7 Feb Benson & Hedges Malaysian Open Malaysia 750,000 {{flagicon|USA}} Gerry Norquist (5) Co-sanctioned with the European Tour 14 Mar Wills Indian Open India 300,000 {{flagicon|IND}} Arjun Atwal (1)  18 Apr Macau Open Macau 200,000 {{flagicon|ENG}} Lee Westwood (n/a)  2 May Maekyung Daks Open South Korea 275,000 {{flagicon|ZAF}} James Kingston (2)  
49585981 17th 2015 Artist of the Year Twice {{nom}}  18th 2016 Album of the Year Page Two {{nom}}  18th 2016 Artist of the Year Twice {{nom}}  18th 2016 Best Female Group Twice {{won}}  18th 2016 Song of the Year "Cheer Up" {{won}}  
49668102 1 Jamie McMurray Chip Ganassi Racing Chevrolet 2 Brad Keselowski Team Penske Ford 3 Austin Dillon Richard Childress Racing Chevrolet 4 Kevin Harvick Stewart-Haas Racing Chevrolet 5 Kasey Kahne Hendrick Motorsports Chevrolet 
49677324 1 Jamie McMurray Chip Ganassi Racing Chevrolet 2 Brad Keselowski Team Penske Ford 3 Austin Dillon Richard Childress Racing Chevrolet 4 Kevin Harvick Stewart-Haas Racing Chevrolet 5 Kasey Kahne Hendrick Motorsports Chevrolet 
49677426 Winter 2007 GK {{flagicon|UZB}} Oleg Belyakov Navbahor Namangan Undisclosed  Winter 2007 GK {{flagicon|UZB}} Pavel Bugalo Ordabasy Undisclosed  Winter 2007 DF {{flagicon|UZB}} Bakhtiyor Ashurmatov Krylia Sovetov Undisclosed  Winter 2007 DF {{flagicon|UZB}} Sakhob Juraev Lokomotiv Tashkent Undisclosed  Winter 2007 DF {{flagicon|UZB}} Aleksandr Khvostunov Navbahor Namangan Undisclosed  
49711392 Ivory Coast Gagnoa 183.0 180.0 196.0 188.0 181.0 118.0 97.0 80.0 110.0 155.0 171.0 164.0 1,823.0  Ivory Coast Abidjan 223.0 223.0 239.0 214.0 205.0 128.0 137.0 125.0 139.0 215.0 224.0 224.0 2,296.0  Benin Cotonou 213.9 210.0 223.2 219.0 213.9 141.0 136.4 148.8 165.0 207.7 243.0 223.2 2,345.2  Benin Parakou 261.0 243.0 252.0 230.0 239.0 193.0 133.0 104.0 129.0 217.0 252.0 248.0 2,501.0  Benin Kandi 279.0 257.6 260.4 255.0 272.8 252.0 223.2 195.3 213.0 275.9 282.0 279.0 3,045.2  
49718752 1 89 Jeremy van Horebeek Yamaha 1:52.255  3 22 Kevin Strijbos Suzuki 1:52.833 +0.578 4 243 Tim Gajser Honda 1:53.581 +1.326 5 100 Tommy Searle Kawasaki 1:53.799 +1.544 6 222 Tony Cairoli KTM 1:54.183 +1.928 
49718895 1969 Valley Forge {{flagathlete|[[Irma Danielsson]]|SWE}} No event {{flagathlete|[[Raye Dabelow]]|USA}} No event  1971 Cardiff {{flagathlete|[[Sonia Johansson]]|SWE}} No event {{flagathlete|[[Eunice Schewe]]|USA}} No event  1972 Gorizia {{flagathlete|[[Maureen Bechdolt]]|USA}} No event {{flagathlete|[[Ingegerd Grandqvist]]|SWE}} No event  1974 Zagreb {{flagathlete|[[Lucille Lessard]]|CAN}} No event {{flagathlete|[[Eunice Schewe]]|USA}} No event  1978 Geneva {{flagathlete|[[Annemarie Lehmann]]|GER}} No event {{flagathlete|[[Suizuko Kobuchi]]|JPN}} No event  
49746088 2004 Outstanding Main Title Theme Music Lee Aronsohn, Grant Geissman, Chuck Lorre {{nom}} 2005 Outstanding Supporting Actress in a Comedy Series Holland Taylor
{{small|as "Evelyn Harper"}} {{nom}} 2005 Outstanding Supporting Actress in a Comedy Series Conchata Ferrell
{{small|as "Berta"}} {{nom}} 2006 Outstanding Supporting Actor in a Comedy Series Jon Cryer
{{small|as "Alan Harper"}} {{nom}} 2006 Outstanding Lead Actor in a Comedy Series Charlie Sheen
{{small|as "Charlie Harper"}} {{nom}} 
49758448 Excelsior Maassluis Maassluis Top 7 in Topklasse Saturday HHC Hardenberg Top 7 in Topklasse Saturday Kozakken Boys Werkendam Top 7 in Topklasse Saturday Spakenburg Bunschoten-Spakenburg Top 7 in Topklasse Saturday GVVV Veenendaal Top 7 in Topklasse Saturday 
49760341 Levski Sofia 2–0 Spartak Sofia Etar Veliko Tarnovo 1–0 Yantra Gabrovo Beroe Stara Zagora 0–0 (aet) Slavia Sofia Slavia qualified by drawing of lots Botev Vratsa 2–3 Septemvri Sofia Tundzha Yambol 4–2 Litex Lovech 
49788252 2 1 Mark Winterbottom Prodrive Racing Australia Ford FG X Falcon 1:56.5835 3 12 Fabian Coulthard DJR Team Penske Ford FG X Falcon 1:56.6320 4 55 Chaz Mostert Rod Nash Racing Ford FG X Falcon 1:56.6516 6 8 Jason Bright Brad Jones Racing Holden VF Commodore 1:56.9699 9 22 James Courtney Holden Racing Team Holden VF Commodore 1:57.0123 
49788272 1 Jamie McMurray Chip Ganassi Racing Chevrolet 2 Brad Keselowski Team Penske Ford 3 Austin Dillon Richard Childress Racing Chevrolet 4 Kevin Harvick Stewart-Haas Racing Chevrolet 5 Kasey Kahne Hendrick Motorsports Chevrolet 
49834318 Total 193&nbsp;kg Ri Song-gum {{flagu|North Korea}} 20 August 2017 2017 Universiade {{flagicon|ROC}} New Taipei City, Taiwan  Snatch 100&nbsp;kg Ji Jing {{CHN}} 14 August 2011 2011 Universiade {{flagicon|CHN}} Shenzhen, China  Clean & jerk 122&nbsp;kg Ji Jing {{CHN}} 14 August 2011 2011 Universiade {{flagicon|CHN}} Shenzhen, China  Total 222&nbsp;kg Ji Jing {{CHN}} 14 August 2011 2011 Universiade {{flagicon|CHN}} Shenzhen, China  Snatch 107&nbsp;kg Kuo Hsing-chun {{flagu|Chinese Taipei}} 21 August 2017 2017 Universiade {{flagicon|ROC}} New Taipei City, Taiwan  
49917810 2013 Dheerudu Kottandira melamu S. Thaman 2014 Ra Ra Krishnayya Ra ra krishnayya Achu 2014 Run Raja Run ComaComa Ghibran 2014 Run Raja Run Manassantha Ghibran 2015 Cheekati Rajyam Cheekati Rajyam Ghibran 
49927281 {{flagicon|GBR}} David Price Racing w/ Theodore Racing 1 Ivan Capelli Reynard 863 Alfa Romeo {{flagicon|GBR}} David Price Racing w/ Theodore Racing 30 Paul Belmondo Reynard 863 Alfa Romeo {{flagicon|IRL}} Eddie Jordan Racing w/ Theodore Racing 3 Emanuele Pirro Ralt RT30 Volkswagen {{flagicon|GBR}} Murray Taylor Racing 6 Jan Lammers Ralt RT30 Volkswagen {{flagicon|GBR}} Murray Taylor Racing 7 Damon Hill Ralt RT30 Volkswagen 
49931457 Marek Dupnitsa 2–0 Kaliakra Kavarna Maritsa Plovdiv 2–0 Slivnishki Geroy Minyor Radnevo 1–1 (5–3p) Minyor Pernik CSKA Sofia 8–0 Botev Kozloduy Beroe Stara Zagora 5–0 Spartak Pleven 
49957446 Dunav Ruse 4–1 Dorostol Silistra Svilengrad 1–0 Chernomorets Burgas Svetkavitsa 2–3 (aet) CSKA Sofia Hebar Pazardzhik 5–1 Botev Vratsa Spartak Pleven 3–1 Slavia Sofia 
49962919 Nesebar 2–1 Etar 1924 Minyor Bobov Dol 1–0 Dobrudzha Dobrich Spartak Pleven 4–1 Zagorets Nova Zagora Balkan Botevgrad 0–2 Minyor Radnevo Suvorovo 1–4 Spartak Plovdiv 
49963585 Cherno More Varna 1–0 Rodopa Smolyan Minyor Radnevo 1–6 Lokomotiv Plovdiv Chavdar Byala Slatina 0–3 CSKA Sofia Kaliakra Kavarna 0–1 Lokomotiv Sofia Chernomorets Burgas 5–0 Dobrudzha Dobrich 
49973396 1 1 Mark Winterbottom Prodrive Racing Australia Ford FG X Falcon 51.1530 4 18 Lee Holdsworth Charlie Schwerkolt Racing Holden VF Commodore 51.2700 5 19 Will Davison Tekno Autosports Holden VF Commodore 51.2847 9 8 Jason Bright Brad Jones Racing Holden VF Commodore 51.4263 10 12 Fabian Coulthard DJR Team Penske Ford FG X Falcon 51.4271 
4997489 Germany Germany Germany League League DFB-Pokal DFB-Pokal Europe Europe Total Total Darmstadt 98 2. Bundesliga 1984–85 32 9 1 0 — — 33 9 Darmstadt 98 2. Bundesliga 1985–86 38 17 1 1 — — 39 18 Darmstadt 98 2. Bundesliga 1986–87 35 18 4 3 — — 39 21 Darmstadt 98 2. Bundesliga Totals 105 44 6 4 0 0 111 48 
49976246 2005 Tarmo Neemelo TVMK 2006 Marek Lemsalu Levadia 2007 Juha Hakola Flora 2008 Juha Hakola Flora 2009 Sander Puri Levadia 
49977295 Cherno More Varna 3–4 (aet) Lokomotiv Sofia Belasitsa Petrich 1–0 Rodopa Smolyan Shumen 0–3 CSKA Sofia Etar 1924 1–0 Slavia Sofia Botev Plovdiv 5–0 Akademik Svishtov 
49982867 Chepinets Velingrad 0–8 Lokomotiv Plovdiv 0–5 0–3 Belite orli Pleven 0–5 Botev Plovdiv 0–2 0–3 Dorostol Silistra 1–4 Rodopa Smolyan 1–1 0–3 Pirin Blagoevgrad 0–2 CSKA Sofia 0–0 0–2 Dobrudzha Dobrich 3–5 Marek Dupnitsa 2–1 1–4 (aet) 
49991634 Type 1936A Narvik Destroyer {{navy|Nazi Germany}} 1939–40 3,605 8 A Submarine {{navy|NOR}} 1914 268 3 Admiralty (a.k.a. Scott) Destroyer Flotilla Leader {{navy|UKGBI}} 1918–19 1,610–1,810 6 / 8 Aetos Destroyer {{navy|Greece|1935}} 1911 1,050 4 B Destroyer {{navy|Brazil}} 1930 1,360 9 
50000846 1 21 Narain Karthikeyan Carlin 2:15.676 2 2:12.887 1 — 1 2 22 Takuma Sato Carlin 2:16.380 4 2:13.146 2 +0.259 2 8 27 Enrico Toccacelo Prema Powerteam 2:18.577 18 2:14.056 8 +1.169 8 10 25 Gianmaria Bruni Fortec Motorsport 2:16.733 6 2:14.276 10 +1.389 10 11 6 Jonathan Cochet Promatecme 2:15.925 3 2:14.379 11 +1.492 11 
50004995 Chernolomets Popovo 2–1 Dunav Ruse Lokomotiv Mezdra 1–0 Vihren Sandanski Dimitrovgrad 1–3 Akademik Sofia Tundzha Yambol 2–4 (aet) Etar Veliko Tarnovo Belasitsa Petrich 1–2 Metalurg Pernik 
50011990 1999 Saturn Awards Best Actress {{sort|Mask|''The Mask of Zorro''}} {{nom}}  1999 MTV Movie Awards Best Breakthrough Performance {{sort|Mask|''The Mask of Zorro''}} {{nom}}  2000 Golden Raspberry Awards Worst Actress Entrapment/
The Haunting {{nom}}  2001 Screen Actors Guild Outstanding Performance by a Cast in a Motion Picture Traffic {{won}}  2001 Chicago Film Critics Association Best Supporting Actress Traffic {{nom}}  
50047744 1 Jamie McMurray Chip Ganassi Racing Chevrolet 2 Brad Keselowski Team Penske Ford 3 Austin Dillon Richard Childress Racing Chevrolet 4 Kevin Harvick Stewart-Haas Racing Chevrolet 5 Kasey Kahne Hendrick Motorsports Chevrolet 
50055768 Lokomotiv Plovdiv 2–3 Dobrudzha Dobrich 1–0 1–3 Dimitrovgrad 2–4 Slavia Sofia 1–1 1–3 Levski Karlovo 2–5 Botev Plovdiv 1–1 1–4 Spartak Pleven 1–0 Akademik Svishtov 1–0 0–0 Shumen 0–6 Cherno More Varna 0–1 0–5 
50057215 Svetkavitsa 1–7 Spartak Pleven 0–1 1–6 Pirin Blagoevgrad 1–6 Marek Dupnitsa 0–3 1–3 Botev Plovdiv 3–3 (8–7p) Septemvri Sofia 2–0 1–3 Lokomotiv Sofia 3–2 Montana 2–1 1–1 Minyor Pernik 0–1 Slavia Sofia 0–0 0–1 
50071398 FC Shakhtyor Shakhty 2–0 FC Yelets Torpedo Taganrog 1–4 FC SKA Rostov-on-Don FC Kuban Krasnodar 3–0 FC Venets Gulkevichi FC Vityaz Krymsk 1–0 FC Slavyansk FC Dynamo Stavropol 4–1 FC Kavkazkabel Prokhladny 
50075194 Rodopa Smolyan 3–4 Belasitsa Petrich 2–1 1–3 Balkan Botevgrad 3–3(a) Neftochimic Burgas 3–1 0–2 Dunav Ruse 7–5 Botev Ihtiman 6–2 1–3 Dobrudzha Dobrich 4–7 Haskovo 3–1 1–6 (aet) Yantra Gabrovo 3–2 Bdin Vidin 3–0 0–2 
50081663 1 Jamie McMurray Chip Ganassi Racing Chevrolet 2 Brad Keselowski Team Penske Ford 3 Austin Dillon Richard Childress Racing Chevrolet 4 Kevin Harvick Stewart-Haas Racing Chevrolet 5 Kasey Kahne Hendrick Motorsports Chevrolet 
50097932 2 {{Flagicon|Belgium}} Kenny Van Hoevelen CB 2014 {{Flagicon|Belgium}} Mechelen 4 {{Flagicon|France}} Romain Reynaud CB 2014 {{Flagicon|Belgium}} Kortrijk 16 {{Flagicon|Greece}} Konstantinos Rougalas CB 2015 {{Flagicon|Greece}} Iraklis 8 {{Flagicon|Ivory Coast}}/{{Flagicon|France}} Flavien Le Postollec CM 2014 {{Flagicon|Belgium}} Mons 10 {{Flagicon|France}} Yohan Croizet AM 2014 {{Flagicon|Belgium}} Virton 
50128915 May 5, 2014 Vienna Austria Bank Austria Halle May 8, 2014 Stuttgart Germany Hanns-Martin-Schleyer-Halle May 9, 2014 Frankfurt Germany Festhalle Frankfurt May 10, 2014 Esch-sur-Alzette Luxembourg Rockhal May 16, 2014 Hanover Germany Swiss Life Hall 
50148974 2 55 Chaz Mostert Rod Nash Racing Ford FG X Falcon 1:30.5051 3 1 Mark Winterbottom Prodrive Racing Australia Ford FG X Falcon 1:30.6503 9 12 Fabian Coulthard DJR Team Penske Ford FG X Falcon 1:30.9669 10 17 Scott Pye DJR Team Penske Ford FG X Falcon 1:30.9730 12 14 Tim Slade Brad Jones Racing Holden VF Commodore 1:31.0659 
50173336 Asenovets Asenovgrad 1–5 Neftochimic Burgas 1–2 0–3 Yantra Gabrovo 0–5 Dunav Ruse 0–0 0–5 Dobrudzha Dobrich 2–3 Litex Lovech 2–1 0–2 Rilski Sportist 3–4 Arda Kardzhali 3–0 0–4 Botev Ihtiman 3–6 Rozova Dolina 1–1 2–5 
50229805 1 Jamie McMurray Chip Ganassi Racing Chevrolet 2 Brad Keselowski Team Penske Ford 3 Austin Dillon Richard Childress Racing Chevrolet 4 Kevin Harvick Stewart-Haas Racing Chevrolet 5 Kasey Kahne Hendrick Motorsports Chevrolet 
50235025 &nbsp; Wesley Maley None 1900–1909 &nbsp; Samuel Haynes None 1894–1910 &nbsp; Charles Piesse None 1894–1914 &nbsp; Joseph Cullen None 1909–1910 &nbsp; Samuel Haynes None 1894–1910 &nbsp; Charles Piesse None 1894–1914 &nbsp; Joseph Cullen Liberal 1910–1917 &nbsp; Cuthbert McKenzie Liberal 1910–1914 &nbsp; Charles Piesse Liberal 1910–1914 &nbsp; Alec Thomson Country 1931–1950 &nbsp; Charles Wittenoom Country 1928–1940 &nbsp; Harold Piesse Ind. Country 1932–1938 &nbsp; Alec Thomson Country 1931–1950 &nbsp; Charles Wittenoom Country 1928–1940 &nbsp; Harold Piesse Country 1938–1944 
50236859 14 July 2000 FW Mark McCammon Charlton Athletic £300,000  21 July 2000 MF Eddie Hutchinson Sutton United £75,0000  28 July 2000 DF Jay Lovett Crawley Town £75,000  1 September 2000 DF Simon Marsh Birmingham City 1 October 2000  12 September 2000 DF Jason Crowe Portsmouth 12 November 2000  
50254243 2012–13 Sault Ste. Marie Greyhounds OHL  62 26 25 51 12  6 2 2 2013–14 Sault Ste. Marie Greyhounds OHL  66 31 60 91 22  9 2 4 2013–14 Charlotte Checkers AHL  1 0 0 0 0  — — — 2014–15 Sault Ste. Marie Greyhounds OHL  61 30 65 95 10  14 4 10 2015–16 Charlotte Checkers AHL  72 14 22 36 28  — — — 
50258153 La Calera Cundinamarca zipa 2718 317 Petrographs found File:Colombia - Cundinamarca - La Calera.svg Cogua Cundinamarca zipa 2600 113 Muisca ceramics production
Petrographs found File:Colombia - Cundinamarca - Cogua.svg Cota Cundinamarca zipa 2566 55 Petrographs found
Still Muisca people living File:Colombia - Cundinamarca - Cota.svg Facatativá Cundinamarca zipa 2586 158 Piedras del Tunjo File:Colombia - Cundinamarca - Facatativá.svg Funza Cundinamarca zipa 2548 70 Important market town File:Colombia - Cundinamarca - Funza.svg 
502975 1996–97 Colorado Avalanche NHL  1 0 1 0 — 60 3 0 3.00 .885  — — — — — — 1996–97 Hershey Bears AHL  — — — — — — — — — —  4 1 0 56 1 0 1997–98 Hershey Bears AHL  47 17 23 4 — 2588 125 1 2.90 .899  6 3 3 346 15 0 1998–99 Hershey Bears AHL  52 20 23 5 — 2908 137 4 2.83 .914  3 1 1 143 7 0 1998–99 Colorado Avalanche NHL  4 1 1 1 — 217 9 0 2.49 .918  — — — — — — 
50299740 Lokomotiv Sofia 7–2 Spartak Plovdiv 6–0 1–2 Slavia Sofia 6–2 Litex Lovech 4–1 2–1 Pirin Blagoevgrad 2–3 Lokomotiv Plovdiv 2–0 0–3 Dobrudzha Dobrich 3–5 Shumen 1–1 2–4 Minyor Pernik 3–5 Dunav Ruse 3–1 0–4 
50305595 1978-79  18-03-1979 Omonia Makario Stadium 1 &ndash; 1 1979-80  24-11-1979 Omonia Makario Stadium 1 &ndash; 0 1979-80  23-10-1980 APOEL Makario Stadium 1 &ndash; 2 1980-81  04-01-1981 Omonia Makario Stadium 2 &ndash; 1 1980-81  04-04-1981 APOEL Makario Stadium 1 &ndash; 0 
50308157 1 Jamie McMurray Chip Ganassi Racing Chevrolet 2 Brad Keselowski Team Penske Ford 3 Austin Dillon Richard Childress Racing Chevrolet 4 Kevin Harvick Stewart-Haas Racing Chevrolet 5 Kasey Kahne Hendrick Motorsports Chevrolet 
50336126 1 Star Wars: The Force Awakens 2015 $149,202,860 $247,966,675 {{red|-39.8}} 2 Avengers: Endgame 2019 $147,383,211 $357,115,007 {{red|-58.7}} 3 Avengers: Infinity War 2018 $114,774,810 $257,698,183 {{Red|-55.5}} 5 Jurassic World 2015 $106,588,440 $208,806,270 {{red|-49.0}} 8 Incredibles 2 2018 $80,347,651 $182,687,905 {{red|-56.0}} 
50348868 2011–12 Guelph Storm OHL  61 6 11 17 117  6 0 2 2012–13 Guelph Storm OHL  43 13 9 22 68  5 0 0 2013–14 Guelph Storm OHL  29 10 25 35 49  18 10 7 2014–15 Guelph Storm OHL  68 43 55 98 91  9 6 2 2014–15 Grand Rapids Griffins AHL  2 1 0 1 0  14 7 5 
50352039 1 Jamie McMurray Chip Ganassi Racing Chevrolet 2 Brad Keselowski Team Penske Ford 3 Austin Dillon Richard Childress Racing Chevrolet 4 Kevin Harvick Stewart-Haas Racing Chevrolet 5 Kasey Kahne Hendrick Motorsports Chevrolet 
50352145 3 January 2017 MF {{flagicon|WAL}} Lewis Bamford Free agent Released  9 January 2017 LM {{flagicon|ENG}} Jack Jebb Free agent Released  14 February 2017 CM {{flagicon|FRA}} Maxime Blanchard Free agent Released  30 June 2017 CB {{flagicon|WAL}} Liam Angel Free agent Released  30 June 2017 CB {{flagicon|WAL}} Darren Jones Free agent Released  
50394431 19 Alisson {{flagicon|BRA}} GK {{birth date and age2|2017|6|30|df=yes|1992|2|10}} Internacional 2016 2021 15 0 3 Juan Jesus {{flagicon|BRA}} CB / LB {{birth date and age2|2017|6|30|df=yes|1991|6|10}} Internazionale 2016 2017 33 0 13 Bruno Peres {{flagicon|BRA}} RB / RM {{birth date and age2|2017|6|30|df=yes|1990|3|1}} Torino 2016 2017 44 2 15 Thomas Vermaelen {{flagicon|BEL}} CB {{birth date and age2|2017|6|30|df=yes|1985|11|14}} Barcelona 2016 2017 12 0 20 Federico Fazio {{flagicon|ARG}} CB {{birth date and age2|2017|6|30|df=yes|1987|3|17}} Tottenham Hotspur 2016 2017 48 4 
50396633 1 Behat Saharanpur Naresh Saini INC Mahaveer Singh Rana BJP 25,586 2 Nakur Saharanpur Dr. Dharam Singh Saini BJP Imran Masood INC 4,057 3 Saharanpur Nagar Saharanpur Sanjay Garg SP Rajiv Gumber BJP 4,636 5 Deoband Saharanpur Brijesh Singh BJP Majid Ali BSP 29,400 10 Shamli Shamli Tejendra Nirwal BJP Pankaj Kumar Malik INC 29,720 
50406304 5 Zander Diamond CB {{flagicon|SCO}} Alexandria {{Birth date and age|1985|3|13|df=y}} 125 5 Burton Albion 7 May 2014 Free 2017 6 Gabriel Zakuani CB {{flagicon|DRC}} Kinshasa {{Birth date and age|1986|05|31|df=y}} 25 2 Peterborough United 24 June 2016 Free 2017 22 Lewin Nyatanga CB {{flagicon|WAL}} Burton (ENG) {{Birth date and age|1988|08|18|df=y}} 42 0 Barnsley 8 August 2016 Loan 2017 28 Rod McDonald CB {{flagicon|ENG}} Liverpool {{Birth date and age|1992|4|11|df=y}} 37 3 Telford United 28 July 2015 Free 2018 8 Hiram Boateng CM {{flagicon|ENG}} Wandsworth {{Birth date and age|1996|1|8|df=y}} 16 0 Crystal Palace 31 December 2016 Loan 2017 
50414301 1 6 Cameron Waters Prodrive Racing Australia Ford FG X Falcon 59.6256 2 55 Chaz Mostert Rod Nash Racing Ford FG X Falcon 59.8877 5 1 Mark Winterbottom Prodrive Racing Australia Ford FG X Falcon 1:00.0960 7 22 James Courtney Holden Racing Team Holden VF Commodore 1:00.5442 8 111 Chris Pither Super Black Racing Ford FG X Falcon 1:00.5452 
50437078 Botev Vratsa 4–5 Cherno More Varna 4–3 0–2 Haskovo 2–4 Neftochimic Burgas 1–1 1–3 Spartak Pleven 5–3 Dimitrovgrad 4–0 1–3 Pirin Blagoevgrad (a)3–3 Lokomotiv Sofia 2–0 1–3 Lokomotiv Plovdiv 10–3 Spartak Plovdiv 7–1 3–2 
50482715 1 July 2016 CF {{flagicon|ENG}} Stuart Callaway Free agent Released  1 July 2016 CF {{flagicon|ENG}} Nathan Delfouneso Swindon Town {{Efn|Following Delfouneso's release, he signed for Swindon Town.}} Released  1 July 2016 CF {{flagicon|ENG}} Anton Forrester Port Vale{{Efn|Following Forrester's release, he signed for Port Vale.}} Released  1 July 2016 CF {{flagicon|ENG}} Devarn Green Free agent Released  1 July 2016 CF {{flagicon|CAN}} Simeon Jackson Walsall {{Efn|Following Jackson's release, he signed for Walsall.}} Released  
50522418 Dunav Ruse 0–3 Chernomorets Burgas 0–1 0–2 Cherno More Varna 5–3 Bdin Vidin 4–1 1–2 Pirin Blagoevgrad 3–1 Etar Veliko Tarnovo 3–0 0–1 Lokomotiv Plovdiv 4–1 Marek Dupnitsa 4–0 0–1 Rozova Dolina 2–3 Shumen 2–1 0–2 
5058074 Bukit Panjang SMC 1 30,452 {{SG/PAP}} Teo Ho Pin 21,652 {{composition bar|77.18|100|#008FDB}} Bukit Panjang SMC 1 30,452 {{SG/SDP}} Ling How Doong 6,400 {{composition bar|22.82|100|#FF0000}} Chua Chu Kang SMC 1 24,975 {{SG/PAP}} Gan Kim Yong 14,156 {{composition bar|60.37|100|#008FDB}} Chua Chu Kang SMC 1 24,975 {{SG/SDA}} Steve Chia Kiah Hong 9,292 {{composition bar|39.63|100|#FF0000}} Hougang SMC 1 23,759 {{SG/PAP}} Eric Low Siak Meng 8,308 {{composition bar|37.26|100|#008FDB}} 
50581252 1 14 Tim Slade Brad Jones Racing Holden VF Commodore 1:19.0660 2 1 Mark Winterbottom Prodrive Racing Australia Ford FG X Falcon 1:19.0974 3 6 Cameron Waters Prodrive Racing Australia Ford FG X Falcon 1:19.2212 6 18 Lee Holdsworth Charlie Schwerkolt Racing Holden VF Commodore 1:19.3031 7 19 Will Davison Tekno Autosports Holden VF Commodore 1:19.3455 
50585964 Vihren Sandanski 0–5 Lokomotiv Sofia 0–2 0–3 Pirin Blagoevgrad 3–2 Bdin Vidin 2–2 1–0 Lokomotiv StZ 3–5 Botev Vratsa 3–1 0–4 Minyor Pernik 0–1 Hebar Pazardzhik 0–0 0–1 Lokomotiv Plovdiv 3–9 Sliven 2–3 1–6 
50615601 1 Jamie McMurray Chip Ganassi Racing Chevrolet 2 Brad Keselowski Team Penske Ford 3 Austin Dillon Richard Childress Racing Chevrolet 4 Kevin Harvick Stewart-Haas Racing Chevrolet 5 Kasey Kahne Hendrick Motorsports Chevrolet 
50619733 1959–60  7 February 1960  Apostolos Nikolaidis  1–0  11,441  17 July 1960  Toumba Stadium  0–2  4,962  1960–61  19 February 1961  Apostolos Nikolaidis  2–0  N/A  2 October 1960  Toumba Stadium  0–1  N/A  1961–62  17 December 1961  Apostolos Nikolaidis  3–1  22,449  20 May 1962  Toumba Stadium  2–1  N/A  1962–63  3 December 1962  Apostolos Nikolaidis  2–1  24,229  28 April 1963  Toumba Stadium  1–1  20,131  1963–64  19 April 1964  Apostolos Nikolaidis  4–0  18,374  15 December 1963  Toumba Stadium  0–1  13,874  
50625975 December 1945 FW Gerry McAloon Wolverhampton Wanderers £500 {{Sfn|White|1989|p=182}} January 1946 FW Jim Gotts Ashington Free {{Sfn|Haynes & Coumbe|2006|p=68}} 25 August 1945 FW Douglas Hunt Sheffield Wednesday 24 November 1945  25 August 1945 GK Johnny Mapson Sunderland 15 September 1945  25 August 1945 FW Paddy Sloan Tranmere Rovers 29 September 1945  
50655088 September 8, 2016 Buenos Aires Argentina Opera Allianz Theatre rowspan="10" {{n/a}} September 9, 2016 Buenos Aires Argentina Opera Allianz Theatre September 10, 2016 Buenos Aires Argentina Opera Allianz Theatre September 11, 2016 Buenos Aires Argentina Opera Allianz Theatre October 8, 2016 Mar del Plata Argentina Estadio Islas Malvinas 
50677458 1 33 Alex Tagliani Forsythe Racing 31.935 228.727  2 6 Cristiano da Matta Newman/Haas Racing 32.009 228.198 +0.074 4 77 Bryan Herta Forsythe Racing 32.100 227.551 +0.165 5 11 Christian Fittipaldi Newman/Haas Racing 32.117 227.431 +0.178 6 7 Max Papis Team Rahal 32.124 227.381 +0.189 
50695283 1 July 2016 CF {{flagicon|ENG}} Ryan Donaldson Cambridge United Free transfer  1 July 2016 CF {{flagicon|SCO}} David Goodwillie Aberdeen Free transfer  1 July 2016 CB {{flagicon|ENG}} Karleigh Osborne Bristol City Free transfer  1 July 2016 CF {{flagicon|ENG}} Jordan Slew Chesterfield Free transfer  1 July 2016 CM {{flagicon|IRL}} Connor Smith AFC Wimbledon Undisclosed  
50706252 Botev Plovdiv 5–5(a) Dobrudzha Dobrich 4–2 1–3 Spartak Pleven 1–4 Marek Dupnitsa 1–0 0–4 Montana 2–4 Yantra Gabrovo 2–1 0–3 Akademik Svishtov 4–6 Lokomotiv StZ 4–2 0–4 Velbazhd Kyustendil 1–7 Sliven 1–1 0–6 
50717541 1988 Thanthram Joshi Church Priest 1989 Adharvam Dennis Joseph Brahmin 1990 Innale Padmarajan Hospital Attender 1990 Varthamana Kaalam I.V Sasi Doctor 1991 Mukha Chitram Suresh Unnithan Registrar in Office 
50762986 August 4, 2016 Columbus United States Running Aces Casino August 8, 2016 Dallas United States Gas Monkey Live August 14, 2016 Detroit United States Chene Park Amphitheater September 2, 2016 Las Vegas United States Orleans Arena September 4, 2016 Santa Ana United States Yost Theater 
50767770 Lokomotiv GO 0–6 Levski Sofia 0–1 0–5 Chernomorets Burgas 4–0 Spartak Pleven 4–0 0–0 Dorostol Silistra 1–3 Lokomotiv Sofia 0–0 1–3 Svetkavitsa 2–4 Hebar Pazardzhik 2–1 0–3 Dobrudzha Dobrich 2–6 Botev Plovdiv 1–1 1–5 
50788116 1930 Hamilton Ontario Canada 1934 London England United Kingdom 1938 Sydney New South Wales Australia 1954 Vancouver British Columbia Canada 1958 Cardiff Wales United Kingdom 
50800361 {{gold medal}} Uwe Mehlmann Athletics Men's 200m B3 {{gold medal}} Heinrich Koeberle Athletics Men's marathon TW1 {{gold medal}} Gunther Belitz Athletics Men's long jump J1 {{gold medal}} Joerg Frischmann Athletics Men's shot put THS2 {{gold medal}} Siegmund Hegeholz Athletics Men's javelin throw B2 
50805970 {{gold medal}} Mustapha Badid Athletics Men's 200m A1-3/A9/L2 {{gold medal}} Farid Amarouche Athletics Men's 400m 4 {{gold medal}} Farid Amarouche Athletics Men's 1500m 4 {{gold medal}} Mustapha Badid Athletics Men's 1500m A1-3/A9/L2 {{gold medal}} Farid Amarouche Athletics Men's 5000m 4 
50808389 1995–96 Vardar QR Samtredia 1–0 2–0 3–0 1995–96 Vardar R1 Bordeaux 0–2 1–1 1–3 1996–97 Vardar QR Halmstad 0–1 0–0 0–1 1999–2000 Sileks QR Shakhtar Donetsk 2–1 1–3 3–4 1999–2000 Vardar QR Legia Warsaw 0–5 0–4 0–9 
50811431 {{silver medal}} Michael Halika 1997 Summer Swimming Men's 400 m individual medley {{silver medal}} Michael Halika 1999 Summer Swimming Men's 400 m individual medley {{silver medal}} Wodage Zvadya 2001 Summer Athletics Men's half marathon {{gold medal}} Aleksandr Averbukh 2001 Summer Athletics Men's pole vault {{bronze medal}} Michael Halika 2003 Summer Swimming Men's 400 m individual medley 
50812637 3 19 Will Davison Tekno Autosports Holden VF Commodore 1:06.2491 4 55 Chaz Mostert Rod Nash Racing Ford FG X Falcon 1:06.3224 5 1 Mark Winterbottom Prodrive Racing Australia Ford FG X Falcon 1:06.3452 8 14 Tim Slade Brad Jones Racing Holden VF Commodore 1:06.4153 9 17 Scott Pye DJR Team Penske Ford FG X Falcon 1:06.4243 
50844027 Svilengrad 1–3 Dobrudzha Dobrich 1–0 0–3 (w/o) Septemvri Sofia 4–2 Minyor Pernik 4–0 0–2 Yantra Gabrovo 2–0 Lokomotiv Plovdiv 2–0 0–0 Levski Sofia 5–0 Cherno More Varna 4–0 1–0 CSKA Sofia 4–2 Etar Veliko Tarnovo 4–1 0–1 
50874158 Northern 18 Jaffna 207 Chavakachcheri      Northern 18 Jaffna 208 Delft      Northern 18 Jaffna 209 Karainagar      Northern 18 Jaffna 210 Kayts      Northern 18 Jaffna 211 Nallur      
50892448 30 August 1941 FW Douglas Hunt Sheffield Wednesday End of season  30 August 1941 HB Duncan McKenzie Middlesbrough End of season  25 October 1941 GK Sam Bartram Charlton Athletic 25 October 1941  25 October 1941 FW Albert Bonass Queens Park Rangers 25 October 1941  1 November 1941 GK George Poland Wrexham 25 April 1942  
5089368 Chevrolet BACE Motorsports 33 Tony Raines {{Tooltip|12|3, 5-6, 9-10, 13, 19, 24, 26-28, 32}} Chevrolet Chance 2 Motorsports 8 Steve Park {{Tooltip|1|3}} Chevrolet Chance 2 Motorsports 8 Tony Stewart {{Tooltip|1|23}} Chevrolet FitzBradshaw Racing 14 Casey Atwood {{Tooltip|12|16-18, 20, 24-27, 29-30, 32, 34}} Chevrolet FitzBradshaw Racing 82 Casey Atwood {{Tooltip|3|13, 19, 31}} 
50899045 29 August 1942 FW Albert Bonass Queens Park Rangers 29 August 1942  29 August 1942 FW Douglas Hunt Sheffield Wednesday End of season  29 August 1942 GK Bill Mason Queens Park Rangers 29 August 1942  29 August 1942 HB Duncan McKenzie Middlesbrough End of season  26 September 1942 FW Reg Pugh Cardiff City 26 September 1942  
50903607 1 Jamie McMurray Chip Ganassi Racing Chevrolet 2 Brad Keselowski Team Penske Ford 3 Austin Dillon Richard Childress Racing Chevrolet 4 Kevin Harvick Stewart-Haas Racing Chevrolet 5 Kasey Kahne Hendrick Motorsports Chevrolet 
50910981 28 August 1943 FW Douglas Hunt Sheffield Wednesday End of season  28 August 1943 HB Duncan McKenzie Middlesbrough 22 January 1944  11 September 1943 FW Harry Thompson Sunderland 11 September 1943  18 September 1943 FW Peter McKennan Partick Thistle 10 April 1944  18 September 1943 HB Frank Soo Stoke City 18 March 1944  
50919844 Cherno More Varna 3–2 Lokomotiv Plovdiv 1–0 2–2 Slavia Sofia 0–3 Litex Lovech 0–3 0–0 Lokomotiv Sofia (a)2–2 Beroe Stara Zagora 1–0 1–2 Spartak Plovdiv 1–4 CSKA Sofia 1–1 0–3 (w/o) Chernomorets Burgas 3–0 Maritsa Plovdiv 2–0 1–0 
50921019 1944 HB Albert Hammond Queens Park Rangers Amateur  26 August 1944 FW Douglas Hunt Sheffield Wednesday 28 April 1945  26 August 1944 HB Frank Soo Stoke City 10 February 1945  14 October 1944 DF Cliff Lloyd Wrexham 28 October 1944  23 December 1944 HB Matt Busby Liverpool 23 December 1944  
50923703 400 metres Anyika Onuora 51.87 Christine Ohuruogu 52.04 Shana Cox 52.64 1500 metres Laura Muir 4:10.37 Laura Weightman 4:14.83 Jessica Judd 4:16.08 5000 metres Stephanie Twell 15:38.01 Laura Whittle 15:41.13 Kate Avery 15:48.37 100 metres hurdles Tiffany Porter 12.83 Cindy Ofili 12.96 Jessica Ennis-Hill 13.10 400 metres hurdles Eilidh Doyle 55.57 Meghan Beesley 56.81 Hayley McLean 58.60 
50949435 2 21 Johnny Sauter GMS Racing Chevrolet 49.910 49.976 3 17 Timothy Peters Red Horse Racing Toyota 50.242 50.086 4 2 Austin Theriault Brad Keselowski Racing Ford 50.370 50.235 6 88 Matt Crafton ThorSport Racing Toyota 50.323 50.294 7 05 John Wes Townley Athenian Motorsports Chevrolet 50.215 50.313 
50958603 1 Jamie McMurray Chip Ganassi Racing Chevrolet 2 Brad Keselowski Team Penske Ford 3 Austin Dillon Richard Childress Racing Chevrolet 4 Kevin Harvick Stewart-Haas Racing Chevrolet 5 Kasey Kahne Hendrick Motorsports Chevrolet 
50988596 1 R3 Red Bull Ring April 30–May 1 Adam Lacko Adam Lacko Adam Lacko Buggyra International Racing System 1 R4 Red Bull Ring April 30–May 1  Adam Lacko Adam Lacko Buggyra International Racing System 2 R1 Misano World Circuit May 28-29 Adam Lacko Adam Lacko Adam Lacko Buggyra International Racing System 2 R2 Misano World Circuit May 28-29  Adam Lacko Adam Lacko Buggyra International Racing System 2 R3 Misano World Circuit May 28-29 Adam Lacko Jochen Hahn Adam Lacko Buggyra International Racing System 
50996616 1 Jamie McMurray Chip Ganassi Racing Chevrolet 2 Brad Keselowski Team Penske Ford 3 Austin Dillon Richard Childress Racing Chevrolet 4 Kevin Harvick Stewart-Haas Racing Chevrolet 5 Kasey Kahne Hendrick Motorsports Chevrolet 
50998501 3 22 James Courtney Holden Racing Team Holden VF Commodore 1:12.4368 4 55 Chaz Mostert Rod Nash Racing Ford FG X Falcon 1:12.4544 5 1 Mark Winterbottom Prodrive Racing Australia Ford FG X Falcon 1:12.4554 6 19 Will Davison Tekno Autosports Holden VF Commodore 1:12.4952 7 14 Tim Slade Brad Jones Racing Holden VF Commodore 1:12.5399 
51040618 — Soyuz TM-1  Soyuz TM
11F732A51 #51 21 May 1986 30 May 1986 None Mir {{Success}} 55 Soyuz TM-2  Soyuz TM
11F732A51 #52 5 February 1987 30 July 1987 {{Flagicon|CCCP}} Yuri Romanenko, {{Flagicon|CCCP}} Aleksandr Laveykin Mir rowspan="2" {{Success}} 55 Soyuz TM-2  Soyuz TM
11F732A51 #52 5 February 1987 30 July 1987 {{Flagicon|CCCP}} Aleksandr Viktorenko, {{Flagicon|CCCP}} Aleksandr Laveykin, {{Flagicon|Syria}} Muhammed Faris Mir 56 Soyuz TM-3 File:Soyuz_TM-3_mission_patch.svg Soyuz TM
11F732A51 #53 22 July 1987 29 December 1987 {{Flagicon|CCCP}} Alexander Viktorenko, {{Flagicon|CCCP}} Aleksandr Aleksandrov, {{Flagicon|Syria}} Muhammed Faris Mir rowspan="2" {{Success}} 56 Soyuz TM-3 File:Soyuz_TM-3_mission_patch.svg Soyuz TM
11F732A51 #53 22 July 1987 29 December 1987 {{Flagicon|CCCP}} Yuri Romanenko, {{Flagicon|CCCP}} Aleksandr Aleksandrov, {{Flagicon|CCCP}} Anatoli Levchenko Mir 
51045097 1961 {{sortname|Paul|Hornung}} Running back Green Bay Packers  1963 {{sortname|Y. A.|Tittle}} Quarterback New York Giants  1964 {{sortname|Johnny|Unitas}} {{small|(2)}} Quarterback Baltimore Colts  1965 {{sortname|Jim|Brown}} {{small|(3)}} Running back Cleveland Browns  1966 {{sortname|Bart|Starr}} Quarterback Green Bay Packers  
51064174 1 Jamie McMurray Chip Ganassi Racing Chevrolet 2 Brad Keselowski Team Penske Ford 3 Austin Dillon Richard Childress Racing Chevrolet 4 Kevin Harvick Stewart-Haas Racing Chevrolet 5 Kasey Kahne Hendrick Motorsports Chevrolet 
51098920 1 Jamie McMurray Chip Ganassi Racing Chevrolet 2 Brad Keselowski Team Penske Ford 3 Austin Dillon Richard Childress Racing Chevrolet 4 Kevin Harvick Stewart-Haas Racing Chevrolet 5 Kasey Kahne Hendrick Motorsports Chevrolet 
51133460 4 1 Mark Winterbottom Prodrive Racing Australia Ford FG X Falcon 38 +1.3 s 7 120 5 55 Chaz Mostert Rod Nash Racing Ford FG X Falcon 38 +1.8 s 2 111 6 14 Tim Slade Brad Jones Racing Holden VF Commodore 38 +7.3 s 9 102 7 19 Will Davison Tekno Autosports Holden VF Commodore 38 +25.4 s 10 96 10 12 Fabian Coulthard DJR Team Penske Ford FG X Falcon 38 +27.5 s 6 78 
51159908 {{tooltip|4|Round 4}} 03.10.1920 A Simmering 2-1  Wieser {{goal|25}}, Uridil J. {{goal|75}} {{tooltip|5|Round 5}} 10.10.1920 H Wiener SC 6-0 6,000 Uridil J. {{goal|5}} {{goal|76}}, Wieser {{goal|43}} {{goal|90}}, Kuthan {{goal|45}}, Bauer E. {{goal|46}} {{tooltip|7|Round 7}} 24.10.1920 H Amateure 1-0 10,000 Uridil J. {{goal|41}} {{tooltip|8|Round 8}} 14.11.1920 A Hakoah 1-1 20,000 Uridil J. {{goal|60}} {{tooltip|9|Round 9}} 21.11.1920 H Wiener AF 4-2 3,000 Armesberger {{goal|38|o.g.}}, Uridil J. {{goal|39}} {{goal|44}} {{goal|87}} 
51160074 {{tooltip|3|Round 3}} 11.09.1927 A Wiener AC 4-1 18,000 Horvath {{goal|3}} {{goal|84}}, Luef {{goal|53}}, Smistik J. {{goal|67}} {{tooltip|4|Round 4}} 09.10.1927 A Austria Wien 2-1 16,000 Weselik {{goal|20}}, Horvath {{goal|43}} {{tooltip|7|Round 7}} 23.10.1927 A Simmering 3-1 6,500 Weselik {{goal|19}}, Kuthan {{goal|33}}, Wesely {{goal|46|pen.}} {{tooltip|8|Round 8}} 11.12.1927 H Wiener SC 5-2 5,000 Weselik {{goal|23}} {{goal|42}} {{goal|82}} {{goal|87}}, Luef {{goal|37}} {{tooltip|9|Round 9}} 01.11.1927 A Slovan Wien 1-2 8,000 Wesely {{goal|24}} 
51166774 Best Debut Director Gauravv K Chawla Zee Cine Awards Baazaar 2018 Nominated Best Direction (Fiction) Nikkhil Advani Asian Television Awards P.O.W. - Bandi Yuddh Ke 2017 Won Best Actor in Leading Role Satyadeep Misra Asian Television Awards P.O.W. - Bandi Yuddh Ke 2017 Nominated Best Actor (Drama) Purab Kohli Indian Television Academy Awards P.O.W. - Bandi Yuddh Ke 2017 Won Best Director (Drama) Nikkhil Advani Indian Television Academy Awards P.O.W. - Bandi Yuddh Ke 2017 Nominated 
51180690 {{dts|format=dmy|2016|7|30}} 3rd Royal Excel Mouscron A W 2–1 Acheampong 62', Sylla 65' 7,000  {{dts|format=dmy|2016|8|21}} 2nd AS Eupen A D 2–2 Capel 21', Teodorczyk 46' 5,221  {{dts|format=dmy|2016|9|18}} 2nd Genk A W 2–0 Mbodji 64', Harbaoui 76' 19,570  {{dts|format=dmy|2016|10|23}} 2nd Club Brugge A L 1–2 Teodorczyk 87' 27,106  {{dts|format=dmy|2016|10|30}} 2nd Waasland-Beveren A L 1–2 Teodorczyk 10' 7,098  
51188664 1 Jamie McMurray Chip Ganassi Racing Chevrolet 2 Brad Keselowski Team Penske Ford 3 Austin Dillon Richard Childress Racing Chevrolet 4 Kevin Harvick Stewart-Haas Racing Chevrolet 5 Kasey Kahne Hendrick Motorsports Chevrolet 
51201429 2007/11/10 New Taipei Taiwan Banqiao Stadium Special Guest: Will Pan — 聽媽媽的話 (Listen to Mom)
Alan Ko — 本草綱目 (Chinese Herbal Manual)
Fei Yu-ching — 千里之外 (Far Away) 2007/11/24 Shanghai China Shanghai Stadium  2008/01/12 Guangzhou China Tianhe Stadium  2008/01/18 Singapore Singapore Singapore Indoor Stadium  2008/01/19 Singapore Singapore Singapore Indoor Stadium  
51241649 1952–53 {{dts|1953|5|1|format=dmy}} Rot-Weiss Essen 2–1 Alemannia Aachen Rheinstadion, Düsseldorf 37,000 1954–55 {{dts|1955|5|21|format=dmy}} Karlsruher SC 3–2 Schalke 04 Eintracht-Stadion, Braunschweig 25,000 1955–56 {{dts|1956|8|5|format=dmy}} Karlsruher SC 3–1 Hamburger SV Wildparkstadion, Karlsruhe 25,000 1960–61 {{dts|1961|9|13|format=dmy}} Werder Bremen 2–0 1. FC Kaiserslautern Glückauf-Kampfbahn, Gelsenkirchen 18,000 1962–63 {{dts|1963|8|14|format=dmy}} Hamburger SV 3–0 Borussia Dortmund Niedersachsenstadion, Hanover 68,000 
51244248 1 Jamie McMurray Chip Ganassi Racing Chevrolet 2 Brad Keselowski Team Penske Ford 3 Austin Dillon Richard Childress Racing Chevrolet 4 Kevin Harvick Stewart-Haas Racing Chevrolet 5 Kasey Kahne Hendrick Motorsports Chevrolet 
51257702 1955–56 Uwe Seeler Hamburger SV 2 1964–65 Christian Breuer Alemannia Aachen 4 1980–81 Horst Hrubesch Hamburger SV 7 1986–87 Dirk Kurtenbach Stuttgarter Kickers 8 1987–88 Stefan Kuntz Bayer Uerdingen 5 
5127600 Y00 {{STN|Takamatsu|Kagawa}} 高松 - 0.0 ● ● ■ Kōtoku Line (T28)
Kotoden Kotohira Line ({{STN|Takamatsu-Chikkō}}) ∥ Takamatsu Kagawa Y01 {{STN|Kōzai}} 香西 3.4 3.4 ｜ ｜ &nbsp; ∥ Takamatsu Kagawa &nbsp; Takamatsu Freight Terminal 高松貨物ターミナル 1.3 4.7 ｜ ｜ &nbsp; ∥ Takamatsu Kagawa Y02 {{STN|Kinashi}} 鬼無 1.4 6.1 ▲ ▲ &nbsp; ∥ Takamatsu Kagawa Y03 {{STN|Hashioka}} 端岡 3.4 9.5 ● ▲ &nbsp; ∥ Takamatsu Kagawa 
51282969 1954 Yugoslav Cup Round of 16 Lovćen - Spartak Subotica 0:4 File:Symbol delete vote.svg 1973 Yugoslav Cup Round of 16 Maribor - Lovćen 4:0 File:Symbol delete vote.svg 2007/08 Montenegrin Cup Round one Zabjelo Podgorica - Lovćen 0:0* File:Symbol keep vote.svg 2007/08 Montenegrin Cup Round of 16 Petrovac - Lovćen 2:0, 1:3 File:Symbol delete vote.svg 2008/09 Montenegrin Cup Round one Berane - Lovćen 1:1* File:Symbol keep vote.svg 
51349104 1 Jamie McMurray Chip Ganassi Racing Chevrolet 2 Brad Keselowski Team Penske Ford 3 Austin Dillon Richard Childress Racing Chevrolet 4 Kevin Harvick Stewart-Haas Racing Chevrolet 5 Kasey Kahne Hendrick Motorsports Chevrolet 
51374897 Browning Hi-Power Semi-automatic pistol Belgium 9mm Standard service pistol. Manufactured by DGFM, variants FM-95 and FM-02AR in use. FMK-3 Machine pistol Argentina 9mm  Heckler & Koch MP5 Submachine gun Germany 9mm Submachine gun endowment. FN FAL Battle rifle Belgium 7.62mm Standard service rifle. Manufactured by DGFM as FMAP FAL. Heckler & Koch HK33 Assault rifle Germany 5.56mm Used by Special Operations Group. 
51408990 1 Jamie McMurray Chip Ganassi Racing Chevrolet 2 Brad Keselowski Team Penske Ford 3 Austin Dillon Richard Childress Racing Chevrolet 4 Kevin Harvick Stewart-Haas Racing Chevrolet 5 Kasey Kahne Hendrick Motorsports Chevrolet 
51452453 1 Jamie McMurray Chip Ganassi Racing Chevrolet Bill Elliott's No. 94 Mac Tonight paint scheme from 1997 2 Brad Keselowski Team Penske Ford 1972 Miller Lite design 3 Austin Dillon Richard Childress Racing Chevrolet Ricky Rudd's 1983 car when he won RCR's first Cup race 4 Kevin Harvick Stewart-Haas Racing Chevrolet Cale Yarborough's 1979 Daytona 500 car 5 Kasey Kahne Hendrick Motorsports Chevrolet Terry Labonte's 1982 car 
515019 IJNAS A1N Nakajima Nakajima Navy Type 3 Carrier Fighter ||||||Single-engined biplane; obsolete in 1941 IJNAS A2N Nakajima Nakajima Navy Type 90 Carrier Fighter ||||||Single-engined biplane; obsolete in 1941 IJNAS A3N Nakajima Nakajima Navy Type 90 Training Fighter ||||||Single-engined two-seat biplane; obsolete in 1941 IJNAS A4N Nakajima Nakajima Navy Type 95 Carrier Fighter ||||||Single-engined biplane; obsolete in 1941 IJNAS A5M4-K Mitsubishi Mitsubishi Navy Type 96 Training Fighter ||||||Two-seat training fighter variant of A5M 
51536048 1 55 Chaz Mostert Rod Nash Racing Ford FG X Falcon 1:08.6147 3 66 Fabian Coulthard DJR Team Penske Ford FG X Falcon 1:08.7663 4 2 Garth Tander Holden Racing Team Holden VF Commodore 1:08.7905 6 19 Will Davison Tekno Autosports Holden VF Commodore 1:08.8142 8 22 James Courtney Holden Racing Team Holden VF Commodore 1:08.8444 
51538727 Peter Ebdon 4–0 Jamie Cope Dominic Dale 4–1 Thor Chuan Leong Barry Hawkins 4–0 Zhang Anda Noppon Saengkham 2–4 Rod Lawler Hamza Akbar 1–4 Alfie Burden 
51546256 2015 May 22 Jamai 420 Ravi Kinagi Ankush Hazra, Soham Chakraborty, Hiran Chatterjee, Mimi Chakraborty, Nusrat Jahan, Payel Sarkar Comedy The movie resembles Hindi movies like Housefull,Housefull 2 and Bengali movie Bye Bye Bangkok 2015 May 1 Nirbaak Srijit Mukherjee Anjan Dutt, Sushmita Sen, Jisshu Sengupta, Ritwick Chakraborty Drama  2015 January 23 Chotoder Chobi Kaushik Ganguly Dulal Sarkar,Debalina Roy Drama  2014 November 7 Khaad Kaushik Ganguly Kamaleshwar Mukherjee, Pallavi Chatterjee, Mimi Chakraborty, Rudranil Ghosh,Lily Chakraborty Adventure  2014 April 25 Apur Panchali Kaushik Ganguly Parambrata Chatterjee, Parno Mittra, Gaurav Chakraborty Biopic Based on the life of Subir Banerjee, the actor who played Apu in Pather Panchali (1955), the first film of Satyajit Ray's Apu trilogy 
51547163 1 Jamie McMurray Chip Ganassi Racing Chevrolet 2 Brad Keselowski Team Penske Ford 3 Austin Dillon Richard Childress Racing Chevrolet 4 Kevin Harvick Stewart-Haas Racing Chevrolet 5 Kasey Kahne Hendrick Motorsports Chevrolet 
51554206 British Army 7 United Kingdom Imperial Japanese Army 2 Japanese Empire University of Michigan 1 United States Yale University 1 United States University of Adelaide 1 Australia 
51616160 1 Jamie McMurray Chip Ganassi Racing Chevrolet 2 Brad Keselowski Team Penske Ford 3 Austin Dillon Richard Childress Racing Chevrolet 4 Kevin Harvick Stewart-Haas Racing Chevrolet 5 Kasey Kahne Hendrick Motorsports Chevrolet 
51700558 1 Jamie McMurray Chip Ganassi Racing Chevrolet 2 Brad Keselowski Team Penske Ford 3 Austin Dillon Richard Childress Racing Chevrolet 4 Kevin Harvick Stewart-Haas Racing Chevrolet 5 Kasey Kahne Hendrick Motorsports Chevrolet 
5172610  January 1659 Edward Pytts   May 1659 Nicholas Lechmere   1708 Hon. Henry Herbert Whig  1715 Grey James Grove Whig  1722 Crewe Offley Whig 
51775124 1 Jamie McMurray Chip Ganassi Racing Chevrolet 2 Brad Keselowski Team Penske Ford 3 Austin Dillon Richard Childress Racing Chevrolet 4 Kevin Harvick Stewart-Haas Racing Chevrolet 5 Kasey Kahne Hendrick Motorsports Chevrolet 
51780747 1936 Convention Hall McPherson Globe Refiners 47-35 Universal Pictures 1941 Denver Auditorium Arena 20th Century Fox 47-34 San Francisco Olympic Club 1947 Denver Auditorium Arena Phillips 66ers 62-41 Oakland Bittners 1949 Denver Auditorium Arena Oakland Bittners 55-51 Phillips 66ers 1952 Denver Auditorium Arena Peoria Cats 66-53 Phillips 66ers 
51813901 July 11, 2000 Detroit United States State Theatre July 12, 2000 Detroit United States State Theatre July 14, 2000 Worcester United States The Palladium July 15, 2000 Worcester United States The Palladium July 17, 2000 New York City United States Hammerstein Ballroom 
51828222 2 10 {{sortname|Heather|Anderson}} {{AFLW Ade}} Waratah NTFL 7 55 {{sortname|Sophie|Armitstead}} {{AFLW Ade}} Wanderers NTFL 8 57 {{sortname|Emma|Humphries|dab=Australian footballer}} {{AFLW Mel}} Burnie Dockers TFL 9 69 {{sortname|Ellyse|Gamble}} {{AFLW WB}} Burnie Dockers TFL 10 73 {{sortname|Lily|Mithen}} {{AFLW Mel}} North Geelong GDFL 
51854613 1 Jamie McMurray Chip Ganassi Racing Chevrolet 2 Brad Keselowski Team Penske Ford 3 Austin Dillon Richard Childress Racing Chevrolet 4 Kevin Harvick Stewart-Haas Racing Chevrolet 5 Kasey Kahne Hendrick Motorsports Chevrolet 
51926315 2016 Balkany Zoria Ahrobiznes Volochysk {{small|[[FC ODEK Orzhiv|ODEK]] / [[FC Vradiyivka|Vradiyivka]]}} 24 2015 Balkany Zoria Rukh Vynnyky {{small|[[FC ODEK Orzhiv|ODEK]] / [[FC Kolos Zachepylivka|Kolos]]}} 16 2014 Rukh Vynnyky AF Pyatykhatska {{small|[[FC Zoria Bilozirya|Zoria]] / [[FC Kolos Kovalivka|Kolos]]}} 21 2013 ODEK Orzhiv Rukh Vynnyky {{small|[[FC Zoria Bilozirya|Zoria]] / [[FC Lokomotyv Kupyansk|Lokomotyv]]}} 23 2012 Karpaty Kolomyia Lokomotyv Kupyansk {{small|[[FC Hvardiyets Hvardiyske|Hvardiyets]] / [[FC Sovinyon Tayirove|Sovinyon]]}} 18 
5194271 2006 British Soap Awards Sexiest Male {{nom}} EastEnders 2006 British Soap Awards Villain of the Year {{nom}} EastEnders 2007 British Soap Awards Sexiest Male {{nom}} EastEnders 2007 British Soap Awards Villain of the Year {{nom}} EastEnders 2007 Inside Soap Awards Sexiest Male {{nom}} EastEnders 
51951243 1 Jamie McMurray Chip Ganassi Racing Chevrolet 2 Brad Keselowski Team Penske Ford 3 Austin Dillon Richard Childress Racing Chevrolet 4 Kevin Harvick Stewart-Haas Racing Chevrolet 5 Kasey Kahne Hendrick Motorsports Chevrolet 
5195877 Peter Swart Democratic-Republican March 4, 1807 –
March 3, 1809 Elected in 1806.
Retired. Uri Tracy Democratic-Republican March 4, 1809 –
March 3, 1813 Redistricted from the {{ushr|NY|16|C}} and re-elected in 1808.
Re-elected in 1810.
{{dm}} Alexander Boyd Federalist March 4, 1813 –
March 3, 1815 Elected in 1812.
Retired. John B. Yates Democratic-Republican March 4, 1815 –
March 3, 1817 Elected in 1814.
Retired. Harmanus Peek Democratic-Republican March 4, 1819 –
March 3, 1821 Elected in 1818.
Retired. 
52007400 1 Jamie McMurray Chip Ganassi Racing Chevrolet 2 Brad Keselowski Team Penske Ford 3 Austin Dillon Richard Childress Racing Chevrolet 4 Kevin Harvick Stewart-Haas Racing Chevrolet 5 Kasey Kahne Hendrick Motorsports Chevrolet 
52071605 CB Perrish Cox Tennessee Titans Signed January 18 K Blair Walsh Minnesota Vikings Signed February 9 RB Eddie Lacy Green Bay Packers Signed March 14 LB Michael Wilhoite San Francisco 49ers Signed March 23 LB Terence Garvin Washington Redskins Signed March 24 
52084968 1 Jamie McMurray Chip Ganassi Racing Chevrolet 2 Brad Keselowski Team Penske Ford 3 Austin Dillon Richard Childress Racing Chevrolet 4 Kevin Harvick Stewart-Haas Racing Chevrolet 5 Kasey Kahne Hendrick Motorsports Chevrolet 
52112185 4 1 Mark Winterbottom Prodrive Racing Australia Ford FG X Falcon 1:02.5505 5 2 Garth Tander Holden Racing Team Holden VF Commodore 1:02.5905 6 22 James Courtney Holden Racing Team Holden VF Commodore 1:02.6046 8 17 Scott Pye DJR Team Penske Ford FG X Falcon 1:02.7435 10 55 Chaz Mostert Rod Nash Racing Ford FG X Falcon 1:02.7656 
52112736 25&nbsp;February Push the Sky Away Nick Cave & The Bad Seeds  11&nbsp;March March Fires Birds of Tokyo  18&nbsp;March The Next Day David Bowie  25&nbsp;March The 20/20 Experience Justin Timberlake  27&nbsp;May Random Access Memories Daft Punk  
52119313 2018 Jane Teoh Georgetown Penang 5'10"   Top 10 in Face of Beauty International 2016
Winner of Face of Beauty Malaysia 2016 2016 Kiran Jassal Subang Jaya Selangor 5'8"  Top 10 Best National Costume Sister to Miss Grand Malaysia 2016, Ranmeet Jassal 2015 Vanessa Tevi Seremban Negeri Sembilan 5'7"    2014 Sabrina Beneett Ipoh Perak 5'11"   The tallest Miss Universe Malaysia 2012 Kimberley Leggett George Town Penang 5'10"    
5213923 2015 Justin Rose {{ENG}} 266 −22 1 stroke Cameron Tringale 1,242,000 6,900,000  2013 Billy Horschel {{USA}} 268 −20 1 stroke D. A. Points 1,188,000 6,600,000  2012 Jason Dufner {{USA}} 269 −19 Playoff Ernie Els 1,152,000 6,400,000  2011 Bubba Watson {{USA}} 273 −15 Playoff Webb Simpson 1,152,000 6,400,000  2010 Jason Bohn {{USA}} 270 −18 2 strokes Jeff Overton 1,152,000 6,400,000  
52143694 1 Jamie McMurray Chip Ganassi Racing Chevrolet 2 Brad Keselowski Team Penske Ford 3 Austin Dillon Richard Childress Racing Chevrolet 4 Kevin Harvick Stewart-Haas Racing Chevrolet 5 Kasey Kahne Hendrick Motorsports Chevrolet 
521501 {{mono|MA-AGD}} Agadir-Ida-Ou-Tanane prefecture {{mono|09}} {{mono|MA-BES}} Benslimane province {{mono|06}} {{mono|MA-BRR}} Berrechid province {{mono|06}} {{mono|MA-CHE}} Chefchaouen province {{mono|01}} {{mono|MA-CHI}} Chichaoua province {{mono|07}} 
5215862 2011 Luke Donald {{ENG}} 271 −17 2 strokes Justin Leonard 846,000 2008 Davis Love III {{USA}} 263 −25 1 stroke Tommy Gainey 828,000 2000 Duffy Waldorf {{USA}} 262 −26 1 stroke Steve Flesch 540,000 1997 David Duval {{USA}} 270 −18 Playoff Dan Forsman 270,000 1996 Tiger Woods {{USA}} 267 −21 1 stroke Payne Stewart 216,000 
5216052 Heckler & Koch P11 File:HK P11 mit pruefgeraet.jpg Underwater pistol 7.62×36mm {{Flag|Germany}}  IMI Uzi File:Uzi 1.jpg Submachine gun 9×19mm {{Flag|Israel}} Uzi, Mini-Uzi, Micro-Uzi, and Uzi-Pro used. Ingram MAC-10 File:MAC10.jpg Submachine gun 9×19mm {{USA}}  Suppressed Ruger 10/22 File:Ruger-1022.jpg
File:Ruger-10-22-rifle--Police-OpenDay-005.jpg Semi-automatic rifle .22 LR {{USA}} Adopted for non-lethal crowd control. M14 File:M14 Stand-off Munitions Disruptor (SMUD) (7414626342).jpg Battle rifle 7.62×51mm {{USA}} Used in limited numbers by the IDF. 
52173567 Test 1598 11–15 April Carl Hooper Sourav Ganguly Bourda, Georgetown Match drawn Test 1599 19–23 April Carl Hooper Sourav Ganguly Queen's Park Oval, Port of Spain {{cr|IND}} by 37 runs Test 1601 2–5 May Carl Hooper Sourav Ganguly Kensington Oval, Bridgetown {{cr|WIN}} by 10 wickets Test 1602 10–14 May Carl Hooper Sourav Ganguly Antigua Recreation Ground, St John's Match drawn Test 1604 18–22 May Carl Hooper Sourav Ganguly Sabina Park, Kingston {{cr|WIN}} by 155 runs 
52198645 2 26 Takuma Sato Andretti Autosport Honda 230.382 3 9 Scott Dixon Chip Ganassi Racing Honda 230.333 4 21 J.R. Hildebrand Ed Carpenter Racing Chevrolet 230.205 5 98 Alexander Rossi Andretti Herta Autosport Honda 230.148 6 12 Will Power Team Penske Chevrolet 230.072 
52200691 1 Jamie McMurray Chip Ganassi Racing Chevrolet 2 Brad Keselowski Team Penske Ford 3 Austin Dillon Richard Childress Racing Chevrolet 4 Kevin Harvick Stewart-Haas Racing Chevrolet 5 Kasey Kahne Hendrick Motorsports Chevrolet 
52213732 1987 Toyota Team Europe Toyota Supra 3.0i  {{flagicon|SWE}} Björn Waldegård MON SWE POR KEN
Ret FRA GRE USA
6 NZL ARG FIN     36th 6 7th 22 1987 Toyota Team Europe Toyota Supra 3.0i  Lars-Erik Torph MON SWE POR KEN
3 FRA GRE USA
Ret NZL ARG FIN     23rd 12 7th 22 1987 Toyota Team Europe Toyota Supra 3.0i  Robin Ulyate MON SWE POR KEN
6 FRA GRE USA NZL ARG FIN CIV
Ret ITA GBR  36th 6 7th 22 1988 Toyota Team Europe Toyota Supra Turbo  Kenneth Eriksson MON SWE POR KEN
4           12th 22 5th 46 1988 Toyota Team Europe Toyota Supra Turbo  Juha Kankkunen MON SWE POR KEN
5           37th 8 5th 46 
5222270 2 29 26 Paul Tracy 228.006 23 D C 200 (−)19.4404 Team Green 3 4 21 Felipe Giaffone 230.326 4 G C 200 (−)18.2114 Mo Nunn Racing 6 22 20 Richie Hearn 227.233 29 D C 200 +3.2022 Sam Schmidt Motorsports 7 25 39 Michael Andretti 228.713 15 D C 200 +3.5895 Team Green 8 11 31 Robby Gordon 229.127 11 D C 200 +6.1206 Team Menard 
5222281 3 3 11 Eliseo Salazar 223.231 3 G O 200 Running A.J. Foyt Enterprises 6 4 32 Robby Gordon 222.885 4 D O 200 Running Team Menard 7 7 10 Jimmy Vasser 221.974 8 G O 199 Running Chip Ganassi Racing 9 13 4 Scott Goodyear 220.631 16 D O 199 Running Panther Racing 10 5 8 Scott Sharp 222.808 5 D O 198 Running Kelley Racing 
52236610 10 April 2010 Vancouver Canada Commodore Ballroom 12 April 2010 Seattle United States Showbox at the Market 13 April 2010 Portland United States Wonder Ballroom 14 April 2010 San Francisco United States Regency Ballroom 17 April 2010{{ref label|COH|A|A}} Indio United States Empire Polo Club 
52253820 1 Jamie McMurray Chip Ganassi Racing Chevrolet 2 Brad Keselowski Team Penske Ford 3 Austin Dillon Richard Childress Racing Chevrolet 4 Kevin Harvick Stewart-Haas Racing Chevrolet 5 Kasey Kahne Hendrick Motorsports Chevrolet 
52264103 1911 Thomas Wilford Unopposed Unopposed Elected 1st 1921 Robert Wright 13,405 65.33 Elected 1st 1923 Robert Wright 10,876 42.30 Elected 1st 1925 Charles Norwood 13,180 52.87 Elected 1st 1944 Will Appleton 29,899 58.80 Elected 1st 
52295198 2 September 1916 DF Jack Peart Croydon Common Free  9 December 1916 FW Albert Chester Millwall Free  2 September 1916 FW Billy Clarkson Burnley 19 April 1917  23 September 1916 GK Frank Drabble Bradford Park Avenue 26 April 1917  7 October 1916 DF Fred Bullock Huddersfield Town End of season  
52322976 4 Naruphon Putsorn {{flagicon|THA}}{{flagicon|ENG}} MF {{birth date and age|1988|7|21|df=y}} 6 Sasalak Haiprakhon {{flagicon|THA}} MF {{birth date and age|1996|01|08|df=y}} 7 Go Seul-ki {{flagicon|KOR}} MF {{birth date and age|1986|4|21|df=y}} 8 Suchao Nuchnum {{flagicon|THA}} MF {{birth date and age|1983|5|17|df=y}} 10 Jakkaphan Kaewprom {{flagicon|THA}} MF {{birth date and age|1988|5|24|df=y}} 
52334655 1 Jamie McMurray Chip Ganassi Racing Chevrolet 2 Brad Keselowski Team Penske Ford 3 Austin Dillon Richard Childress Racing Chevrolet 4 Kevin Harvick Stewart-Haas Racing Ford 5 Kasey Kahne Hendrick Motorsports Chevrolet 
52349431 1 New York Yankees 10,393 7,934 88 {{Winning percentage|10393|7934}} 1901 18,426 AL East 2 San Francisco Giants 11,092 9,610 163 {{Winning percentage|11092|9610}} 1883 20,865 NL West 3 Los Angeles Dodgers 10,876 9,766 139 {{Winning percentage|10876|9766}} 1883 20,781 NL West 4 St. Louis Cardinals 10,833 9,997 151 {{Winning percentage|10833|9997}} 1882 20,981 NL Central 5 Boston Red Sox 9,521 8,839 83 {{Winning percentage|9521|8839}} 1901 18,443 AL East 
52421973 2010 Alicia Keys "Un-Thinkable (I'm Ready)" {{Collapsible list|{{smalldiv| * [[Alicia Keys|Alicia Cook]] * [[Drake (musician)|Aubrey Graham]] * [[Kerry Brothers, Jr.]] * [[Noah "40" Shebib|Noah Shebib]]}}}}  2010 El DeBarge "Second Chance" {{Collapsible list|{{smalldiv| * [[El DeBarge|Eldra DeBarge]] * Mischke Butler}}}}  2010 Fantasia "Bittersweet" {{Collapsible list|{{smalldiv| * [[Claude Kelly]] * [[Chuck Harmony|Charles Harmon]]}}}}  2010 R. Kelly "When a Woman Loves" {{Collapsible list|{{smalldiv| * [[R. Kelly|Robert Kelly]]}}}}  2011 Marsha Ambrosius "Far Away" {{Collapsible list|{{smalldiv| * [[Marsha Ambrosius]] * [[Sterling Simms]]}}}}  
52444533 1973 Wellington,
New Zealand {{flagicon|NZL}}
Elsie Wilkie {{flagicon|AUS}}
Dot Jenkinson, Lorna Lucas {{flagicon|NZL}}
Cis Winstanley, Noeleen Scott,
Irene Foote {{flagicon|NZL}}
Cis Winstanley, Verna Devlin,
Noeleen Scott, Irene Foote New Zealand 1977 Worthing,
England {{flagicon|NZL}}
Elsie Wilkie {{flagicon|HKG|1959}}
Helen Wong, Elvie Chok {{flagicon|WAL}}
Enid Morgan, Margaret Pomeroy,
Joan Osborne {{flagicon|AUS}}
Merle Richardson, Lorna Lucas,
Connie Hicks, Dot Jenkinson Australia 1981 Toronto,
Canada {{flagicon|ENG}}
Norma Shaw {{flagicon|IRE}} {{flagicon|NIR}}
Nan Allely, Eileen Bell {{flagicon|HKG|1959}}
Lena Sadick, Rae O’Donnell,
Linda King {{flagicon|ENG}}
Eileen Fletcher, Gloria Thomas, Mavis Steele
Betty Stubbings, Irene Molyneux England 1985 Melbourne,
Australia {{flagicon|AUS}}
Merle Richardson {{flagicon|AUS}}
Merle Richardson, Fay Craig {{flagicon|AUS}}
Mavis Meadowcroft, Norma Massey,
Dorothy Roche {{flagicon|SCO}}
Frances Whyte, Annette Evans,
Elizabeth Christie, Sarah Gourlay Australia 1988 Auckland,
New Zealand {{flagicon|WAL}}
Janet Ackland {{flagicon|IRE}} {{flagicon|NIR}}
Margaret Johnston, Phillis Nolan {{flagicon|AUS}}
Dorothy Roche, Marion Stevens,
Greeta Fahey {{flagicon|AUS}}
Dorothy Roche, Norma Wainwright,
Marion Stevens, Greeta Fahey England 
52467734 {{gold medal}} Eri Yanetani Snowboarding Women's giant slalom 19 February {{gold medal}} Nao Kodaira Speed skating Women's 1000 metres 20 February {{gold medal}} Takuro Oda Speed skating Men's 1000 metres 21 February {{gold medal}} Nao Kodaira Speed skating Women's 500 metres 21 February {{gold medal}} Yukiya Sato Ski jumping Normal hill individual 22 February 
52469561 5 2 Garth Tander Holden Racing Team Holden VF Commodore 1:27.0532 6 22 James Courtney Holden Racing Team Holden VF Commodore 1:27.1503 8 1 Mark Winterbottom Prodrive Racing Australia Ford FG X Falcon 1:27.2013 9 55 Chaz Mostert Rod Nash Racing Ford FG X Falcon 1:27.2600 11 6 Cameron Waters Prodrive Racing Australia Ford FG X Falcon 1:27.4261 
524745 Blaine Higgs Quispamsis 2010 Premier Andrea Anderson-Mason Fundy-The Isles-Saint John West 2018 Attorney General and Minister of Justice Bruce Northrup Sussex-Fundy-St. Martins 2006  Carl Urquhart Carleton-York 2006 Minister of Public Safety and Solicitor General Dominic Cardy Fredericton West-Hanwell 2018 Minister of Education and Early Childhood Development 
52483480 Martin Gould 5–1 Sanderson Lam Jason Weston 1–5 Craig Steadman Kyren Wilson 5–1 Xiao Guodong Andy Hicks 2–5 Robbie Williams Robert Milkins 5–3 Gareth Allen 
52494876 1993 NSW Arrows ACTAS Strikers Lisa Powell (Strikers) – – 1994 WAIS Diamonds QAS Scorchers Rechelle Hawkes (Diamonds) – – 1995 Adelaide Suns NSW Arrows Renita Farrell (Scorchers) – – 1996 NSW Arrows WAIS Diamonds Alyson Annan (Arrows) – – 1997 QLD Scorchers Canberra Strikers Alyson Annan (Arrows) – – 
52495390 22 5 7 Macarena Ceballos {{ARG}} 31.01 NR 33 4 7 Jenjira Srisa-Ard {{THA}} 32.07 NR 35 4 0 Tilka Paljk {{ZAM}} 32.29 NR 37 3 4 Izzy Shne Joachim {{VIN}} 32.43 NR 42 3 5 Chade Nersicio {{CUW}} 33.51 NR 
52608122 {{gold medal}} Man Dandan Cross-country skiing Women's sprint 20 February {{gold medal}} Zang Ruxin Snowboarding Women's slalom 20 February {{gold medal}} Gao Tingyu Speed skating Men's 500 metres 20 February {{gold medal}} Wu Dajing Short track speed skating Men's 500 metres 21 February {{gold medal}} Zhang Yiwei Snowboarding Men's halfpipe 25 February 
52608170 {{silver medal}} Choi Bo-gun Snowboarding Men's giant slalom February 19 {{silver medal}} Shim Suk-hee Short track speed skating Women's 1500 m February 20 {{silver medal}} Kim Bo-reum Speed skating Women's 3000 m February 20 {{silver medal}} Lee Chae-won Cross-country skiing Women's 10 km February 21 {{silver medal}} Lee Sang-hwa Speed skating Women's 500 m February 21 
52667284 2011 Shailene Woodley The Descendants Alex King 2012 Judi Dench Skyfall M 2013 Octavia Spencer Fruitvale Station Wanda Johnson 2013 Oprah Winfrey The Butler Gloria Gaines 2014 Jessica Chastain A Most Violent Year Anna Morales 
52729205 7 January You Want It Darker Leonard Cohen  14 January You Want It Darker Leonard Cohen  1 April From Deewee Soulwax  6 May Humanz Gorillaz  13 May Humanz Gorillaz  
52788501 1 Liuyang City 浏阳市 Changsha 1,278,928 2 Ningxiang County 宁乡县 Changsha 1,168,056 3 Leiyang City 耒阳市 Hengyang 1,150,241 4 Xinhua County 新化县 Loudi 1,110,910 5 Hengyang County 衡阳县 Hengyang 1,103,897 
529080 1991–92 Regina Pats WHL  4 3 1 4 2  — — — 1992–93 Regina Pats WHL  70 45 38 83 23  13 7 10 1993–94 Regina Pats WHL  66 51 67 118 48  4 3 2 1994–95 Regina Pats WHL  25 21 23 44 22  — — — 1994–95 San Jose Sharks NHL  48 15 10 25 14  11 1 5 
52942639 2018 Hum Awards July 28, 2018 Best Drama Serial - Popular Momina Duraid {{Nom}}  2018 Hum Awards July 28, 2018 Best Drama Serial - Jury Momina Duraid {{Won}}  2018 Hum Awards July 28, 2018 Best Director Drama Serial Ahson Talish {{Won}}  2018 Hum Awards July 28, 2018 Best Actor- Jury Meekal Zulfiqar {{Nom}}  2018 Hum Awards July 28, 2018 Best Actor - Popular Meekal Zulfiqar {{Nom}}  
52945068 1 1 File:Disc Plain yellow dark.svg — CSKA Moscow Russia 66 68 71 205 1 3 3 File:Disc Plain yellow dark.svg — Real Madrid Spain 67 66 66 199 3 8 5 File:RedDownArrow.svg −3 Baskonia Spain 54 55 54 163 8 10 16 File:Green-Up-Arrow.svg +6 Valencia Basket Spain 47 44 49 140 — 13 13 File:Disc Plain yellow dark.svg — Khimki Russia 32 55 41 128 — 
52974239 1994 Lawrence Bender Pulp Fiction {{nom}}  1996 James L. Brooks Jerry Maguire {{nom}} Shared with Laurence Mark, Richard Sakai, and Cameron Crowe 1997 James L. Brooks As Good as It Gets {{nom}} Shared with Bridget Johnson and Kristi Zea 1997 Lawrence Bender Good Will Hunting {{nom}}  1998 Steven Spielberg Saving Private Ryan {{nom}} Shared with Ian Bryce, Mark Gordon, and Gary Levinsohn 
52993025 Ted Adel Liberal Copperbelt North Nils Clarke Liberal Riverdale North Don Hutton Liberal Mayo-Tatchun Tracy McPhee Liberal Riverdale South Richard Mostyn Liberal Whitehorse West 
529947 1997 NAACP Image Awards Won Outstanding Actress in a Comedy Series Phylicia Rashad 1997 NAACP Image Awards Won Outstanding Comedy Series - 1998 NAACP Image Awards Nominated Outstanding Supporting Actress in a Comedy Series T'Keyah Crystal Keymáh 1998 NAACP Image Awards Nominated Outstanding Supporting Actor in a Comedy Series Doug E. Doug 1998 NAACP Image Awards Nominated Outstanding Comedy Series - 
53020148 1 July 17:00 Perth Thunder 3–5 Sydney Ice Dogs Macquarie Ice Rink   1 July 17:30 Melbourne Mustangs 5–3 CBR Brave Phillip Ice Skating Centre   2 July 17:00 Melbourne Mustangs 5 – 6 (SO) CBR Brave Phillip Ice Skating Centre   2 July 17:00 Perth Thunder 5 – 4 (SO) Newcastle Northstars Hunter Ice Skating Stadium   8 July 16:30 CBR Brave 2–4 Perth Thunder Perth Ice Arena   
53027468 1 2 Brad Keselowski Team Penske Ford 2 11 Denny Hamlin Joe Gibbs Racing Toyota 3 1 Jamie McMurray Chip Ganassi Racing Chevrolet 4 3 Austin Dillon Richard Childress Racing Chevrolet 5 78 Martin Truex Jr Furniture Row Racing Toyota 
53041972 Ardmore, County Waterford Ardmore, Pennsylvania &nbsp; Avoca, County Wicklow Avoca, Pennsylvania &nbsp; Bandon, County Cork Bandon, Oregon  Cashel, County Tipperary Cashel Township, Minnesota  Clontarf, Dublin Clontarf, Minnesota  
5317510 1995 Kashiwa Reysol J1 League 17 0 2 0 - - 19 0 1996 Kashiwa Reysol J1 League 30 0 2 0 15 0 47 0 1997 Kashiwa Reysol J1 League 19 0 3 0 8 0 30 0 1998 Kashiwa Reysol J1 League 8 0 1 0 0 0 9 0 1999 Kashiwa Reysol J1 League 3 0 0 0 0 0 3 0 
5321350 1994 Bellmare Hiratsuka J1 League 39 2 4 0 1 0 - - 44 2 1995 Bellmare Hiratsuka J1 League 46 4 2 0 - - - - 48 4 1996 Bellmare Hiratsuka J1 League 29 1 3 0 14 1 - - 46 2 1997 Kashima Antlers J1 League 17 1 5 0 7 1 - - 29 2 1998 Kashima Antlers J1 League 33 5 4 0 1 0 - - 38 5 
5321373 Kashima Antlers 1994 28 0 1 0 1 0 – – 30 0 Kashima Antlers 1995 50 3 4 0 – – – – 54 3 Kashima Antlers 1996 30 2 3 0 14 0 – – 47 2 Kashima Antlers 1997 21 0 5 0 2 1 – – 28 1 Kashima Antlers 1998 34 1 4 0 1 0 – – 39 1 
5321394 1992 Yokohama Marinos J1 League - - 4 1 1 1 5 2 1993 Yokohama Marinos J1 League 29 0 3 0 3 0 35 0 1994 Yokohama Marinos J1 League 33 3 4 1 3 2 40 6 1995 Yokohama Marinos J1 League 43 5 2 1 - - 45 6 1996 Yokohama Marinos J1 League 24 5 1 0 14 4 39 9 
5321723 1996 Shimizu S-Pulse J1 League 29 2 3 0 16 0 48 2 1997 Shimizu S-Pulse J1 League 22 2 3 0 0 0 25 2 1998 Shimizu S-Pulse J1 League 33 0 5 0 1 0 39 0 1999 Shimizu S-Pulse J1 League 28 3 3 0 4 0 35 3 2000 Shimizu S-Pulse J1 League 28 3 5 0 6 0 39 3 
5321753 1992 JEF United Ichihara J1 League - - ||||7||0||colspan="2"|-||7||0 1993 JEF United Ichihara J1 League 32 2 1 0 6 3 - - 39 5 1994 JEF United Ichihara J1 League 22 1 1 0 2 0 - - 25 1 1995 JEF United Ichihara J1 League 31 5 1 0 - - - - 32 5 1996 JEF United Ichihara J1 League 20 5 0 0 10 1 - - 30 6 
5321767 1993 Nagoya Grampus Eight J1 League 19 4 3 1 3 1 25 6 1994 Nagoya Grampus Eight J1 League 36 4 2 0 1 0 39 4 1995 Nagoya Grampus Eight J1 League 50 9 5 2 - - 55 11 1996 Nagoya Grampus Eight J1 League 29 7 0 0 14 5 43 12 1997 Nagoya Grampus Eight J1 League 21 4 1 0 6 3 28 7 
5321800 1994 Kashima Antlers J1 League 1 0 0 0 0 0 - - 1 0 1995 Kashima Antlers J1 League 0 0 0 0 - - - - 0 0 1995 Shimizu S-Pulse J1 League 25 1 0 0 - - - - 25 1 1996 Shimizu S-Pulse J1 League 23 0 3 0 16 1 - - 42 1 1997 Shimizu S-Pulse J1 League 30 1 3 0 6 0 - - 39 1 
5321899 1999 Yokohama F. Marinos J1 League 29 2 3 0 6 0 38 2 2000 Yokohama F. Marinos J1 League 26 5 1 0 3 0 30 5 2001 Tokyo Verdy J1 League 22 3 0 0 2 0 24 3 2002 Tokyo Verdy J1 League 8 1 0 0 0 0 8 1 2003 Tokyo Verdy J1 League 26 2 3 0 4 1 33 3 
53267719 May 1986 DF Phil Bater Bristol Rovers Free  July 1986 MF Paul Maddy Hereford United £5,000  September 1986 MF Robbie Carroll Gosport Borough Non-contract  November 1986 DF Steve Perryman Oxford United n/a  March 1987 FW Gary Blissett Crewe Alexandra £60,000  
53321971 1 Jamie McMurray Chip Ganassi Racing Chevrolet 2 Brad Keselowski Team Penske Ford 3 Austin Dillon Richard Childress Racing Chevrolet 4 Kevin Harvick Stewart-Haas Racing Ford 5 Kasey Kahne Hendrick Motorsports Chevrolet 
53331144 1 Jamie McMurray Chip Ganassi Racing Chevrolet 2 Brad Keselowski Team Penske Ford 3 Austin Dillon Richard Childress Racing Chevrolet 4 Kevin Harvick Stewart-Haas Racing Ford 5 Kasey Kahne Hendrick Motorsports Chevrolet 
53334972 Akrotiri and Dhekelia {{flagicon|Akrotiri and Dhekelia|size=100px}} 1801 British Overseas Territory {{flag|United Kingdom}} Anguilla Anguilla|size=100px}} 1990 British Overseas Territory {{flag|United Kingdom}} Ascension Island {{flagicon| Ascension Island |size=100px}} 2013 British Overseas Territory {{flag|United Kingdom}} Bermuda Bermuda|size=100px}} 1910 British Overseas Territory {{flag|United Kingdom}} British Antarctic Territory {{flagicon| British Antarctic Territory|size=100px}} 1963 British Overseas Territory {{flag|United Kingdom}} 
5338093 201  Spiral galaxy Cetus {{RA|00|39|34.9}} {{DEC|+00|51|35}} 14.7 207  Spiral galaxy Cetus {{RA|00|39|40.8}} {{DEC|−14|14|15}} 14.8 209  Lenticular galaxy Cetus {{RA|00|39|03.6}} {{DEC|−18|36|30}} 14.0 210  Spiral galaxy Cetus {{RA|00|40|35.1}} {{DEC|−13|52|26}} 11 216  Lenticular galaxy Cetus {{RA|00|41|26.5}} {{DEC|−21|02|43}} 13.6 
53429550 2 55 Chaz Mostert Rod Nash Racing Ford FG X Falcon 0:57.8003 8 56 Jason Bright Britek Motorsport Ford FG X Falcon 0:58.0375 10 5 Mark Winterbottom Prodrive Racing Australia Ford FG X Falcon 0:58.1741 11 12 Fabian Coulthard DJR Team Penske Ford FG X Falcon 0:58.1922 12 14 Tim Slade Brad Jones Racing Holden VF Commodore 0:58.2340 
53434836 1 Jamie McMurray Chip Ganassi Racing Chevrolet 2 Brad Keselowski Team Penske Ford 3 Austin Dillon Richard Childress Racing Chevrolet 4 Kevin Harvick Stewart-Haas Racing Ford 5 Kasey Kahne Hendrick Motorsports Chevrolet 
5345338 2018 Maalaala Mo Kaya: Tangke Rommel Sandoval ABS-CBN 2017 My Dear Heart Jude De Jesus ABS-CBN 2016 Tubig at Langis Renato "Natoy" Villadolid ABS-CBN 2014–2015 Dream Dad Sebastian "Baste" Javier ABS-CBN 2009 Pare Koy Mario ABS-CBN 
53462674 Shabab Al-Ordon 2–0 That Ras Al-Wehdat 2–1 Mansheyat Bani Hasan Al-Ramtha 2–1 Shabab Al-Ordon That Ras 0–0 Mansheyat Bani Hasan Mansheyat Bani Hasan 0–0 Al-Ramtha 
53471240 1995 Hamlet Best Revival of a Play {{nom}}  1995 Indiscretions Best Play {{nom}}  1996 A Funny Thing Happened on the Way to the Forum Best Revival of a Musical {{nom}}  1996 Seven Guitars Best Play {{nom}}  1998 The Chairs Best Revival of a Play {{nom}}  
53508699 1 Jamie McMurray Chip Ganassi Racing Chevrolet 2 Brad Keselowski Team Penske Ford 3 Austin Dillon Richard Childress Racing Chevrolet 4 Kevin Harvick Stewart-Haas Racing Ford 5 Kasey Kahne Hendrick Motorsports Chevrolet 
53518999 2 {{sort|Quimet|Yvon Quimet}} and Roy Shire 1 {{dts|1956|05|12}} {{sort|1|}} Ogden, Utah Live event Still listed as champions on July 9, 1956  4 {{sort|Quimet|Yvon Quimet}} and Roy Shire 2 {{dts|1956|12}} {{small|(NLT)}} {{sort|{{age in days nts|month1=12|day1=31|year1=1956|month2=12|day2=10|year2=1956}}|}} Spokane, Washington Live event &nbsp;  5 {{sort|Jares|Frank Jares}} and Great Sasaki 1 {{dts|1956|12|10}} {{age in days nts|month1=12|day1=10|year1=1956|month2=12|day2=21|year2=1956}} Idaho Falls, Idaho Live event &nbsp;  6 {{sort|Brunetti|Guy Brunetti}} and Joe Tangaro 2 {{dts|1956|12|21}} {{age in days nts|month1=12|day1=21|year1=1956|month2=12|day2=28|year2=1956}} Salt Lake City, Utah Live event &nbsp;  7 {{sort|Jares|Frank Jares}} and Great Sasaki 2 {{dts|1956|12|28}} {{age in days nts|month1=12|day1=28|year1=1956|month2=12|day2=29|year2=1956}} Salt Lake City, Utah Live event &nbsp;  
53536535 1 Jamie McMurray Chip Ganassi Racing Chevrolet 2 Brad Keselowski Team Penske Ford 3 Austin Dillon Richard Childress Racing Chevrolet 4 Kevin Harvick Stewart-Haas Racing Ford 5 Kasey Kahne Hendrick Motorsports Chevrolet 
535409 {{nts|357}} Morristown {{change|invert=on|992|987}} Rice {{nts|358}} Buhl {{change|invert=on|982|1000}} St. Louis {{nts|359}} Biwabik {{change|invert=on|981|969}} St. Louis {{nts|360}} Bird Island {{change|invert=on|969|1042}} Renville {{nts|361}} Scanlon {{change|invert=on|965|991}} Carlton 
535596 Arcade Wyoming 2,071 2.649 0.003 42.530594, -78.441809 3602407 02391519 ||Arcade Argyle Washington 306 0.350 0.000 43.236616, -73.490808 3602550 02391524 ||Argyle Athens Greene 1,668 3.420 1.185 42.271030, -73.815933 3602902 02391527 ||Athens Aurora Cayuga 724 0.919 0.000 42.752192, -76.698439 3603188 02391530 ||Ledyard Ballston Spa Saratoga 5,409 1.599 0.009 43.005640, -73.854458 3604253 02391536 ||Ballston & Milton 
53610440 1991 Dharma Durai "Maasi Maasam" Ilaiyaraaja Gangai Amaren K. J. Yesudas 1991 Chinna Thambi "Poovoma Oorgolam" Ilaiyaraaja Gangai Amaren S. P. Balasubrahmanyam 1992 Nadodi Pattukkaran "Kadhalukku Kangalillai" Ilaiyaraaja Gangai Amaran S. P. Balasubrahmanyam 1992 Ponnuketha Purushan "Devathai Vanthaal" Ilaiyaraaja Gangai Amaran P. Jayachandran 1994 Vandicholai Chinraasu "Kattu Panamaram Pola" A. R. Rahman Vairamuthu Malgudi Subha 
53616041 1 Jamie McMurray Chip Ganassi Racing Chevrolet 2 Brad Keselowski Team Penske Ford 3 Austin Dillon Richard Childress Racing Chevrolet 4 Kevin Harvick Stewart-Haas Racing Ford 5 Kasey Kahne Hendrick Motorsports Chevrolet 
53645893 Space Hunter NES {{dts|September 25, 1986}} {{Yes2|Yes}} {{No2|No}} {{No2|No}}  Desert Commander NES {{dts|April 28, 1988}} {{Yes2|Yes}} {{Yes2|Yes}} {{No2|No}} Based on events of World War II. Sanada Ten Braves NES {{dts|June 27, 1988}} {{Yes2|Yes}} {{No2|No}} {{No2|No}} Based on the Sanada Ten Braves Ninja group. Ghost Lion NES {{dts|July 14, 1989}} {{Yes2|Yes}} {{Yes2|Yes}} {{No2|No}}  The Sword of Hope Game Boy {{dts|December 28, 1989}} {{Yes2|Yes}} {{Yes2|Yes}} {{Yes2|Yes}}  
53670252 1990 C.W. Post 91–76 Dowling 1991 C.W. Post 70–68 Dowling 1992 Philadelphia College 79–66 Saint Rose 1993 Philadelphia College 85–75 Saint Rose 1994 Philadelphia College 56–54 C.W. Post 
53672583 1 Jamie McMurray Chip Ganassi Racing Chevrolet 2 Brad Keselowski Team Penske Ford 3 Austin Dillon Richard Childress Racing Chevrolet 4 Kevin Harvick Stewart-Haas Racing Ford 5 Kasey Kahne Hendrick Motorsports Chevrolet 
53680119 Points
(Every player over 70) 82 Errick McCollum Zhejiang Golden Bulls Zhejiang Golden Bulls 119–129 Guangdong Southern Tigers 2015 January 30 Points
(Every player over 70) 75 Jimmer Fredette Shanghai Sharks Shanghai Sharks 136–137 Beikong Fly Dragons 2018 November 11 Points
(Every player over 70) 75 Quincy Douby Zhejiang Golden Bulls Zhejiang Golden Bulls 154–129 Shanxi Brave Dragons 2013 January 2 Points
(Every player over 70) 74 Jared Cunningham Tongxi Monkey Kings Tongxi Monkey Kings 129–148 Fujian Sturgeons 2016 December 28 Points
(Every player over 70) 74 Bobby Brown Dongguan Leopards Dongguan Leopards 137–135 (2OT) Sichuan Blue Whales 2013 December 27 
53681508 2003 Once and Again ABC 2003 The Wire HBO 2004 Playmakers ESPN 2004 Degrassi: The Next Generation The N 2005 Kevin Hill UPN 
53700602 2010
(62nd) The 82nd Annual Academy Awards The 82nd Annual Academy Awards David Rockwell, Joe Celli ABC 2010
(62nd) American Idol "Idol Gives Back" James Yarnell, Gregg Rainwater, Dave Edwards Fox 2010
(62nd) Saturday Night Live "Host: James Franco," "Host: Jon Hamm," "Host: Betty White" Eugene Lee, Akira Yoshimura, Keith Ian Raywood, N. Joseph DeTullio NBC 2010
(62nd) The 63rd Annual Tony Awards The 63rd Annual Tony Awards Steve Bass, Seth Easter CBS 2011
(63rd) 2010 MTV Video Music Awards 2010 MTV Video Music Awards Florian Wieder, Isabell Rauert, Tamlyn Rae Wright MTV 
53707509 F Kevin Durant Golden State Warriors F LeBron James Los Angeles Lakers F/G Kawhi Leonard Toronto Raptors G James Harden Houston Rockets G Kyrie Irving Boston Celtics 
53710455 1994 Carson–Newman 79–64 Lenoir–Rhyne None selected 1998 Catawba 95–74 Wingate None selected 1999 Catawba 78–75 (OT) Carson–Newman Marvin Moore, Catawba 2002 Carson–Newman 76–62 Wingate Kyle Gribble, Carson-Newman 2004 Catawba 81–68 Newberry Helgi Magnússon, Catawba 
53716477 2011
(63rd) American Idol "Finale" Kieran Healy, Joshua Hutchings, Matthew McAdam, George Harvey Fox 2011
(63rd) Saturday Night Live "Host: Justin Timberlake" Phil Hymes, Geoff Amoral, Rick McGuinness NBC 2012
(64th) American Idol "Finale" Kieran Healy, Joshua Hutchings, Matthew McAdam, George Harvey Fox 2012
(64th) Saturday Night Live "Host: Jimmy Fallon" Phil Hymes, Geoff Amoral, Rick McGuinness NBC 2013
(65th) American Idol "Finale" Kieran Healy, Joshua Hutchings Fox 
53717265 1993 USC Aiken 64–60 Augusta State Steve Franklin, USC Aiken &
Derek Stewart, Augusta State Augusta, GA 1994 Lander 76–74 Columbus State Bill Hanford, Lander Augusta, GA 1995 Lander 77–56 Columbus State Larry Person, Lander Augusta, GA 1998 Columbus State 74–60 Armstrong Atlantic State Calvin Hill, Columbus State Savannah, GA 1999 Georgia College 70–64 Augusta State Derrick Nicholson, Georgia College Savannah, GA 
53779411 At bats {{sortname|Jesús|Alou}} 648 1963 Tacoma Giants  Total bases {{sortname|Bill|McNulty}} 363 1974 Sacramento Solons  Home runs {{sortname|Bill|McNulty}} 55{{ref label|HRseason|a|a}} 1974 Sacramento Solons  Home runs {{sortname|Ron|Kittle}} 50 1982 Edmonton Trappers  Runs batted in {{sortname|Ron|Kittle}} 144 1982 Edmonton Trappers  
53787269 1994 Willamette 87–78 Lewis & Clark Salem, OR 1995 Lewis & Clark 79–71 Willamette Salem, OR 1996 Whitworth 66–53 Lewis & Clark Spokane, WA 1997 Pacific (OR) 88–79 Lewis & Clark Forest Grove, OR 1998 Lewis & Clark 79–61 Pacific Lutheran Portland, OR 
53806763 1 Jamie McMurray Chip Ganassi Racing Chevrolet 2 Brad Keselowski Team Penske Ford 3 Austin Dillon Richard Childress Racing Chevrolet 4 Kevin Harvick Stewart-Haas Racing Ford 5 Kasey Kahne Hendrick Motorsports Chevrolet 
5381305 1985–86 Rochester Americans AHL  20 10 4 14 6  — — — 1985–86 Buffalo Sabres NHL  32 1 9 10 4  — — — 1986–87 Rochester Americans AHL  42 6 20 26 14  9 1 2 1986–87 Buffalo Sabres NHL  16 0 3 3 0  — — — 1987–88 Rochester Americans AHL  35 12 24 36 16  — — — 
53872470 2 Andre Owens 3's Company 2 years BC Hallmann Vienna 2015 3 Reggie Evans Killer 3s 14 years Sacramento Kings 2015 4 Xavier Silas Tri-State 1 year Northern Arizona Suns Active 5 Kwame Brown 3 Headed Monsters 12 years Philadelphia 76ers 2013 7 Derrick Byars Ball Hogs 1 year Delaware 87ers Active 
53872741 1 Jamie McMurray Chip Ganassi Racing Chevrolet 2 Brad Keselowski Team Penske Ford 3 Austin Dillon Richard Childress Racing Chevrolet 4 Kevin Harvick Stewart-Haas Racing Ford 5 Kasey Kahne Hendrick Motorsports Chevrolet 
53910277 1 Jamie McMurray Chip Ganassi Racing Chevrolet 2 Brad Keselowski Team Penske Ford 3 Austin Dillon Richard Childress Racing Chevrolet 4 Kevin Harvick Stewart-Haas Racing Ford 5 Kasey Kahne Hendrick Motorsports Chevrolet 
53920066 5 Leon Barnett CB {{flagicon|ENG}} Stevenage {{Birth date and age|1985|11|30|df=y}} 18 1 Bury 31 May 2017 Free 2019 6 Ash Taylor CB {{flagicon|WAL}} Bromborough (ENG) {{Birth date and age|1990|9|2|df=y}} 52 7 Aberdeen 5 July 2017 Free 2020 16 Aaron Pierre CB {{flagicon|GRN}} Southall (ENG) {{Birth date and age|1993|2|17|df=y}} 23 0 Wycombe Wanderers 21 July 2017 Free 2020 26 Regan Poole CB {{flagicon|WAL}} Cardiff {{Birth date and age|1998|6|18|df=y}} 24 0 Manchester United 7 July 2017 Loan 2018 37 Jordan Turnbull CB {{flagicon|ENG}} Trowbridge {{Birth date and age|1994|10|30|df=y}} 14 0 Coventry City 11 January 2018 Add-ons 2020 
53941275 1966 Lynchburg 104–94 St. Andrews (NC) 1967 Lynchburg 92–70 Greensboro 1968 St. Andrews (NC) 77–75 Lynchburg 1971 Lynchburg 88–76 Methodist 1972 Lynchburg 59–58 Methodist 
53948569 1 Stephen Bywater GK {{flagicon|ENG}} Oldham {{age|1981|6|7}} 50 0 Kerala Blasters 16 January 2016 Free 2019 5 Kyle McFadzean CB {{flagicon|ENG}} Sheffield {{age|1987|2|20}} 77 1 Milton Keynes Dons 12 July 2016 Free 2019 14 Damien McCrory LWB {{flagicon|IRL}} Limerick {{age|1990|2|22}} 205 10 Dagenham & Redbridge 1 July 2012 Free 2018 15 Tom Naylor CB {{flagicon|ENG}} Sutton-in-Ashfield {{age|1991|6|28}} 133 13 Derby County 1 July 2015 Free 2019 25 Shaun Barker CB {{flagicon|ENG}} Trowell {{age|1982|9|19}} 6 0 Derby County 26 August 2016 Free 2018 
53969318 1 Jamie McMurray Chip Ganassi Racing Chevrolet 2 Brad Keselowski Team Penske Ford 3 Austin Dillon Richard Childress Racing Chevrolet 4 Kevin Harvick Stewart-Haas Racing Ford 5 Kasey Kahne Hendrick Motorsports Chevrolet 
54005423 2008 Pomona–Pitzer 55–53 Claremont–Mudd–Scripps Claremont, CA 2009 Claremont–Mudd–Scripps 56–44 Pomona–Pitzer Claremont, CA 2010 Claremont–Mudd–Scripps 57–55 Pomona–Pitzer Claremont, CA 2011 Redlands 63–54 Claremont–Mudd–Scripps Redlands, CA 2012 Claremont–Mudd–Scripps 60–54 Pomona–Pitzer Claremont, CA 
540056 2. Italy Varese 5 5 2. Italy Olimpia Milano 3 2 2. Italy Virtus Bologna 2 3 2. Italy Virtus Roma 1 – 2. Italy Treviso – 2 
54013905 Basin and Range Province Nevada 2015 703,585 Bears Ears National Monument Utah 2016 1,353,000 Berryessa Snow Mountain National Monument California 2015 330,780 Canyons of the Ancients National Monument Colorado 2000 175,160 Carrizo Plain California 2001 204,107 
54015698 1 Jamie McMurray Chip Ganassi Racing Chevrolet 2 Brad Keselowski Team Penske Ford 3 Austin Dillon Richard Childress Racing Chevrolet 4 Kevin Harvick Stewart-Haas Racing Ford 5 Kasey Kahne Hendrick Motorsports Chevrolet 
540313 1985–86 Medicine Hat Tigers AMHL  40 14 22 36 14  — — — 1985–86 Medicine Hat Tigers WHL  5 2 0 2 0  6 1 0 1986–87 Medicine Hat Tigers WHL  72 14 22 36 59  20 5 4 1987–88 Medicine Hat Tigers WHL  67 46 64 110 76  16 13 12 1988–89 Vancouver Canucks NHL  80 30 29 59 41  7 3 4 
54046547 1 Jamie McMurray Chip Ganassi Racing Chevrolet 2 Brad Keselowski Team Penske Ford 4 Kevin Harvick Stewart-Haas Racing Ford 5 Kasey Kahne Hendrick Motorsports Chevrolet 11 Denny Hamlin Joe Gibbs Racing Toyota 
54065400 1 Jamie McMurray Chip Ganassi Racing Chevrolet 2 Brad Keselowski Team Penske Ford 3 Austin Dillon Richard Childress Racing Chevrolet 4 Kevin Harvick Stewart-Haas Racing Ford 5 Kasey Kahne Hendrick Motorsports Chevrolet 
54079288 Astrapotheria Hilarcotherium castanedaii File:Hilarcotherium_skull.jpg {{center|}} Astrapotheria Granastrapotherium snorki File:Granastrapotherium reconstruction.jpg {{center|}} Astrapotheria Xenastrapotherium kraglievichi File:Xenastrapotherium kraglievichi.jpg {{center|}} Anteaters and sloths Hapalops sp. File:Hapalops skeleton.jpg {{center|}} Litopterna Theosodon sp. File:Theosodon.jpg {{center|}} 
54096636 1 Jamie McMurray Chip Ganassi Racing Chevrolet 2 Brad Keselowski Team Penske Ford 3 Austin Dillon Richard Childress Racing Chevrolet 4 Kevin Harvick Stewart-Haas Racing Ford 5 Kasey Kahne Hendrick Motorsports Chevrolet 
54120684 1964 50 cc {{Flagicon|New Zealand}} Hugh Anderson (Suzuki) {{Flagicon|Germany}} Hans Georg Anscheidt (Kreidler) {{Flagicon|Switzerland}} Luigi Taveri (Kreidler) {{Flagicon|New Zealand}} Hugh Anderson (Suzuki) 1964 125 cc {{Flagicon|Switzerland}} Luigi Taveri (Honda) {{Flagicon|Northern Ireland}} Ralph Bryans (Honda) {{Flagicon|Rhodesia and Nyasaland}} Jim Redman (Honda) {{Flagicon|Rhodesia and Nyasaland}} Jim Redman (Honda) 1964 350 cc {{Flagicon|Rhodesia and Nyasaland}} Jim Redman (Honda) {{Flagicon|Rhodesia and Nyasaland}} Bruce Beale (Honda) {{Flagicon|Soviet Union}} Endel Kiisa (CKEB) {{Flagicon|Rhodesia and Nyasaland}} Jim Redman (Honda) 1964 500 cc {{Flagicon|Australia}} Jack Ahearn (Norton) {{Flagicon|Canada|1957}} Mike Duff (Matchless) {{Flagicon|Switzerland}} Gyula Marsovszky (Matchless) {{Flagicon|Canada|1957}} Mike Duff (Matchless) 1965 125 cc {{Flagicon|New Zealand}} Hugh Anderson (Suzuki) {{Flagicon|Canada|1965}} Frank Perris (Suzuki) {{Flagicon|DDR}} Jochen Leitert (MZ) {{Flagicon|New Zealand}} Hugh Anderson (Suzuki) 
54150426 Brian Clough 1 (1979) Nottingham Forest Bob Paisley 1 (1981) Liverpool Udo Lattek 1 (1987) Bayern Munich Arrigo Sacchi 1 (1989) Milan Fabio Capello 1 (1994) Milan 
54154834 1 Jamie McMurray Chip Ganassi Racing Chevrolet 2 Brad Keselowski Team Penske Ford 3 Austin Dillon Richard Childress Racing Chevrolet 4 Kevin Harvick Stewart-Haas Racing Ford 5 Kasey Kahne Hendrick Motorsports Chevrolet 
54157393 2016 NCAA Division&nbsp;I Indoor Championships Birmingham, Alabama 8th {{nowrap|4×400 m}} relay 3:07.49  2016 NCAA Division&nbsp;I Championships Eugene, Oregon 13th {{nowrap|400 m}} 45.99  2016 NCAA Division&nbsp;I Championships Eugene, Oregon {{AthAbbr|DNF}} (semi&nbsp;1) {{nowrap|4×100 m}} relay —  2016 NCAA Division&nbsp;I Championships Eugene, Oregon 4th {{nowrap|4×400 m}} relay 3:03.94  2017 NCAA Division&nbsp;I Indoor Championships College Station, Texas 1st {{nowrap|400 m}} 44.85 {{AthAbbr|WL}}, {{AthAbbr|PB}} 
54180686 Paul Davison w/o–w/d Niu Zhuang Zhou Yuelong 4–0 Kurt Dunham Tian Pengfei 4–2 Scott Donaldson Wang Yuchen w/o–w/d Rod Lawler Robert Milkins 4–1 Aditya Mehta 
54181983 Giovanni Trapattoni 2 (1984–85, 1992–93) Juventus Marcello Lippi 2 (1995–96, 1997–98) Juventus Carlo Ancelotti 2 (2002–03, 2006–07) Milan Bob Paisley 1 (1977–78) Liverpool Brian Clough 1 (1979–80) Nottingham Forest 
54191930 3 Tony Kanaan 1:09.223 +0.667 102.347 Mo Nunn Racing 4 Cristiano da Matta 1:09.312 +0.756 102.216 Newman-Haas Racing 5 Gil de Ferran 1:09.344 +0.788 102.169 Team Penske 6 Dario Franchitti 1:09.366 +0.810 102.136 Team Green 8 Jimmy Vasser 1:09.807 +1.251 101.491 Patrick Racing 
54199402 2 Dario Franchitti 25.991 +0.142 214.413 Team Green 3 Gil de Ferran 25.993 +0.144 214.396 Team Penske 4 Tony Kanaan 26.022 +0.173 214.157 Mo Nunn Racing 8 Alex Zanardi 26.088 +0.239 213.615 Mo Nunn Racing 10 Patrick Carpentier 26.147 +0.298 213.132 Forsythe Racing 
54201496 4 Bryan Herta 57.904 +0.548 130.934 Forsythe Racing 5 Memo Gidley 57.916 +0.560 130.907 Chip Ganassi Racing 6 Tony Kanaan 57.936 +0.580 130.862 Mo Nunn Racing 7 Alex Tagliani 57.942 +0.586 130.848 Forsythe Racing 9 Patrick Carpentier 58.230 +0.874 130.201 Forsythe Racing 
54208217 1 Tony Kanaan 23.145 — 160.052 Mo Nunn Racing 4 Memo Gidley 23.221 +0.076 159.528 Chip Ganassi Racing 5 Alex Zanardi 23.315 +0.170 158.885 Mo Nunn Racing 6 Jimmy Vasser 23.317 +0.172 158.871 Patrick Racing 7 Roberto Moreno 23.327 +0.182 158.803 Patrick Racing 
54208478 1 Gil de Ferran 1:05.442 — 124.214 Team Penske 3 Patrick Carpentier 1:05.905 +0.463 123.341 Forsythe Racing 4 Jimmy Vasser 1:05.931 +0.489 123.293 Patrick Racing 5 Dario Franchitti 1:06.012 +0.570 123.141 Team Green 6 Alex Tagliani 1:06.093 +0.651 122.990 Forsythe Racing 
54217596 1 Alisson {{flagicon|BRA}} GK {{birth date and age2|2018|6|30|df=yes|1992|2|10}} Internacional 2016 2021 64 0 5 Juan Jesus {{flagicon|BRA}} CB / LB {{birth date and age2|2018|6|30|df=yes|1991|6|10}} Internazionale 2016 2020 62 0 11 Aleksandar Kolarov {{flagicon|SRB}} LB {{birth date and age2|2018|6|30|df=yes|1985|11|10}} Manchester City 2017 2020 47 3 20 Federico Fazio {{flagicon|ARG}} CB {{birth date and age2|2018|6|30|df=yes|1987|3|17}} Tottenham Hotspur 2016 2019 93 6 25 Bruno Peres {{flagicon|BRA}} RB {{birth date and age2|2018|6|30|df=yes|1990|3|1}} Torino 2016 2021 67 2 
54230384 Excelsior Maassluis Maassluis 5th HHC Hardenberg 14th Kozakken Boys Werkendam 2nd GVVV Veenendaal 10th TEC Tiel 12th 
54259041 25 Pepe Reina {{flagicon|ESP}} GK {{Birth date and age2|2018|6|30|df=yes|1982|8|31}} Bayern Munich 2015 2018 111 0 11 Christian Maggio {{flagicon|ITA}} RB {{Birth date and age2|2018|6|30|df=yes|1982|2|11}} Sampdoria 2008 2018 233 20 23 Elseid Hysaj {{flagicon|ALB}} RB {{Birth date and age2|2018|6|30|df=yes|1994|2|2}} Empoli 2015 2021 107 0 26 Kalidou Koulibaly {{flagicon|SEN}} CB {{Birth date and age2|2018|6|30|df=yes|1991|6|20}} Genk 2014 2021 123 8 62 Lorenzo Tonelli {{flagicon|ITA}} CB {{Birth date and age2|2018|6|30|df=yes|1990|1|17}} Empoli 2016 2020 7 3 
54289447 1 Jamie McMurray Chip Ganassi Racing Chevrolet 2 Brad Keselowski Team Penske Ford 3 Austin Dillon Richard Childress Racing Chevrolet 4 Kevin Harvick Stewart-Haas Racing Ford 5 Kasey Kahne Hendrick Motorsports Chevrolet 
54305151 Albania La Guajira {{center|{{convert|320|m|ft|abbr=on}}}} {{center|26,606}} {{center|}} File:La Guajira Topographic 2.png Barrancas La Guajira {{center|{{convert|40|m|ft|abbr=on}}}} {{center|34,619}} {{center|}} File:La Guajira Topographic 2.png Hatonuevo La Guajira {{center|{{convert|50|m|ft|abbr=on}}}} {{center|24,916}} {{center|}} File:La Guajira Topographic 2.png Fonseca La Guajira {{center|{{convert|11.8|m|ft|abbr=on}}}} {{center|33,254}} {{center|}} File:La Guajira Topographic 2.png El Molino La Guajira {{center|{{convert|240|m|ft|abbr=on}}}} {{center|8718}} {{center|}} File:La Guajira Topographic 2.png 
54313923 1 Jamie McMurray Chip Ganassi Racing Chevrolet 2 Brad Keselowski Team Penske Ford 3 Austin Dillon Richard Childress Racing Chevrolet 4 Kevin Harvick Stewart-Haas Racing Ford 5 Kasey Kahne Hendrick Motorsports Chevrolet 
54353064 5A Matt Bliss Republican 2016 John Persell  DFL 8,454 50.01 DFL 33B Cindy Pugh Republican 2012 Kelly Morrison  DFL 11,786 50.43 DFL 39B Kathy Lohmer Republican 2010 Shelly Christensen  DFL 11,372 50.25 DFL 42A Randy Jessup Republican 2016 Kelly Moller  DFL 12,289 57.52 DFL 44A Sarah Anderson Republican 2006 Ginny Klevorn  DFL 12,995 53.85 DFL 
54385608 1 Jamie McMurray Chip Ganassi Racing Chevrolet 2 Brad Keselowski Team Penske Ford 3 Austin Dillon Richard Childress Racing Chevrolet 4 Kevin Harvick Stewart-Haas Racing Ford 5 Kasey Kahne Hendrick Motorsports Chevrolet 
5442710 2007 Aata Sathya V. N. Aditya Telugu   2008 Jalsa Bhagyamathi/Bhagi Trivikram Srinivas Telugu   2008 Bhale Dongalu Jyothi K. Vijaya Bhaskar Telugu   2010 Huduga Hudugi Herself Indrajit Lankesh Kannada Cameo appearance  2011 Nenu Naa Rakshasi Meenakshi/Shravya Puri Jagannadh Telugu   
54443321 1 Jamie McMurray Chip Ganassi Racing Chevrolet 2 Brad Keselowski Team Penske Ford 3 Austin Dillon Richard Childress Racing Chevrolet 4 Kevin Harvick Stewart-Haas Racing Ford 5 Kasey Kahne Hendrick Motorsports Chevrolet 
54493581 Men's Shot Put F38 Final Cameron Crombie Australia 15.95 m 14 July Men's Shot Put F20 Final Muhammad Ziyad Zolkefli Malaysia 17.29 m 15 July Men's 5000m T13 Final Youssef Benibrahim Morocco 14:20.69 16 July Men's Triple Jump T20 Final Dmytro Prudnikov Ukraine 15.50 m 18 July Women's 100m T35 Final Isis Holt Australia 13.43 19 July 
54522062 Balance of Power: The 1990 Edition 1990 Mindscape Barbie Fashion Designer 1996 Digital Domain Barbie Storymaker 1996 Mattel Media Battle Chess 1991 Interplay Battleground: Bulge-Ardennes 1995 TalonSoft 
54552482 Niu Zhuang 5–1 Ian Preece Kurt Maflin 4–5 Josh Boileau Mark Joyce 5–2 Lyu Haotian Ali Carter 3–5 Wang Yuchen Alan McManus 5–4 Dominic Dale 
54556250 1 Jamie McMurray Chip Ganassi Racing Chevrolet 2 Brad Keselowski Team Penske Ford 3 Austin Dillon Richard Childress Racing Chevrolet 4 Kevin Harvick Stewart-Haas Racing Ford 5 Kasey Kahne Hendrick Motorsports Chevrolet 
54582731 1 Jamie McMurray Chip Ganassi Racing Chevrolet 2 Brad Keselowski Team Penske Ford 3 Austin Dillon Richard Childress Racing Chevrolet 4 Kevin Harvick Stewart-Haas Racing Ford 5 Kasey Kahne Hendrick Motorsports Chevrolet 
54603210 1 Sean Evans and Vince Charming 1 {{dts|1996|01|6}} {{age in days nts|month1=1|day1=6|year1=1996|month2=2|day2=17|year2=1996}} North Versailles, Pennsylvania House show {{small|Defeated The Wrong Crowd (Brian Anthony and Paul Atlas) in a tournament final.}} {{sup|[[#References|[G]]]}} 2 The Wrong Crowd
{{small|(Brian Anthony and Paul Atlas)}} 1 {{dts|1996|02|17}} {{age in days nts|month1=2|day1=17|year1=1996|month2=5|day2=25|year2=1996}} North Versailles, Pennsylvania House show  {{sup|[[#References|[G]]]}} 3 J.B. Destiny and Ron Williams 1 {{dts|1996|05|25}} {{age in days nts|month1=5|day1=25|year1=1996|month2=7|day2=20|year2=1996}} North Versailles, Pennsylvania House show {{small|Defeated Brian Anthony and Bone Crusher who was substituting for Paul Atlas due to injury.}} {{sup|[[#References|[G]]]}} 4 Paul Atlas {{small|(2)}} and Black Cat 1 {{dts|1996|07|20}} {{age in days nts|month1=7|day1=20|year1=1996|month2=9|day2=27|year2=1996}} North Versailles, Pennsylvania House show {{small|Defeated J.B. Destiny and Bubba The Bulldog who was substituting for Ron Williams.}} {{sup|[[#References|[G]]]}} 5 The Giant Hillbillies
{{small|(Gator and Country Boy Chris)}} 1 {{dts|1996|09|27}} {{age in days nts|month1=9|day1=27|year1=1996|month2=12|day2=13|year2=1996}} North Versailles, Pennsylvania House show  {{sup|[[#References|[G]]]}} 
5460482 Alejandro de la Vega 5 A Root That Beareth Gall and Worms Jess Nevins Allan Quatermain 1 The Titan Unwrecked; or, Futility Revisited Brian Stableford Auguste Dupin 1 Lacunal Visions Samuel T. Payne Bertie Wooster 5 The English Gentleman's Ball Randy Lofficier Bisclavret 7 The Beast Without Sharan Newman 
54643814 1 Jamie McMurray Chip Ganassi Racing Chevrolet 2 Brad Keselowski Team Penske Ford 3 Austin Dillon Richard Childress Racing Chevrolet 4 Kevin Harvick Stewart-Haas Racing Ford 5 Kasey Kahne Hendrick Motorsports Chevrolet 
54647289 Emmanuel, Buckley Buckley Jesus  1839-1842 Church in Wales Borderlands Mission Area  St Matthew, Buckley Buckley Matthew  1821-1822 Church in Wales Borderlands Mission Area Commissioners' church. Parish church 1874 Our Lady of the Rosary, Buckley Buckley Mary  1915 Roman Catholic Buckley Moved from a church on Brunswick Road 2000 Capel Bethel, Caerwys Caerwys Bethel   Presbyterian Gofalaeth Prestatyn  St Mary, Cilcain Cilcain Mary  Medieval Church in Wales Mold Mission Area  
5467455 1982–83 Kamloops Jr. Oilers WHL &nbsp; 4 0 0 0 0 &nbsp; — — — 1983–84 New Westminster Bruins WHL &nbsp; 70 11 20 31 104 &nbsp; 8 1 2 1984–85 New Westminster Bruins WHL &nbsp; 70 25 44 69 191 &nbsp; 10 3 2 1985–86 Kamloops Blazers WHL &nbsp; 32 17 14 31 119 &nbsp; — — — 1985–86 Medicine Hat Tigers WHL &nbsp; 34 14 16 30 95 &nbsp; 25 7 8 
5472228 2003 May 16 1 Ted Musgrave Ultra Motorsports Dodge 136* 204 (328.306) 1:46:39 114.768 2004 May 21 46 Dennis Setzer Morgan-Dollar Motorsports Chevrolet 134 201 (323.478) 1:52:03 107.631 2005 May 20 15 Kyle Busch Billy Ballew Motorsports Chevrolet 136* 204 (328.306) 1:57:03 104.571 2006 May 19 51 Kyle Busch Billy Ballew Motorsports Chevrolet 134 201 (323.478) 1:36:36 124.845 2008 May 16 88 Matt Crafton ThorSport Racing Chevrolet 138* 207 (333.134) 1:51:24 111.49 
54729261 1 Jamie McMurray Chip Ganassi Racing Chevrolet McDonald's David Pearson's 1980 CRC Chemicals Rebel 500 winning car 2 Brad Keselowski Team Penske Ford Miller Genuine Draft Rusty Wallace's 1991–1995 car 3 Austin Dillon Richard Childress Racing Chevrolet American Ethanol Dale Earnhardt's 1987 Southern 500 winning car 4 Kevin Harvick Stewart-Haas Racing Ford 1980s Busch Beer design, based on the “Head for the Mountains” commercials 5 Kasey Kahne Hendrick Motorsports Chevrolet Great Clips Geoff Bodine's 1985 car 
54762126 1 Jamie McMurray Chip Ganassi Racing Chevrolet 2 Brad Keselowski Team Penske Ford 3 Austin Dillon Richard Childress Racing Chevrolet 4 Kevin Harvick Stewart-Haas Racing Ford 5 Kasey Kahne Hendrick Motorsports Chevrolet 
547983 2007 {{sortname|Patrick|Nielsen Hayden}}* Tor Books  2007 {{sortname|Jim|Baen}} Baen Books  2007 {{sortname|Ginjer|Buchanan}} Ace Books  2007 {{sortname|David G.|Hartwell}} Tor Books  2008 {{sortname|David G.|Hartwell}}* Tor Books  
54800673 2003 USAPL Collegiate Nationals St. Louis, Missouri 3rd 160kg / 352.7lbs 100kg/220lbs 2003 USAPL Ozark Open St. Louis, Missouri 2nd 170kg / 374.7lbs 90kg/198lbs 2004 USAPL Bench Press Nationals Killeen, Texas 1st JR 197.5kg / 435.4lbs 100kg/220lbs 2005 USAPL Illinois State Championships Harrisburg, Illinois 1st 222.5kg / 490.5lbs 110kg/242lbs 2005 USAPL Bench Press Nationals St. Louis, Missouri 1st 220kg / 485lbs 110kg/242lbs 
54833633 1940 Olean Oilers 4–2 Batavia Clippers 1942 Jamestown Falcons 4–2 Olean Oilers 1943 Wellsville Yankees 4–3 Jamestown Falcons 1944 Jamestown Falcons 4–0 Lockport Cubs 1945 Batavia Clippers 4–3 Lockport White Socks 
54851570 1 France 1 Gautier Paulin MXGP Honda 450 1 France 3 Romain Febvre Open Yamaha 450 2 Netherlands 4 Glenn Coldenhoff MXGP KTM 450 2 Netherlands 6 Jeffrey Herlings Open KTM 450 3 United States 7 Cole Seely MXGP Honda 450 
54887685 1 Jamie McMurray Chip Ganassi Racing Chevrolet 2 Brad Keselowski Team Penske Ford 3 Austin Dillon Richard Childress Racing Chevrolet 4 Kevin Harvick Stewart-Haas Racing Ford 5 Kasey Kahne Hendrick Motorsports Chevrolet 
54892778 12 July 2012 2012 World Junior Championships in Athletics 400m Hurdles Spain C H4 7 1:01.14 04 June 2015 2015 Asian Athletics Championships 400m Hurdles China A H2 4 59.28 06 June 2015 2015 Asian Athletics Championships 400m Hurdles China A F 4 57.79 11 June 2016 Erzurum 400m Turkey F F2 1 55.18 24 June 2016 Bydgoszcz 400m Poland F F 4 53.72 
54910255 1989 DSL Dodgers 2–0 DSL Athletics 1994 DSL Mets 3–1 DSL Mariners 2000 DSL Dodgers 3–2 DSL Brewers 2001 DSL Brewers 3–2 DSL Phillies 2002 DSL Indians 3–0 DSL Blue Jays 
54953530 1 Jamie McMurray Chip Ganassi Racing Chevrolet 2 Brad Keselowski Team Penske Ford 3 Austin Dillon Richard Childress Racing Chevrolet 4 Kevin Harvick Stewart-Haas Racing Ford 5 Kasey Kahne Hendrick Motorsports Chevrolet 
55011502 Bygland Aust-Agder Byglandsfjord Station  Eidsvoll Akershus Eidsvoll Manor  Enebakk Akershus Enebakk Church  Etnedal Oppland Bruflat  Flakstad Nordland Flakstad Church  
55089939 1 Jamie McMurray Chip Ganassi Racing Chevrolet 2 Brad Keselowski Team Penske Ford 3 Austin Dillon Richard Childress Racing Chevrolet 4 Kevin Harvick Stewart-Haas Racing Ford 5 Kasey Kahne Hendrick Motorsports Chevrolet 
55135774 1 Jamie McMurray Chip Ganassi Racing Chevrolet 2 Brad Keselowski Team Penske Ford 3 Austin Dillon Richard Childress Racing Chevrolet 4 Kevin Harvick Stewart-Haas Racing Ford 5 Kasey Kahne Hendrick Motorsports Chevrolet 
5515407 Gent 2004–05 Belgian First Division 29 5 3 0 – – – – 32 5  Gent 2005–06 Belgian First Division 28 9 4 1 6 1 – – 38 11  Gent 2006–07 Belgian First Division 2 0 0 0 2 0 – – 4 0  Anderlecht 2006–07 Belgian First Division 33 8 7 2 6 0 – – 46 10  Anderlecht 2007–08 Belgian First Division 22 5 7 3 6 0 – – 35 8  
55181434 Space Invaders Atari 2600 {{dts|February 1980}} Taito  Space Invaders Atari computers {{sort|000000001980-06-00|Summer 1980}} Taito  Space Invaders Atari 5200 {{dts|October 1982}} Taito  Galaxian Atari 5200 {{dts|October 1982}} Namco  Galaxian Atari computers {{dts|December 1982}} Namco  
55187145 1 Jamie McMurray Chip Ganassi Racing Chevrolet 2 Brad Keselowski Team Penske Ford 3 Austin Dillon Richard Childress Racing Chevrolet 4 Kevin Harvick Stewart-Haas Racing Ford 5 Kasey Kahne Hendrick Motorsports Chevrolet 
55190205 3 Ramy Rabia {{flagicon|Egypt}} CB {{Birth date and age|df=yes|1993|5|20}} 20 Saad Samir {{flagicon|Egypt}} CB {{Birth date and age|df=yes|1989|4|1}} 23 Mohamed Naguib {{flagicon|Egypt}} CB {{Birth date and age|df=yes|1983|1|13}} 4 Hesham Mohamed {{flagicon|Egypt}} DM {{Birth date and age|df=yes|1990|1|3}} 17 Amr El Soleya {{flagicon|Egypt}} DM {{Birth date and age|df=yes|1990|2|4}} 
55213278 00 Derrike Cope StarCom Racing Chevrolet 1 Jamie McMurray Chip Ganassi Racing Chevrolet 2 Brad Keselowski Team Penske Ford 3 Austin Dillon Richard Childress Racing Chevrolet 4 Kevin Harvick Stewart-Haas Racing Ford 
55217395 Old Bill and Son March 1941 Ian Dalrymple  He Found a Star September 1941 John Paddy Carstairs  The Silver Fleet March 1943 Vernon Sewell  The Man in Grey August 1943 Leslie Arliss  They Met in the Dark November 1943 Karel Lamac  
55287548 1. Dilip Thakor Chanasma Minister of State for Welfare of socially and educationally backward classes, Labour and Employment BJP  2. Purshottam Solanki Bhavnagar Rural Minister of State for Animal Husbandry BJP  3. Jasabhai Barad Somnath Minister of State for Agriculture, Civil aviation BJP  4. Chhatrasinh Mori Jambusar Minister of State for Food and Civil Supplies, Consumer Affairs BJP  5. Jaydrathsinh Parmar Jambusar Minister of State for Road and Building, Capital Project BJP  
55290621 1 Jamie McMurray Chip Ganassi Racing Chevrolet 2 Brad Keselowski Team Penske Ford 3 Austin Dillon Richard Childress Racing Chevrolet 4 Kevin Harvick Stewart-Haas Racing Ford 5 Kasey Kahne Hendrick Motorsports Chevrolet 
55291594 7 September 1931 0–1 Millwall Second Division Elland Road 9,000 First ever game between the teams.{{sfnp|Lindsay|Tarrant|2010|p=323}} 14 September 1931 2–3 {{nobreak|[[Leeds United F.C.|<span style="color:#0047ab;">Leeds United</span>]]}} Second Division The Den 11,844  22 November 1947 2–1 Leeds United Second Division Elland Road 24,000  10 April 1948 1–1 Draw Second Division The Den 21,426  9 November 1985 3–1 Millwall Second Division The Den 9,758 First game between the sides in 37 years, longest period without meeting. 
5531401 1989 DAL 11 293 155 52.9 1,749 9 18 75 55.7 1990 DAL 15 399 226 56.6 2,579 11 18 61 66.6 1991 DAL 12 363 237 65.3 2,754 11 10 61 86.7 1992 DAL 16 473 302 63.8 3,445 23 6 87 96.6 1993 DAL 14 392 271 69.1 3,100 15 6 80 99.0 
55336396 1 Parker Johnstone 31.242 — 230.458 Comptech Racing 2 Teo Fabi 31.506 +0.264 228.526 Forsythe Racing 3 Michael Andretti 31.522 +0.280 228.413 Newman-Haas Racing 4 Jacques Villeneuve 31.546 +0.304 228.239 Team Green 5 Jimmy Vasser 31.582 +0.340 227.982 Chip Ganassi Racing 
55347250 1 Jamie McMurray Chip Ganassi Racing Chevrolet 2 Brad Keselowski Team Penske Ford 3 Austin Dillon Richard Childress Racing Chevrolet 4 Kevin Harvick Stewart-Haas Racing Ford 5 Kasey Kahne Hendrick Motorsports Chevrolet 
55414883 00 Derrike Cope StarCom Racing Chevrolet 1 Jamie McMurray Chip Ganassi Racing Chevrolet 2 Brad Keselowski Team Penske Ford 3 Austin Dillon Richard Childress Racing Chevrolet 4 Kevin Harvick Stewart-Haas Racing Ford 
55418818 1 Alex Horwath {{USA}} GK {{birth date and age2|2018|03|04|1987|03|27}} SK Brann 1 (2018) 2 Tony Beltran {{USA}} DF {{birth date and age2|2018|03|04|1987|10|11}} 2008 MLS SuperDraft 11 (2008) 4 David Horst {{USA}} DF {{birth date and age2|2018|03|04|1985|10|25}} Houston Dynamo 5 (2008–2010, 2017) 6 Damir Kreilach {{CRO}} MF {{birth date and age2|2018|03|04|1989|04|16}} Union Berlin 1 (2018) 8 Stephen Sunday {{NGR}} MF {{birth date and age2|2018|03|04|1988|09|17}} Alanyaspor 3 (2016) 
5546027 2005 Forever in My Heart Lily GMA Network 2006 Majika Amyla GMA Network 2008 Ako si Kim Samsoon Vicky Mara GMA Network 2008–2009 Luna Mystika Susing GMA Network 2012 Luna Blanca Book 3 Roma GMA Network 
55467813 3 Eddie Cheever 32.6785 +0.227 220.328 Team Cheever 5 Mark Dismore 32.8325 +0.381 219.295 Team Menard 6 Helio Castroneves 32.8631 +0.411 219.091 Team Penske 8 Sarah Fisher 32.9341 +0.482 218.618 Dreyer & Reinbold Racing 9 Eliseo Salazar 32.9366 +0.485 218.602 A.J. Foyt Enterprises 
55481028 3 Helio Castroneves 32.4393 +0.074 221.953 Team Penske 7 Greg Ray 32.5286 +0.163 221.344 Access Motorsports 9 Gil de Ferran 32.5988 +0.233 220.867 Team Penske 10 Scott Sharp 32.6580 +0.292 220.467 Kelley Racing 14 Bryan Herta 32.8577 +0.492 219.127 Andretti Green Racing 
55491729 1 Jamie McMurray Chip Ganassi Racing Chevrolet 2 Brad Keselowski Team Penske Ford 3 Austin Dillon Richard Childress Racing Chevrolet 4 Kevin Harvick Stewart-Haas Racing Ford 5 Kasey Kahne Hendrick Motorsports Chevrolet 
5551676 1986–87 United States International University GWHC  6 0 1 1 0  — — — 1990–91 Cape Breton Oilers AHL  63 14 15 29 65  4 0 0 1991–92 Cape Breton Oilers AHL  80 30 24 54 46  5 3 1 1992–93 Cape Breton Oilers AHL  38 18 21 39 32  9 2 2 1992–93 Edmonton Oilers NHL  40 13 6 19 25  — — — 
55530481 Andhra Pradesh Emblem of Andhra Pradesh Link to image Arunachal Pradesh Emblem of Arunachal Pradesh File:..Arunachal Pradesh Flag(INDIA).png Bihar Emblem of Bihar File:Seal of Bihar.svg Chhattisgarh Emblem of Chhattisgarh Link to image Goa Emblem of Goa Link to image 
55564488 2010 Willetton Tigers 107 – 96 Lakeside Lightning 2011 Wanneroo Wolves 88 – 83 Perry Lakes Hawks 2012 Cockburn Cougars 105 – 72 East Perth Eagles 2013 Lakeside Lightning 77 – 74 Wanneroo Wolves 2014 East Perth Eagles 99 – 83 Geraldton Buccaneers 
55628353 Buriram United U-23 Buriram Khao Kradong Stadium 14,000  Khonkaen United Khonkaen Khonkaen PAO. Stadium 7,000  Loei City Loei Loei Riverside Stadium 3,628  Mahasarakham Maha Sarakham Mahasarakham Province Stadium 3,171  Mashare Chaiyaphum Chaiyaphum Chaiyaphum Province Stadium 2,564  
556691 {{mnrr|Ansonia}} Waterbury Branch Ansonia New Haven, CT New Haven  ????  {{mnrr|Beacon Falls}} Waterbury Branch Beacon Falls New Haven, CT New Haven  ????  {{mnrr|Bedford Hills}} Harlem Line Bedford Falls Westchester, NY New York Central  1847  {{mnrr|Bethel}} Danbury Branch Bethel Fairfield, CT New Haven {{access icon}}‡ 1996 Replaced 1899-built NYNH&H Depot {{mnrr|Botanical Garden}} Harlem Line Bedford Park The Bronx, NY New York Central {{access icon}}‡ Circa 1890s  
55685441 1962 3rd Lok Sabha 34 1967 4th Lok Sabha 35 1971 5th Lok Sabha 28 1977 6th Lok Sabha 41 1980 7th Lok Sabha 41 
55685964 {{gold1}} Olivia Breen Athletics Women's long jump (T38) 8 April 2018 {{gold1}} Hollie Arnold Athletics Women's javelin throw (F46) 9 April 2018 {{gold1}} Alys Thomas Swimming Women's 200 metre butterfly 9 April 2018 {{gold1}} Michael Wixey Shooting Men's trap 14 April 2018 {{gold1}} Lauren Price Boxing Women's middleweight 14 April 2018 
5576548 Cork 2001 Division 1B 1 0-00 — — — — 1 Cork 2002 Division 1B — — — — — — — Cork 2003 Division 1B 8 0-01 2 0-00 3 0-00 13 Cork 2004 Division 1B 7 0-00 3 0-02 4 0-00 14 Cork 2005 Division 1B 6 0-00 2 0-00 3 0-00 11 
5576621 Blackrock 1996-97 0 0-00 — — — — Blackrock 1997-98 4 0-00 — — — — Blackrock 1998-99 4 0-00 1 0-00 — — Blackrock 1999-00 5 0-00 1 0-00 — — Blackrock 2000-01 2 0-00 — — — — 
5577 Bjelovar-Bilogora Bjelovar 2,652 119,743 Brod-Posavina Slavonski Brod 2,043 158,559 Dubrovnik-Neretva Dubrovnik 1,783 122,783 Istria Pazin 2,820 208,440 Krapina-Zagorje Krapina 1,224 133,064 
55800301 Kaccha Limboo Marathi Prasad Oak Manusangada Tamil Amshan Kumar Railway Children Kannada Prithvi Konanur Juze Konkani Miransha Naik Pimpal Marathi Gajendra Ahire 
55820623 1 Aaron Sheehan Mallow 1-10 13 Carrigaline 1 Rory O'Doherty Ballincollig 1-10 13 Youghal 2 Alan Hayes Kilbrittain 4-00 12 Aghabullogue 2 Pa Finnegan Aghabullogue 0-12 12 Kilbrittain 3 Aidan O'Mahony Inniscarra 2-05 11 Courcey Rovers 
55820796 1 Seán Hayes Mallow 2-13 19 Inniscarra 2 Liam Coleman Fermoy 1-11 14 Valley Rovers 3 Seán Hayes Mallow 2-07 13 Watergrasshill 4 Liam O'Keeffe Kanturk 2-05 11 Bandon 4 Paudie Lynch Kilworth 1-08 11 Inniscarra 
55822171 1 Tadhg O'Sullivan Courcey Rovers 1-09 12 Castlelyons 1 Shane O'Regan Watergrasshill 0-12 12 Ballinhassig 2 Noel McNamara Kilworth 1-08 11 Aghada 2 Chris O'Leary Valley Rovers 1-08 11 Ballinhassig 2 Shane O'Regan Watergrasshill 0-11 11 Fermoy 
55840794 00 Jeffrey Earnhardt StarCom Racing Chevrolet 1 Jamie McMurray Chip Ganassi Racing Chevrolet 2 Brad Keselowski Team Penske Ford 3 Austin Dillon Richard Childress Racing Chevrolet 4 Kevin Harvick Stewart-Haas Racing Ford 
55847780 Taiwan Province Yilan County 12 11 10   11 Taiwan Province Hsinchu County 13 14 1   22 Taiwan Province Miaoli County 18 13 2   29 Taiwan Province Changhua County 26 19 19   44 Taiwan Province Nantou County 13 13 6   19 
55872704  Willem Treub Willem Treub
(1858–1931) 24 October 1914 –
8 February 1916
{{ref_label|resigned|Res}} Free-thinking
Democratic League Pieter Cort van
der Linden
(Cort van der Linden)  Hendrikus Colijn Hendrikus Colijn
(Prime Minister 1925–1926)
(1869–1944) 11 August 1923 –
8 March 1926 Anti-Revolutionary Party Charles Ruijs de
Beerenbrouck
(Ruijs de Beerenbrouck II)  Hendrikus Colijn Hendrikus Colijn
(Prime Minister 1925–1926)
(1869–1944) 11 August 1923 –
8 March 1926 Anti-Revolutionary Party Hendrikus Colijn
(Colijn I)  Pieter Oud Pieter Oud
(1886–1968) 26 May 1933 –
24 June 1937 Free-thinking
Democratic League Hendrikus Colijn
(Colijn II • III)  Hendrikus Colijn Dr.
Hendrikus Colijn
(Prime Minister)
(1869–1944) 19 May 1939 –
25 July 1939
{{ref_label|ad interim|''Ad interim''}} Anti-Revolutionary Party Hendrikus Colijn
(Colijn IV) 
55892671 {{dts|format=dmy|2018|2|6}} PDRM A 6–2 Fortunato (3) 8', 44', 72', Shukor 40', Syamim 49', Ramsay 55' ?? 1st {{dts|format=dmy|2018|2|12}} Penang H 3–0 Fortunato (2) 8', 44', Christie 85' ?? 1st {{dts|format=dmy|2018|4|10}} Terengganu II A 2–0 Shukor 45+3', Fernandes 64 (pen.)' ?? 1st {{dts|format=dmy|2018|4|14}} Sabah A 1–1 Wan Zack 10' ?? 1st {{dts|format=dmy|2018|4|26}} Sarawak H 3–2 Fernandes (2) 45', 87', Shukor 67' ?? 1st 
5590996 2000 En Sakhiye Tamil  2001 Yeh Raaste Hain Pyaar Ke Hindi Bam Bhole Bam Bhole 2003 Aanch Hindi Hai Re Umariya 16 baras Ki 2004 Paisa Vasool Hindi Maine Saiyan Ki Demand 2006 Malamaal Weekly Hindi Kismat Se Chalti Hai 
55952413 LB Corey Nelson UFA Denver Broncos March 14 Signed 1-year, $2.25 million deal DT Haloti Ngata UFA Detroit Lions March 15 Signed 1-year, $2.6 million deal LB Paul Worrilow UFA Detroit Lions April 3 Signed 1-year deal WR Markus Wheaton UFA Chicago Bears May 2 Signed 1-year deal LB LaRoy Reynolds UFA Atlanta Falcons May 15 Signed 1-year deal 
56120679 March 31, 2017 Baltimore United States Royal Farms Arena April 1, 2017 Newark United States Prudential Center April 2, 2017 Boston United States TD Garden April 6, 2017 Cleveland United States Quicken Loans Arena April 7, 2017 Auburn Hills United States The Palace of Auburn Hills 
56130012 22 Ward Burton Bill Davis Racing Pontiac 28.666 193.400 2 88 Dale Jarrett Robert Yates Racing Ford 28.713 193.083 3 6 Mark Martin Roush Racing Ford 28.858 192.113 4 30 Derrike Cope Bahari Racing Pontiac 28.886 191.927 6 18 Bobby Labonte Joe Gibbs Racing Pontiac 28.936 191.595 7 
56135441 1 Jamie McMurray Chip Ganassi Racing Chevrolet 2 Brad Keselowski Team Penske Ford 3 Austin Dillon Richard Childress Racing Chevrolet 4 Kevin Harvick Stewart-Haas Racing Ford 9 Chase Elliott Hendrick Motorsports Chevrolet 
56163215 June 12, 2018 St. Augustine United States St. Augustine Amphitheatre June 15, 2018 Raleigh United States Red Hat Amphitheater June 17, 2018 Syracuse United States St. Joseph's Amphitheater at Lakeview June 18, 2018 Toronto Canada Budweiser Stage June 20, 2018 Gildford United States Bank of New Hampshire Pavilion 
56229229 1980 Murder by Decree Genie Award, Best Performance by an Actor in a Leading Role {{WON}}  2007 Man in the Chair Method Fest Award, Best Ensemble Cast {{WON}}  2007 Man in the Chair Palm Beach International Film Festival Award, Best Lead Actor {{WON}}  2009 Emotional Arithmetic Genie Award, Best Performance by an Actor in a Leading Role {{Nominated}}  2010 The Last Station Academy Award, Best Supporting Actor {{Nominated}}  
5628276 1983–84 Peterborough Petes OHL  66 4 21 25 91  8 0 6 1984–85 Peterborough Petes OHL  64 14 47 61 125  17 2 10 1985–86 Peterborough Petes OHL  54 12 32 44 106  16 1 7 1986–87 New York Rangers NHL  52 2 13 15 118  1 0 0 1986–87 New Haven Nighthawks AHL  12 2 6 8 56  3 1 0 
56283955 7 Game of Thrones HBO 6 The Marvelous Mrs. Maisel Prime Video 6 Saturday Night Live NBC 5 Stranger Things Netflix 4 Jesus Christ Superstar Live in Concert NBC 
5631140 Arizona Diamondbacks Bob Melvin  Atlanta Braves Bobby Cox  Chicago Cubs Dusty Baker  Cincinnati Reds Dave Miley Replaced during the season by Jerry Narron Colorado Rockies Clint Hurdle  
56369279 {{dts|format=dmy|2018|2|2}} PDRM H 1–1 Casagrande ?? 5th {{dts|format=dmy|2018|2|6}} Sabah H 1–1 Casagrande 29' ?? 7th {{dts|format=dmy|2018|2|10}} Sarawak A 3–2 Casagrande (3) 88', 90+2', 90+3 ?? 4th {{dts|format=dmy|2018|2|23}} MISC-MIFA H 1–1 Laly 89' ?? 4th {{dts|format=dmy|2018|4|13}} Penang H 3–1 Casagrande (2) 47', 71', Laly 85' ?? 4th 
56373622 1 Furious 7 Universal 229,325.1 $16,768,758 April 2 2 Avengers: Age of Ultron Walt Disney 211,412.1 $15,504,514 April 23 3 Jurassic World Universal 130,112.0 $9,621,701 June 11 4 Star Wars: The Force Awakens Walt Disney 120,820.5 $8,876,120 Dec 17 7 Mission: Impossible - Rogue Nation Paramount 107,755.1 $8,005,739 July 30 
56411615 Natalia Bratiuk LW8 7.5 km classical, standing 28:59.7 26:23.1 +4:10.9 14 Irina Gulyayeva LW12 5 km, sitting 17:43.2 17:43.2 +1:01.2 5 Maria Iovleva LW12 12 km, sitting 40:54.7 40:54.7 +2:38.8 7 Natalia Kocherova LW12 5 km, sitting 18:29.0 18:29.0 +1:47.0 8 Anna Milenina LW8 7.5 km classical, standing 24:46.0 22:32.3 +20.1 4 
56445935 00 Jeffrey Earnhardt StarCom Racing Chevrolet 1 Jamie McMurray Chip Ganassi Racing Chevrolet 2 Brad Keselowski Team Penske Ford 3 Austin Dillon Richard Childress Racing Chevrolet 4 Kevin Harvick Stewart-Haas Racing Ford 
56463927 1990 33rd 47th 6th 46th 49th 1st 51st 41st 5th  36th 1991 33rd 47th 6th 46th 50th 1st 51st 41st 5th  36th 2001 36th 49th 9th 50th 52nd 5th 54th 44th 10th  40th 2004 36th 50th 9th 51st 53rd 6th 55th 45th 11th  41st 2005 37th 50th 10th 51st 53rd 6th 55th 45th 11th  41st 
56495986 The Amazing Adventures of Morph {{dts|1980|10|13}} {{dts|1981}} BBC The Morph Files {{dts|1996|01|04}} {{dts|1996|03|29}} BBC Rex the Runt {{dts|1998|12|21}} {{dts|2001|12|16}} BBC Two Angry Kid {{dts|1999}} 2007 BBC Four Creature Comforts {{dts|2003|10|1}} {{dts|2007|6|18}} ITV 
56517809 00 Jeffrey Earnhardt StarCom Racing Chevrolet 1 Jamie McMurray Chip Ganassi Racing Chevrolet 2 Brad Keselowski Team Penske Ford 3 Austin Dillon Richard Childress Racing Chevrolet 4 Kevin Harvick Stewart-Haas Racing Ford 
56528235 00 Jeffrey Earnhardt StarCom Racing Chevrolet 1 Jamie McMurray Chip Ganassi Racing Chevrolet 2 Brad Keselowski Team Penske Ford 3 Austin Dillon Richard Childress Racing Chevrolet 4 Kevin Harvick Stewart-Haas Racing Ford 
56568617 00 Jeffrey Earnhardt StarCom Racing Chevrolet 1 Jamie McMurray Chip Ganassi Racing Chevrolet 2 Brad Keselowski Team Penske Ford 3 Austin Dillon Richard Childress Racing Chevrolet 4 Kevin Harvick Stewart-Haas Racing Ford 
56583290 Bodil Awards 25 February 2007 Best Non-American Film Michael Haneke {{nom}}  British Independent Film Awards 29 November 2006 Best Foreign Independent Film Michael Haneke {{won}}  Cannes Film Festival 11 – 22 May 2005 Best Director Michael Haneke {{won}}  Cannes Film Festival 11 – 22 May 2005 FIPRESCI Prize Michael Haneke {{won}}  Cannes Film Festival 11 – 22 May 2005 Prize of the Ecumenical Jury Michael Haneke {{won}}  
56610802 2011 Zedd Shave It Single Oct 4, 2011 OWS002 2011 Zedd Shave It: The Aftershave EP Nov 8, 2011 OWS005B 2012 The M Machine Metropolis Pt. I EP Apr 24, 2012 OWS014 2013 Birdy Nam Nam Defiant Order EP Jan 22, 2013 OWS028 2013 Birdy Nam Nam Defiant Order LP May 28, 2013 OWS041 
56684277 1 Bart Hester Rep Cave Springs 2012 2020 2028 2 Jim Hendren Rep Gravette 2012 2020 2028 3 Cecile Bledsoe Rep Rogers 2008 2018 2018 4 Uvalde Lindsey Dem Fayetteville 2012 2018 2026 6 Gary Stubblefield Rep Branch 2012 2018 2028 
56684524 Dec. 15 Cure Bowl Camping World Stadium
Orlando, Florida
1:30 pm CBSSN Tulane Green Wave (6–6)
Louisiana Ragin' Cajuns (7–6) American
Sun Belt Tulane 41
Louisiana 24 Dec. 15 New Mexico Bowl Dreamstyle Stadium
Albuquerque, New Mexico
2:00 pm ESPN Utah State Aggies (10–2)
North Texas Mean Green (9–3) MWC
C-USA Utah State 52
North Texas 13 Dec. 15 Las Vegas Bowl Sam Boyd Stadium
Las Vegas, Nevada
3:30 pm ABC No. 21 Fresno State Bulldogs (11–2)
Arizona State Sun Devils (7–5) MWC
Pac-12 Fresno State 31
Arizona State 20 Dec. 15 Camellia Bowl Cramton Bowl
Montgomery, Alabama
5:30 pm ESPN Georgia Southern Eagles (9–3)
Eastern Michigan Eagles (7–5) Sun Belt
MAC Georgia Southern 23
Eastern Michigan 21 Dec. 15 New Orleans Bowl Mercedes-Benz Superdome
New Orleans, Louisiana
9:00 pm ESPN Appalachian State Mountaineers (10–2)
Middle Tennessee Blue Raiders (8–5) Sun Belt
C-USA Appalachian State 45
Middle Tennessee 13 
56695235 1999 Clark 72–69 Springfield Worcester, MA 2000 Springfield 68–60 Clark Worcester, MA 2001 Clark 77–57 Babson Worcester, MA 2002 Babson 44–42 Wheaton Wellesley, MA 2003 Clark 84–76 (OT) Babson Worcester, MA 
56703987 2008 Scranton 64–57 Juniata 2009 Scranton 80–75 (OT) Susquehanna 2010 Merchant Marine 68–54 Scranton 2011 Scranton 82–71 Catholic 2012 Scranton 78–70 Juniata 
5670545 {{AUT}} parliamentary federal republic Federal President (Bundespräsident) Federal Chancellor (Bundeskanzler) {{flag|Belgium|state}} parliamentary federal constitutional popular monarchy King (Koning / Roi / König) Prime Minister / First Minister (Eerste Minister / Premier Ministre / Premierminister) {{BUL}} parliamentary unitary republic President (Президент) Minister-Chairman (Министър-председател) {{CRO}} parliamentary unitary republic President of the Republic (Predsjednik Republike) President of the Government (Predsjednik Vlade) {{CZE}} parliamentary unitary republic President (Prezident) Chairman of the Government (Předseda vlády) 
56713358 1994 Franklin & Marshall 63–61 Johns Hopkins 1995 Muhlenberg 88–86 (OT) Franklin & Marshall 1996 Franklin & Marshall 79–63 Gettysburg 1997 Dickinson 90–59 Swarthmore 1998 Muhlenberg 55–53 Johns Hopkins 
56757083 2002 Caldwell 82–49 Nyack 2003 Teikyo Post 74–70 Felician 2005 Bloomfield 91–67 Caldwell 2006 Bloomfield 70–64 Dominican 2007 Caldwell 61–60 USciences 
56765961 1 Friday November 10 7:35 PM Cedar Rapids Rampage W 8–7 1–0 SECU Arena 3,733 2 Friday November 17 7:35 PM Syracuse Silver Knights W 7–6 2–0 SECU Arena 3,521 3 Saturday November 18 7:35 PM Florida Tropics L 4–5 2–1 RP Funding Center 2,356 4 Friday December 1 7:35 PM Ontario Fury W 8–5 3–1 SECU Arena 3,800 6 Sunday December 10 3:05 PM Florida Tropics W 10–1 5–1 SECU Arena 3,429 
567909 Chicago Fire 2000 MLS 18 2 5 0 — — 7 0 30 2 Chicago Fire 2001 MLS 24 2 3 0 — — 3 1 30 3 Chicago Fire 2002 MLS 19 3 1 0 — — 3 0 23 3 Chicago Fire 2003 MLS 22 7 4 2 — — 4 1 30 10 Chicago Fire 2004 MLS 15 0 0 0 4 0 0 0 19 0 
56837091 1 Sami Whitcomb Willetton Tigers  2 Sami Whitcomb Willetton Tigers  3 Sami Whitcomb Willetton Tigers  5 Alison Schwagmeyer Lakeside Lightning  6 Darcee Garbin Rockingham Flames  
56842961 2001 Widener 81–74 Elizabethtown 2002 Elizabethtown 85–73 Widener 2003 Elizabethtown 85–73 Widener 2004 Elizabethtown 61–54 Widener 2005 Albright 81–68 Lebanon Valley 
56852370 Ontari Poratam "Nuvvu Ready Nenu Ready" Chakravarthy Jonnavittula Ramalingeswarao S. P. Balasubrahmanyam Ontari Poratam "Pedavimida" Chakravarthy Veturi Sundararama Murthy S. P. Balasubrahmanyam Gudachari 117 "Poothotala" Chakravarthy Veturi Sundararama Murthy S. P. Balasubrahmanyam Gudachari 117 "Naginilaga" Chakravarthy Veturi Sundararama Murthy S. P. Balasubrahmanyam Two Town Rowdy "Mokkajonna Pathulu" Raj-Koti Dasari Narayana Rao S. P. Balasubrahmanyam 
56866612 1 2 Scott Pye Walkinshaw Andretti United Holden Commodore ZB 25 52:16.7559 3 100 2 1 Jamie Whincup Triple Eight Race Engineering Holden Commodore ZB 25 +0.2612 4 92 3 8 Nick Percat Brad Jones Racing Holden Commodore ZB 25 +1.0259 2 86 4 14 Tim Slade Brad Jones Racing Holden Commodore ZB 25 +5.5405 5 80 5 25 James Courtney Walkinshaw Andretti United Holden Commodore ZB 25 +9.5620 11 74 
56978272 1 Brian Byrne Kildare 3-14 23 Warwickshire 2 Brian Byrne Kildare 1-09 12 Wicklow 2 John Collins Warwickshire 0-12 12 Donegal 3 Niall Kennedy Warwickshire 3-02 11 Derry 3 Cormac O'Doherty Derry 0-11 11 Kildare 
5698521 2004–05 Owen Sound Attack OHL  67 4 20 24 12  5 0 2 2005–06 Owen Sound Attack OHL  68 14 51 65 44  11 5 10 2006–07 Owen Sound Attack OHL  67 23 30 53 48  4 3 3 2006–07 Hartford Wolf Pack AHL  5 0 3 3 2  7 0 1 2007–08 Brampton Battalion OHL  61 29 41 70 38  5 1 3 
56988678 2005 Croatian International Andrej Pohar {{flagicon|SGP}} Hendra Wijaya
{{flagicon|SGP}} Liu Fan Frances 11–15, 15–13, 7–15 {{silver2}} Runner-up 2001 Hungarian International Andrej Pohar {{flagicon|SWE}} Daniel Glaser
{{flagicon|SWE}} Johanna Persson 7–5, 7–1, 7–1 {{gold1}} Winner 2000 Peru International Andrej Pohar {{flagicon|CAN}} Mike Beres
{{flagicon|CAN}} Kara Solmundson 1–15, 10–15 {{silver2}} Runner-up 1999 Slovenian International Andrej Pohar {{flagicon|POL}} Marcin Rynkiewicz
{{flagicon|POL}} Angelika Węgrzyn 15–7, 15–3 {{gold1}} Winner 1999 Romanian International Andrej Pohar {{flagicon|RUS}} Alexandr Russkikh
{{flagicon|RUS}} Anastasia Russkikh 15–7, 15–3 {{gold1}} Winner 
56999706 June 18 Celine Dion Falling into You: Around the World June 19 Celine Dion Falling into You: Around the World June 20 Celine Dion Falling into You: Around the World September 13 Def Leppard Slang World Tour September 27 Ozzy Osbourne Retirement Sucks Tour 
57004628 1967 Baldwin-Wallace 74–72 (OT) Otterbein 1968 Denison 73–72 Baldwin-Wallace 1969 Wittenberg 68–66 Baldwin-Wallace 1970 Oberlin 65–58 Wittenberg 1971 Capital 123–94 Mount Union 
57005432 Garrett Gilbert QB Orlando Apollos April 5 Cleveland Browns  Keith Reaser CB Orlando Apollos April 5 Kansas City Chiefs  Derron Smith FS San Antonio Commanders April 5 Minnesota Vikings  Alex Barrett DE San Diego Fleet April 5 Oakland Raiders  J. C. Hassenauer C Birmingham Iron April 5 Pittsburgh Steelers  
57017613 00 Landon Cassill StarCom Racing Chevrolet 1 Jamie McMurray Chip Ganassi Racing Chevrolet 2 Brad Keselowski Team Penske Ford 3 Austin Dillon Richard Childress Racing Chevrolet 4 Kevin Harvick Stewart-Haas Racing Ford 
57023954 1987 SE Massachusetts 73–58 Southern Maine 1988 SE Massachusetts 92–84 Southern Maine 1989 Southern Maine 84–66 Plymouth State 1990 SE Massachusetts 73–71 Southern Maine 1991 SE Massachusetts 86–83 Southern Maine 
57036816 2002 Franklin 92–87 Defiance Hanover, IN 2003 Hanover 79–60 Anderson Hanover, IN 2004 Hanover 61–48 Franklin Hanover, IN 2005 Hanover 66–56 Franklin Hanover, IN 2006 Transylvania 63–48 Franklin Lexington, KY 
57041970  File:Joaquin Balaguer 1977.jpg Joaquín Balaguer
(1906–2002) 1 July 1966 16 August 1970 1966 PRSC   File:Joaquin Balaguer 1977.jpg Joaquín Balaguer
(1906–2002) 16 August 1970 16 August 1974 1970 PRSC   File:Joaquin Balaguer 1977.jpg Joaquín Balaguer
(1906–2002) 16 August 1974 16 August 1978 1974 PRSC   File:Antonio Guzmán.jpg Antonio Guzmán Fernández
(1911–1982) 16 August 1978 4 July 1982 1978 PRD Committed suicide.  File:Salvador Jorge Blanco 1982.jpg Salvador Jorge Blanco
(1926–2010) 16 August 1982 16 August 1986 1982 PRD  
57054860 1 97 Shane van Gisbergen Triple Eight Race Engineering Holden Commodore ZB  50.8417 50.6381 1 2 1 Jamie Whincup Triple Eight Race Engineering Holden Commodore ZB  50.7789 50.6897 2 4 888 Craig Lowndes Triple Eight Race Engineering Holden Commodore ZB  50.6740 50.7824 4 5 25 James Courtney Walkinshaw Andretti United Holden Commodore ZB  50.9739 50.8428 5 7 2 Scott Pye Walkinshaw Andretti United Holden Commodore ZB  50.9701 50.8640 7 
570808 1995–96 TPS SM-l &nbsp; 50 4 11 15 32 &nbsp; 11 2 2 1996–97 TPS SM-l &nbsp; 50 2 8 10 20 &nbsp; 12 0 4 1997–98 TPS SM-l &nbsp; 48 4 15 19 67 &nbsp; 4 0 0 1998–99 Nashville Predators NHL &nbsp; 2 0 1 1 0 &nbsp; — — — 1999–2000 Nashville Predators NHL &nbsp; 59 5 6 11 20 &nbsp; — — — 
5709341 Runner-up 3. 11 July 1983 Newport Grass Barbara Jordan {{flagicon|USA}} Barbara Potter
{{flagicon|USA}} Pam Shriver 3–6, 1–6 Runner-up 5. 5 March 1984 Tokyo Carpet Barbara Jordan {{flagicon|USA}} Ann Kiyomura
{{flagicon|USA}} Pam Shriver 3–6, 7–6(9–7), 3–6 Runner-up 7. 11 June 1984 Birmingham Grass Barbara Jordan {{flagicon|USA}} Leslie Allen
{{flagicon|USA}} Anne White 6–7(1–7), 3–6 Winner 4. 17 September 1984 Deerfield Beach Hard Martina Navratilova {{flagicon|USA}} Barbara Potter
{{flagicon|USA}} Sharon Walsh 2–6, 6–2, 6–3 Runner-up 8. 10 December 1984 Tokyo Carpet Catherine Tanvier {{flagicon|FRG}} Claudia Kohde-Kilsch
{{flagicon|TCH}} Helena Suková 4–6, 4–6 
5711828 1992 Illinois Central College Lansing Community College 89-72 1993 Illinois Central College Kankakee Community College 76-71 (OT) 1994 Southwestern Michigan College Chattahoochee Valley Community College 81-72 1995 Kankakee Community College St. Clair County Community College 95-83 (3 OT) 1996 Lansing Community College Kankakee Community College 74-68 
571266 2007 Tony Hunt Penn State 2008 Matt Forte Tulane 2011 Christian Ponder Florida State 2012 Isaiah Pead Cincinnati 2013 EJ Manuel Florida State 
57138082 1 Michael Phelps {{USA|nome}} Swimming M 23 3 2 28 2 Larisa Latynina {{URS|nome}} Gymnastics F 9 5 4 18 3 Nikolai Andrianov {{URS|nome}} Gymnastics M 7 5 3 15 4 Boris Shakhlin {{URS|nome}} Gymnastics M 7 4 2 13 5 Edoardo Mangiarotti {{ITA|nome}} Fencing M 6 5 2 13 
57167414  {{centre|'''[[Recep Tayyip Erdoğan|Erdoğan]]'''<br />{{small|[[Justice and Development Party (Turkey)|AKP]]}}}}  {{centre|'''MHP'''}} Nationalist Movement Party Turkish nationalism  {{centre|'''[[Recep Tayyip Erdoğan|Erdoğan]]'''<br />{{small|[[Justice and Development Party (Turkey)|AKP]]}}}}  {{centre|'''HÜDAPAR'''}} Free Cause Party Pan-Islamism  {{centre|'''[[Recep Tayyip Erdoğan|Erdoğan]]'''<br />{{small|[[Justice and Development Party (Turkey)|AKP]]}}}}  {{centre|'''ASP'''}} AS Party Pro-military  {{centre|'''İnce'''<br />{{small|[[Republican People's Party (Turkey)|CHP]]}}}}  {{centre|'''MMP'''}} National Struggle Party Turkish nationalism  {{centre|'''[[Selahattin Demirtaş|Demirtaş]]'''<br />{{small|[[Peoples' Democratic Party (Turkey)|HDP]]}}}}  {{centre|'''DBP'''}} Democratic Regions Party Kurdish nationalism 
57177010 00 Landon Cassill StarCom Racing Chevrolet 1 Jamie McMurray Chip Ganassi Racing Chevrolet 2 Brad Keselowski Team Penske Ford 3 Austin Dillon Richard Childress Racing Chevrolet 4 Kevin Harvick Stewart-Haas Racing Ford 
57200047 2 1 Jamie Whincup Triple Eight Race Engineering Holden Commodore ZB 1:30.0523 +0.5466 2 3 97 Shane van Gisbergen Triple Eight Race Engineering Holden Commodore ZB 1:30.1799 +0.6742 3 4 888 Craig Lowndes Triple Eight Race Engineering Holden Commodore ZB 1:30.2002 +0.6945 4 7 55 Chaz Mostert Tickford Racing Ford Falcon FG X 1:30.3156 +0.8099 7 8 99 Anton de Pasquale Erebus Motorsport Holden Commodore ZB 1:30.3559 +0.8502 8 
5724386 2004–05 Lewiston Maineiacs QMJHL  23 7 12 3 1,353 67 0 2.97 .907  1 0 0 20 0 0 2005–06 Lewiston Maineiacs QMJHL  54 27 26 0 3,241 146 2 2.70 .908  6 2 4 359 17 1 2006–07 Lewiston Maineiacs QMJHL  37 26 10 0 2,186 94 2 2.58 .905  17 16 1 1,025 40 1 2007–08 Los Angeles Kings NHL  4 1 3 0 238 16 0 4.03 .864  — — — — — — 2007–08 Lewiston Maineiacs QMJHL  34 18 12 3 2,024 92 0 2.73 .908  6 2 4 348 17 0 
57307817 May 4, 1968 Singer Bowl Flushing, NY May 6, 1968 Boston Garden Boston, MA May 7, 1968 Brandeis University Waltham, MA May 7, 1968 New Haven Arena New Haven, CT May 7, 1968 Quinnipiac College Hamden, CT 
57331642 2 12 Fabian Coulthard DJR Team Penske Ford Falcon FG X 1:19.2419 +0.1283 2 5 2 Scott Pye Walkinshaw Andretti United Holden Commodore ZB 1:19.3974 +0.2838 5 6 14 Tim Slade Brad Jones Racing Holden Commodore ZB 1:19.4935 +0.3799 6 7 5 Mark Winterbottom Tickford Racing Ford Falcon FG X 1:19.5019 +0.3883 7 8 230 Will Davison 23Red Racing Ford Falcon FG X 1:19.5036 +0.3900 8 
57331644 1 97 Shane van Gisbergen Triple Eight Race Engineering Holden Commodore ZB 1:12.2587  {{tooltip|Top 10|Grid position determined by Top 10 Shootout}} 3 1 Jamie Whincup Triple Eight Race Engineering Holden Commodore ZB 1:12.4759 +0.2172 {{tooltip|Top 10|Grid position determined by Top 10 Shootout}} 6 230 Will Davison 23Red Racing Ford Falcon FG X 1:12.7161 +0.4574 {{tooltip|Top 10|Grid position determined by Top 10 Shootout}} 7 25 James Courtney Walkinshaw Andretti United Holden Commodore ZB 1:12.7911 +0.5324 {{tooltip|Top 10|Grid position determined by Top 10 Shootout}} 8 888 Craig Lowndes Triple Eight Race Engineering Holden Commodore ZB 1:12.8020 +0.5433 {{tooltip|Top 10|Grid position determined by Top 10 Shootout}} 
57331647 2 12 Fabian Coulthard DJR Team Penske Ford Falcon FG X  1:28.2515 1:28.0573 2 3 97 Shane van Gisbergen Triple Eight Race Engineering Holden Commodore ZB 1:28.1071 1:28.2729 1:28.1257 3 5 1 Jamie Whincup Triple Eight Race Engineering Holden Commodore ZB 1:28.1213 1:28.2626 1:28.1930 5 6 2 Scott Pye Walkinshaw Andretti United Holden Commodore ZB  1:28.4434 1:28.2179 6 7 55 Chaz Mostert Tickford Racing Ford Falcon FG X  1:28.5374 1:28.3929 7 
573418 Michele Aboro {{flag|UK}}  {{convert|54|kg|lb}} Super Bantamweight Boxing  1995—2001  Conjestina Achieng {{flag|Kenya}}   Middleweight Boxing  2000—2009  Nicola Adams {{flag|England}}  {{convert|51|kg|lb}} Flyweight Boxing  1995—  Meltem Akar {{flag|Turkey}}  {{convert|48|kg|lb}} Super bantamweight Boxing  2006—  Derya Aktop {{flag|Turkey}}  {{convert|46|kg|lb}} Light Flyweight Boxing  {{circa}} 2002—  
57354084 Armed Forces Radiobiology Research Institute Bethesda, Maryland TRIGA Mark F 1 MW 1962 - Brigham Young University Provo, Utah Atomics International L77 10 W 1967-1992 Colorado State University Fort Collins, CO AGN-201 #109 100&nbsp;mW 1957 - 1976 Dow Chemical Company Midland, Michigan TRIGA Mark I 300&nbsp;kW 1967 - General Electric Company Sunol, California Nuclear Test 100&nbsp;kW 1957 - 
5736413 1995–96 Cornell University ECAC  5 1 2 0 179 15 0 5.03   — — — — — — 1996–97 Cornell University ECAC  11 5 2 3 678 28 1 2.48   — — — — — — 1998–99 Philadelphia Phantoms AHL  47 25 16 4 2636 122 2 2.78 .909  1 0 0 27 0 0 1998–99 Philadelphia Flyers NHL  1 0 1 0 60 5 0 5.00 .828  — — — — — — 1999–2000 Philadelphia Phantoms AHL  24 14 10 0 1405 58 3 2.48 .914  — — — — — — 
57409060 Austin Film Critics Association December 18, 2012 Best Film Moonrise Kingdom {{Nom}}  Bodil Awards March 16, 2013 Best American Film Moonrise Kingdom {{Nom}}  Boston Society of Film Critics December 9, 2012 Best Use of Music in a Film Moonrise Kingdom {{won}}  Chicago Film Critics Association December 17, 2012 Best Original Score Alexandre Desplat {{nom}}  Chicago Film Critics Association December 17, 2012 Best Art Direction Moonrise Kingdom {{won}}  
57412027 1 Davin Flynn Donegal 2-11 17 Monaghan 1 Davin Flynn Donegal 1-13 16 Leitrim 2 Declan Coulter Donegal 0-13 13 Tyrone 3 Joe O'Brien Longford 0-12 12 Warwickshire 4 Eamon Collins Monaghan 1-07 10 Longford 
57445489 1 Jacksonville Duval 504,265 Figures shown are for Duval County excluding the cities of Jacksonville Beach, Atlantic Beach, Neptune Beach and Baldwin. 2 Miami Dade 334,859  3 Tampa Hillsborough 277,767  4 St. Petersburg Pinellas 216,232  5 Fort Lauderdale Broward 139,590  
5748000 1998–99 Prince Albert Raiders WHL  68 40 46 86 32  14 7 13 1999–00 Prince Albert Raiders WHL  56 34 35 69 42  6 4 1 2000–01 Wilkes-Barre/Scranton Penguins AHL  40 21 23 44 27  14 12 7 2000–01 Pittsburgh Penguins NHL  42 7 7 14 8  8 0 0 2001–02 Wilkes-Barre/Scranton Penguins AHL  8 4 4 8 10  — — — 
574966 1964 Windsor Lancers UBC Thunderbirds 94-70 University of Windsor 1970 UBC Thunderbirds McMaster Marauders 96-75 McMaster University 1975 Waterloo Warriors Manitoba Bisons 80-79 University of Waterloo 1980 Victoria Vikes Brandon Bobcats 73-65 University of Calgary 1987 Brandon Bobcats UBC Thunderbirds 74-66 Dalhousie University 
57499795 3 George Friend {{flagicon|England}} LB {{Birth date and age|df=yes|1987|10|17}} Doncaster Rovers 4 Daniel Ayala {{flagicon|Spain}} CB {{Birth date and age|df=yes|1990|11|07}} Norwich City 5 Ryan Shotton {{flagicon|England}} RB {{Birth date and age|df=yes|1988|10|30}} Birmingham City 20 Dael Fry {{flagicon|England}} CB {{Birth date and age|df=yes|1997|08|30}} Academy 24 Aden Flint {{flagicon|ENG}} CB {{Birth date and age|df=yes|1989|07|11}} Bristol City 
575044 1960–61 GM SDH-4501 New Look 35 57 100-156 Diesel File:AC Transit No. 100, GM SDH-4501 New Look (43999382681).jpg 1974 Flxible 53102 New Look 40 120 180-299 Diesel File:AC Transit No. 256, 1974 Flxble 53102 (4596839421).jpg 1975 Flxible 53102 New Look 40 36 8000-8035{{efn|Originally purchased under a contract with BART for shuttle service; after the contract was canceled, repainted in AC Transit livery.}} Diesel File:AC Transit 8015, Flxible New Look Scan 149 (12193431176).jpg 1978 M.A.N. SG 220 60 articulated 30 1600-1629 Diesel File:AC Transit 1629, MAN SG-220 (21150030226) (cropped).jpg 1982–84 Gillig Phantom 40 226 1300-1390; 1400-1483; 1485; 1500-1549{{efn|1500-1549 were originally purchased for BART contract service and repainted into AC Transit livery at the end of that contract.}} Diesel File:AC Transit No. 1545, 1984 Gillig Phantom 40TB966V92 ACT336 (12915229715).jpg 
57530323 200 m 22.02 (+1.1&nbsp;m/s) Kyra Jefferson University of Florida June 10, 2017 2017 NCAA Division I Outdoor Track and Field Championships Eugene, Oregon  100 m hurdles 12.39 (+1.7&nbsp;m/s) Brianna Rollins Clemson University June 8, 2013 2013 NCAA Division I Outdoor Track and Field Championships Eugene, Oregon  800 m 1:59.10 Raevyn Rogers University of Oregon April 15, 2017 Mt. SAC Relays Torrance, California  800 m 1:58.51 {{AthAbbr|PS}} Brigita Langerholc University of Southern California September 25, 2000 Athletics at the 2000 Summer Olympics Sydney, Australia  1500 m 3:59.90 Jenny Barringer University of Colorado Boulder June 7, 2009 Nike Prefontaine Classic Eugene, Oregon  
575610 St Mary Magdalene, Richmond Richmond Mary Magdalene  C13th Anglican Rebuilt c. 1500, mostly rebuilt 1903. Richmond Team Ministry St Mary the Virgin, Mortlake Mortlake Mary  1348 Anglican Mortlake Parish. Rebuilt 1543 St John the Divine, Richmond Richmond John the Evangelist  1831–1836 Anglican Richmond Team Ministry Holy Trinity, Twickenham Twickenham Trinity  1841 Anglican  St Matthias, Richmond Richmond Matthias  1857 Anglican Richmond Team Ministry 
57571436 Armadale Labor Bob Pearce Douglas Cable (Lib)  Ascot Labor Mal Bryce Richard Dalgleish (Lib)  Avon Labor Ken McIver Thomas Richards (Lib)
Max Trenorden (NCP)  Balcatta Labor Ron Bertram Vincenzo Allessandrino (Lib)  Canning Labor Tom Bateman John Nagle (Lib)  
57583869 1999 Kelvin Fletcher Andy Sugden Emmerdale 1999 David Neilson Roy Cropper Coronation Street 1999 Dean Sullivan Jimmy Corkhill Brookside 2000 John Savident Fred Elliott Coronation Street 2001 Clive Hornby Jack Sugden Emmerdale 
57595508 00 Landon Cassill StarCom Racing Chevrolet 1 Jamie McMurray Chip Ganassi Racing Chevrolet 2 Brad Keselowski Team Penske Ford 3 Austin Dillon Richard Childress Racing Chevrolet 4 Kevin Harvick Stewart-Haas Racing Ford 
57678376 00 Landon Cassill StarCom Racing Chevrolet 1 Jamie McMurray Chip Ganassi Racing Chevrolet 2 Brad Keselowski Team Penske Ford 3 Austin Dillon Richard Childress Racing Chevrolet 4 Kevin Harvick Stewart-Haas Racing Ford 
5769423 OFK Borac Bijelo Polje 3rd 2015 FK Berane Berane 2nd 1920 FK Brskovo Mojkovac 3rd 1932 FK Gusinje Gusinje 3rd 1933 FK Jedinstvo Bijelo Polje 2nd 1922 
57746707 F {{flagu|South Sudan}} Luol Deng Los Angeles Lakers C {{flagu|Benin}} Ian Mahinmi Washington Wizards F {{flagu|Nigeria}} Al-Farouq Aminu Portland Trail Blazers C {{flagu|DR Congo}} Bismack Biyombo Charlotte Hornets F {{flagu|Mali}} Cheick Diallo New Orleans Pelicans 
57767243 1 1 Jamie Whincup Triple Eight Race Engineering Holden Commodore ZB 1:50.1371  1 2 97 Shane van Gisbergen Triple Eight Race Engineering Holden Commodore ZB 1:50.2943 +0.1572 2 6 5 Mark Winterbottom Tickford Racing Ford Falcon FG X 1:50.9940 +0.8569 6 7 55 Chaz Mostert Tickford Racing Ford Falcon FG X 1:51.0414 +0.9043 7 8 6 Cameron Waters Tickford Racing Ford Falcon FG X 1:51.2175 +1.0804 8 
57807249 Gorillaz Demon Days 2004 LP Prince Po The Slickness 2004 LP Busdriver Fear of a Black Tangent 2005 LP Sparklehorse Dreamt for Light Years in the Belly of a Mountain 2006 LP The Black Keys Attack & Release 2008 LP 
57856417 1718 10 16 December 2018 &nbsp; Alta Badia GS 407&nbsp; Marcel Hirscher Thomas Fanara Alexis Pinturault  1722 14 22 December 2018 &nbsp; Madonna di Campiglio SL 482&nbsp; Daniel Yule Marco Schwarz Michael Matt  1723 15 28 December 2018 &nbsp; Bormio DH 483&nbsp; Dominik Paris Christof Innerhofer Beat Feuz  1724 16 29 December 2018 &nbsp; Bormio SG 208&nbsp; Dominik Paris Matthias Mayer Aleksander Aamodt Kilde  1726 18 6 January 2019 &nbsp; Zagreb SL 483&nbsp; Marcel Hirscher Alexis Pinturault Manuel Feller  
57895539 Remigiusz Olszewski 100 m 10.42 8 Karol Zalewski 200 m 21.14 7 Jakub Krzewina 400 m 46.89 6 Adam Kszczot 800 m 1:46.98 {{silver02}} Marcin Lewandowski 1500 m 3:52.88 {{gold01}} 
57896432 Jenna Prandini 200 m 22.45 {{silver02}} Courtney Okolo 400 m 52.09 5 Raevyn Rogers 800 m 2:00.20 {{gold01}} Rachel Schneider 1500 m 4:08.04 {{silver02}} Queen Harrison 100 m hurdles 12.99 {{bronze03}} 
57899091 Elaine Thompson 100 m 11.09 {{silver02}} Shericka Jackson 200 m 22.35 {{gold01}} Stephenie Ann McPherson 400 m 50.98 {{gold01}} Simoya Campbell 800 m 2:01.59 {{bronze03}} Simoya Campbell 1500 m DNS - 
57899412 Simon Magakwe 100 m 10.11 {{bronze03}} Luxolo Adams 200 m 20.45 {{silver02}} Derrick Mokaleng 400 m 45.48 {{silver02}} Reinhardt van Rensburg 800 m 1:49.14 6 Antonio Alkana 110 m hurdles 13.38 4 
57900621 Marvin Rene 100 m 10.35 6 Ludvy Vaillant 400 m 45.64 {{bronze03}} Gabriel Tual 800 m 1:47.44 4 Simon Denissel 1500 m 3:55.35 6 Pascal Martinot-Lagarde 110 m hurdles 13.22 {{gold01}} 
57919801 {{gold medal}} Ri Song-gum Weightlifting Women's 48 kg 20 August {{gold medal}} Om Yun-chol Weightlifting Men's 56 kg 20 August {{gold medal}} Pak Yong-mi Wrestling Women's freestyle 53 kg 20 August {{gold medal}} Jong Myong-suk Wrestling Women's freestyle 57 kg 20 August {{gold medal}} O Kang-chol Weightlifting Men's 69 kg 22 August 
58018918 {{gold medal}} Gabriel Kehr Athletics Men's hammer throw {{dts|Aug 8}} {{silver medal}} Esteban Bustos Modern pentathlon Men's individual {{dts|July 28}} {{silver medal}} Felipe Miranda Water skiing Men's jump {{dts|July 29}} {{silver medal}} Francisca Crovetto Shooting Women's skeet {{dts|Aug 2}} {{silver medal}} Humberto Mansilla Athletics Men's hammer throw {{dts|Aug 8}} 
58059547 1 Terran Campbell Pacific FC 9 2 Tristan Borges Forge FC 7 3 Oumar Diouck FC Edmonton 6 3 Dominique Malonga Cavalry FC 6 3 Easton Ongaro FC Edmonton 6 
58116493 1st 1991 Perth {{AUS}} 2 0 1 0 1 3 2nd 1994 Rome {{ITA}} 2 0 0 0 0 - 3d 1998 Perth {{AUS}} 6 1 0 2 3 3 4h 2000 Honolulu {{USA}} 9 1 3 2 6 4 5th 2001 Fukuoka {{JPN}} 6 3 0 2 6 1 
58169939 1971 Final Round {{fb|CRC}} 0–3 Port of Spain 1971 Final Round {{fb|HON}} 3–1 Port of Spain 1971 Final Round {{fb|MEX}} 0–1 Port of Spain 1971 Final Round {{fb|TRI}} 2–2 Port of Spain 1971 Final Round {{fb|HAI|1964}} 0–0 Port of Spain 
58170834 1963 First Round {{fb|MEX}} 2–1 Santa Ana 1963 First Round {{fb|CRC}} 0–1 Santa Ana 1963 First Round {{fb|JAM}} 2–1 Santa Ana 1963 Final Round {{fb|CRC}} 0–1 San Salvador 1963 Final Round {{fb|SLV}} 2–3 San Salvador 
58201328 2007 Group Stage {{fb|HAI}} 1-1 Miami 2007 Group Stage {{fb|CAN}} 2-1 Miami 2007 Group Stage {{fb|CRC}} 0-1 Miami 2007 Quarter-Finals {{fb|HON}} 2-1 Houston 2007 Semi-Finals {{fb|MEX}} 0-1 Chicago 
58249532 1 Tyson Farago {{flagicon|CAN}} GK {{birth date and age|1991|5|1}} WSA Winnipeg 3 Skylar Thomas {{flagicon|CAN}} CB {{birth date and age|1993|7|27}} Charleston Battery 4 Jordan Murrell {{flagicon|CAN}} CB / LB {{birth date and age|1993|5|2}} Reno 1868 25 Yohan Le Bourhis {{flagicon|CAN}} CB {{birth date and age|2000|3|9}} A.S. Blainville 7 Dylan Sacramento {{flagicon|CAN}} MF {{birth date and age|1995|3|4}} {{flagicon|CAN}} Vaughan Azzurri 
58260052 0 Garrett Smithley JD Motorsports Chevrolet 1 Elliott Sadler JR Motorsports Chevrolet 2 Matt Tifft Richard Childress Racing Chevrolet 3 Brendan Gaughan Richard Childress Racing Chevrolet 4 Ross Chastain JD Motorsports Chevrolet 
58300600 {{dts|format=dmy|2010|01|23}} 1 Hold Me Down You Me at Six 5 {{dts|format=dmy|2010|01|23}} 1 {{dts|format=dmy|2010|02|13}} 2 Unconditional: Love Songs Peter Andre 7 {{dts|format=dmy|2010|02|20}} 1 {{dts|format=dmy|2010|03|20}} 2 Plastic Beach Gorillaz 2 {{dts|format=dmy|2010|03|20}} 1 {{dts|format=dmy|2010|03|20}} 2 A Curious Thing Amy Macdonald 4 {{dts|format=dmy|2010|03|20}} 1 {{dts|format=dmy|2010|04|03}} 1 I Speak Because I Can Laura Marling 4 {{dts|format=dmy|2010|04|03}} 1 
58336471 01 Landon Cassill JD Motorsports Chevrolet 1 Elliott Sadler JR Motorsports Chevrolet 2 Matt Tifft Richard Childress Racing Chevrolet 4 Garrett Smithley JD Motorsports Chevrolet 5 Michael Annett JR Motorsports Chevrolet 
58408278 September 6, 2018 Duluth United States Infinite Energy Arena September 8, 2018 Chicago United States United Center September 10, 2018 Toronto Canada Scotiabank Arena September 12, 2018 Boston United States TD Garden September 14, 2018 New York City United States Madison Square Garden 
58429928 0 Garrett Smithley JD Motorsports Chevrolet 1 Elliott Sadler JR Motorsports Chevrolet 2 Matt Tifft Richard Childress Racing Chevrolet 4 Ross Chastain JD Motorsports Chevrolet 5 Michael Annett JR Motorsports Chevrolet 
5846141 1975–76 New England Whalers WHA &nbsp; 77 3 19 22 102 &nbsp; 17 2 9 1976–77 New England Whalers WHA &nbsp; 77 13 33 46 169 &nbsp; 5 2 2 1977–78 New England Whalers WHA &nbsp; 78 15 46 61 118 &nbsp; 14 0 5 1978–79 New England Whalers WHA &nbsp; 79 11 46 57 113 &nbsp; 10 0 4 1980–81 Minnesota North Stars NHL &nbsp; 50 6 31 37 94 &nbsp; 19 1 5 
58503004 1 Bart Hester Rep Cave Springs 2012 2020 2028 2 Jim Hendren Rep Gravette 2012 2020 2028 3 Cecile Bledsoe Rep Rogers 2008 2018 2020 4 Uvalde Lindsey Dem Fayetteville 2012 2018 2026 6 Gary Stubblefield Rep Branch 2012 2018 2028 
58530295 0 Garrett Smithley JD Motorsports Chevrolet 1 Elliott Sadler JR Motorsports Chevrolet 2 Matt Tifft Richard Childress Racing Chevrolet 4 Quin Houff JD Motorsports Chevrolet 5 Michael Annett JR Motorsports Chevrolet 
58554879 {{Gold medal}} Farzad Sepahvand Athletics Men's Discus Throw F43/44,F62/64 {{dts|October 9}} {{Gold medal}} Saman Pakbaz Athletics Men's Discus Throw F12 {{dts|October 12}} {{Gold medal}} Peyman Nasiri Bazanjani Athletics Men's 1500M T20 {{dts|October 12}} {{Gold medal}} Eshrat Kordestani Athletics Women's Shot Put F56/57 {{dts|October 12}} {{Gold medal}} Siamand Rahman Powerlifting Men's +107 Kg {{dts|October 12}} 
58595101 John Higgins 5–0 Soheil Vahedi Zhang Jiankang 3–5 Chris Wakelin Noppon Saengkham 5–1 Liam Highfield Yuan Sijun 5–0 Ben Mertens Jack Lisowski 5–1 Mark Joyce 
58599851 {{flagicon|ITA}} Genoa Racing March 87B Cosworth DFV 2 Gregor Foitek {{flagicon|ITA}} Pavesi Racing Ralt RT21 Cosworth DFV 3 Pierluigi Martini {{flagicon|ITA}} Pavesi Racing Ralt RT21 Cosworth DFV 4 Paolo Barilla {{flagicon|FRA}} Oreca Motorsport March 87B Cosworth DFV 5 Olivier Grouillard {{flagicon|FRA}} Oreca Motorsport March 87B Cosworth DFV 6 Yannick Dalmas 
58668560 1 4 Kevin Harvick Stewart-Haas Racing Ford 26.158 25.998 25.836 2 9 Chase Elliott Hendrick Motorsports Chevrolet 26.257 25.823 25.871 4 12 Ryan Blaney Team Penske Ford 26.317 26.011 25.924 5 88 Alex Bowman Hendrick Motorsports Chevrolet 26.335 25.979 25.948 6 18 Kyle Busch Joe Gibbs Racing Toyota 26.176 25.889 25.954 
586750 1977–78 Kingston Canadians OMJHL &nbsp; 8 2 2 4 11 &nbsp; 5 0 0 1978–79 Sault Ste. Marie Greyhounds OMJHL &nbsp; 68 17 72 89 103 &nbsp; — — — 1979–80 Sault Ste. Marie Greyhounds OMJHL &nbsp; 23 10 21 31 63 &nbsp; — — — 1979–80 Kitchener Rangers OMJHL &nbsp; 52 19 52 71 130 &nbsp; — — — 1980–81 Edmonton Oilers NHL &nbsp; 74 9 23 32 130 &nbsp; 9 4 3 
58750047 1993 Group Stage {{fb|MEX}} 0–9 Mexico City 1993 Group Stage {{fb|CAN}} 2–2 Mexico City 1993 Group Stage {{fb|CRC}} 1–3 Mexico City 2002 Group Stage {{fb|CRC}} 0–2 Miami 2002 Group Stage {{fb|TRI}} 1–0 Miami 
58756316 2008–09 Winnipeg South Blues MJHL  53 4 12 16 33  — — — 2009–10 Winnipeg South Blues MJHL  56 6 25 31 63  4 1 1 2010–11 Des Moines Buccaneers USHL  58 5 10 15 77  — — — 2011–12 Colorado College WCHA  26 0 3 3 14  — — — 2012–13 Colorado College WCHA  42 2 9 11 20  — — — 
58787895 19 182 Y Lliwedd East Top Y Lliwedd 30B Snowdon Gwynedd 893 15 2,930 49 115 {{gbm4ibx|SH624532}} N 37 178 Lliwedd Bach Y Lliwedd 30B Snowdon Gwynedd 818 16 2,684 52 115 {{gbm4ibx|SH627532}} N 87 147 Garnedd-goch Craig Cwm Silyn 30B Moel Hebog Gwynedd 700 25 2,297 82 115 {{gbm4ibx|SH511495}} N,sSim 90 104 Mynydd Drws-y-coed Trum y Ddysgl 30B Moel Hebog Gwynedd 695 57 2,280 187 115 {{gbm4ibx|SH548518}} Sim,Hew,N 116 61 Waun-oer Maesglase 30F Cadair Idris Gwynedd 670 120 2,198 394 124 {{gbm4ibx|SH785147}} Hu,Sim,Hew,N 
58814716 1963 First Round {{fb|SLV}} 1-6 San Salvador 1963 First Round {{fb|GUA}} 1-3 San Salvador 1963 First Round {{fb|HON}} 0-1 San Salvador 1963 First Round {{fb|PAN}} 0-5 San Salvador 1967 Final Round {{fb|MEX}} 0-4 Tegucigalpa 
5881472 1980 Sweden EJC &nbsp; 5 1 1 2 4 1981 Sweden WJC &nbsp; 5 1 1 2 2 1982 Sweden WJC &nbsp; 7 3 6 9 12 1982 Sweden WC &nbsp; 10 2 1 3 2 1983 Sweden WC &nbsp; 10 1 1 2 8 
588222 1988–89 East Kentwood High School HS-MI  28 52 37 89 60  — — — 1989–90 East Kentwood High School HS-MI  29 63 40 103 40  — — — 1990–91 Kalamazoo Jr. K-Wings NAHL  36 18 24 42 30  — — — 1994–95 Adirondack Red Wings AHL  — — — — —  3 0 0 1995–96 Adirondack Red Wings AHL  80 22 23 45 59  3 1 0 
5888507 1985 Westmont (CA) Puget Sound (WA) 4-2 Tacoma, Washington 1987 Berry (GA) Erskine (SC) 1-0 Due West, South Carolina 1989 Pacific Lutheran (WA) Berry (GA) 2-0 Due West, South Carolina 1990 Berry (GA) Pacific Lutheran (WA) 3-1 (2OT) Due West, South Carolina 1992 Lynn (FL) Pacific Lutheran (WA) 1-0 Tacoma, Washington 
58917651 1 Liam Coleman Fermoy 0-14 14 Courcey Rovers 2 Seán Hayes Mallow 2-07 13 Carrigaline 3 Cathal Casey Inniscarra 3-03 12 Ballinhassig 3 Brian Kelleher Carrigaline 0-12 12 Mallow 3 Chris O'Leary Valley Rovers 0-12 12 Cloyne 
5898324 April 17 Pittsburgh Force Away Won 68-0 Regular Season April 24 Dayton Diamonds Home Won 43-0 Regular Season May 8 Pittsburgh Force Home Won 58-0 Regular Season May 15 West Michigan Mayhem Home Won 36-31 Regular Season May 22 Cincinnati Sizzle Away Won 68-6 Regular Season 
59019510 1967 Final Round {{fb|HON}} 0-1 Tegucigalpa 1967 Final Round {{fb|HAI|1964}} 3-2 Tegucigalpa 1967 Final Round {{fb|MEX}} 0-4 Tegucigalpa 1967 Final Round {{fb|GUA}} 0-2 Tegucigalpa 1967 Final Round {{fb|NIC}} 3-1 Tegucigalpa 
59099109 4 B. Avant Edenfield Democratic Statesboro 9 Ford Spinks Democratic Tifton 11 Julian Webb Democratic Donalsonville 14 Jimmy Carter Democratic Plains 19 Roy Noble Democratic Vienna 
59107307 LB D.J. Alexander Philadelphia Eagles April 1, 2019 RB Alfred Blue Houston Texans April 1, 2019 RB Benny Cunningham Chicago Bears April 2, 2019 QB Nick Foles Philadelphia Eagles March 19, 2019 LB Najee Goode Indianapolis Colts May 1, 2019 
5916940 1989 NSWRL Season Brisbane Broncos 10 - - - - - 1990 NSWRL Season Brisbane Broncos 4 2 - - - 8 1991 NSWRL Season Brisbane Broncos 20 15 - - - 60 1992 NSWRL Season Brisbane Broncos 23 12 - - - 48 1993 NSWRL Season Brisbane Broncos 18 16 - - - 64 
59185524 1 Chris Seitz {{flagicon|USA}} GK 2019 {{birth date and age|1987|3|12}} Houston Dynamo 1 0 3 Chris Odoi-Atsem {{flagicon|USA}} RB 2017 {{Birth date and age|1995|05|28}} Maryland Terrapins 13 0 6 Marquinhos Pedroso {{flagicon|BRA}} LB 2019 {{Birth date and age|1993|10|04}} FC Dallas 4 0 15 Steve Birnbaum {{flagicon|USA}} CB 2014 {{Birth date and age|1991|01|23}} California Golden Bears 165 8 20 Jalen Robinson {{flagicon|USA}} CB 2014 {{Birth date and age|1994|05|08}} Wake Forest Demon Deacons 26 0 
59195974 12 Kareem Moses {{flagicon|TRI}} RB {{birth date and age|1990|2|11}} FF Jaro 55 Amer Didic {{flagicon|CAN}} CB {{birth date and age|1994|12|28}} San Antonio FC 7 Son Yong-chan {{flagicon|KOR}} CM {{birth date and age|1991|4|15}} Ozone 10 Philippe Lincourt-Joseph {{flagicon|CAN}} AM {{birth date and age|1994|11|1}} Al-Rustaq 14 James Marcelin {{flagicon|HAI}} DM / CB {{birth date and age|1986|6|13}} Miami United 
59235129 Coal Run 2 Left {{coord|41|08|26|N|78|40|59|W}} (elev. {{convert|1430|ft|m}}) Sandy Township, Clearfield County {{coord|41|07|52|N|78|38|48|W}} Union Township Laborde Branch 6 Left {{coord|41|07|05|N|78|43|41|W}} (elev. {{convert|1401|ft|m}}) Sandy Township, Clearfield County {{coord|41|03|35|N|78|42|21|W}} Brady Township, Clearfield County Reisinger Run 7 Left {{coord|41|07|06|N|78|45|13|W}} (elev. {{convert|1398|ft|m}}) DuBois, Pennsylvania {{coord|41|05|17|N|78|44|19|W}} Brady Township, Clearfield County Pentz Run 8 Left {{coord|41|07|21|N|78|45|47|W}} (elev. {{convert|1398|ft|m}}) DuBois {{coord|41|05|01|N|78|45|04|W}} Brady Township, Clearfield County Beaver Run 9 Right {{coord|41|07|30|N|78|45|45|W}} (elev. {{convert|1398|ft|m}}) DuBois {{coord|41|08|41|N|78|43|25|W}} Sandy Township, Clearfield County 
59255273 2000
(28th) Doug Sweetland Animator Toy Story 2 2001
(29th) Raman Hui Animator Shrek 2002
(30th) Sergio Pablos Supervising Animator: Dr. Delbert Doppler Treasure Planet 2003
(31st) Doug Sweetland Animator Finding Nemo 2003
(31st) Byron Howard Supervising Animator: Kenai-Bear Brother Bear 
59326745 Boston Society of Film Critics December 16, 2018 Best New Filmmaker {{sortname|Bo|Burnham|nolink=1}} {{won}}  Chicago Film Critics Association December 8, 2018 Best Original Screenplay {{sortname|Bo|Burnham|nolink=1}} {{nom}}  Detroit Film Critics Society December 3, 2018 Best Film Eighth Grade {{won}}  Detroit Film Critics Society December 3, 2018 Best Director {{sortname|Bo|Burnham|nolink=1}} {{nom}}  Detroit Film Critics Society December 3, 2018 Best Actress {{sortname|Elsie|Fisher|nolink=1}} {{nom}}  
5933004 1990–91 Newmarket Saints AHL  49 18 17 35 24  — — — 1990–91 Toronto Maple Leafs NHL  20 0 5 5 2  — — — 1991–92 Toronto Maple Leafs NHL  17 7 4 11 4  — — — 1992–93 Toronto Maple Leafs NHL  23 4 4 8 8  — — — 1993–94 Mighty Ducks of Anaheim NHL  84 19 18 37 61  — — — 
59351076 Arda Kardzhali Druzhba 15,000 Botev Galabovo Energitik 3,000 Chernomorets Balchik Gradski, Balchik 3,100 CSKA 1948 Sofia DIT 1,700 Dobrudzha Dobrich Druzhba 12,500 
59352607 Bryant & Sons Cup (preseason) Aug. 17 Harder Stadium Santa Barbara, CA 2  Aaron Olitsky Memorial Classic Aug. 30–Sep. 1 Patriots Point Soccer Field Charleston, SC 4  Adidas/IU Credit Union Classic Aug. 30–Sep. 1 Bill Armstrong Stadium Bloomington, IN 4  Fairfield Inn Invitational Aug. 30–Sep. 1 Sentara Park Harrisonburg, VA 4  Hampton Inn at Loyola Chicago Classic Aug. 30–Sep. 1 Loyola Soccer Park Chicago, IL 4  
59355558 2 Dhule Subhash Bhamre {{legend2|#FBB917|[[Bharatiya Janata Party|BJP]]|border=solid 1px #AAAAAA}} Kunal Rohidas Patil {{legend2|#00FFFF|[[Indian National Congress|INC]]|border=solid 1px #AAAAAA}} 3 Jalgaon Unmesh Patil {{legend2|#FBB917|[[Bharatiya Janata Party|BJP]]|border=solid 1px #AAAAAA}} Gulabrao Deokar {{legend2|#00B2B2|[[Nationalist Congress Party|NCP]]|border=solid 1px #AAAAAA}} 5 Buldhana Prataprao Ganpatrao Jadhav {{legend2|#FF6600|[[Shiv Sena|SS]]|border=solid 1px #AAAAAA}} Rajendra Shingane {{legend2|#00B2B2|[[Nationalist Congress Party|NCP]]|border=solid 1px #AAAAAA}} 7 Amravati Anandrao Adsul {{legend2|#FF6600|[[Shiv Sena|SS]]|border=solid 1px #AAAAAA}} Navneet Kaur Rana {{legend2|#FFFF00|[[Yuva Swabhiman Party|YSP]]|border=solid 1px #AAAAAA}} 10 Nagpur Nitin Jairam Gadkari {{legend2|#FBB917|[[Bharatiya Janata Party|BJP]]|border=solid 1px #AAAAAA}} Nana Patole {{legend2|#00FFFF|[[Indian National Congress|INC]]|border=solid 1px #AAAAAA}} 
59386510 1 Kurt Busch Chip Ganassi Racing Chevrolet 2 Brad Keselowski Team Penske Ford 3 Austin Dillon Richard Childress Racing Chevrolet 4 Kevin Harvick Stewart-Haas Racing Ford 9 Chase Elliott Hendrick Motorsports Chevrolet 
59448761 18&nbsp;February Thank U, Next Ariana Grande  25&nbsp;February Thank U, Next Ariana Grande  4&nbsp;March The Great Expanse Hilltop Hoods  11&nbsp;March Thank U, Next Ariana Grande  18&nbsp;March Thank U, Next Ariana Grande  
5946366 1992 Fujita Industries Football League 0 0 ||||colspan="2"|-||0||0 1993 Fujita Industries Football League 0 0 ||||||||0||0 1994 Bellmare Hiratsuka J1 League 41 0 5 0 1 0 47 0 1995 Bellmare Hiratsuka J1 League 47 0 2 0 - - 49 0 1996 Bellmare Hiratsuka J1 League 29 0 3 0 15 0 47 0 
59500862 3 Haraz Ghanbari Republican Perrysburg 2019 (Appt.) 2028 10 Terrence Upchurch Democratic Cleveland 2018 2026 12 Juanita Brent Democratic Cleveland 2018 2026 13 Michael Skindell Democratic Lakewood 2018 2026 14 Bride Rose Sweeney Democratic Cleveland 2018 (Appt.) 2026 
59566894 2005 The Squid and the Whale William Baldwin, Jeff Daniels, Jesse Eisenberg, Owen Kline, Laura Linney, Anna Paquin  2005 Brokeback Mountain Linda Cardellini, Anna Faris, Jake Gyllenhaal, Anne Hathaway, Heath Ledger, Randy Quaid, Michelle Williams  2005 Good Night, and Good Luck Patricia Clarkson, George Clooney, Jeff Daniels, Robert Downey Jr., Frank Langella, David Strathairn  2006 Little Miss Sunshine Alan Arkin, Abigail Breslin, Steve Carell, Toni Collette, Paul Dano, Greg Kinnear  2006 Shortbus Raphael Barker, Lindsay Beamish, Jay Brannan, Justin Vivian Bond, Paul Dawson, PJ DeBoy, Sook-Yin Lee, Peter Stickles  
59572522 35 Aleksandr Mokin {{flagicon|KAZ}} GK {{birth date and age|df=yes|1981|6|19}} Irtysh Pavlodar 2019 53 0 2 Antonio Rukavina {{flagicon|SRB}} DF {{birth date and age|df=yes|1984|1|26}} Villarreal 2018 45 0 15 Abzal Beisebekov {{flagicon|KAZ}} DF {{birth date and age|df=yes|1992|11|30}} Vostok 2012 269 6 27 Yuriy Logvinenko {{flagicon|KAZ}} DF {{birth date and age|df=yes|1988|7|22}} Aktobe 2016 118 12 44 Yevgeny Postnikov {{flagicon|KAZ}} DF {{birth date and age|df=yes|1986|4|16}} Shakhtyor Soligorsk 2014 192 5 
59573831 15 February Thank U, Next Ariana Grande  1 March Thank U, Next Ariana Grande  24 May Divinely Uninspired to a Hellish Extent Lewis Capaldi  31 May Divinely Uninspired to a Hellish Extent Lewis Capaldi  7 June Divinely Uninspired to a Hellish Extent Lewis Capaldi  
59623299 1 Lumla ST Jambey Tashi Bharatiya Janata Party 2 Tawang ST Tsering Tashi Bharatiya Janata Party 3 Mukto ST Pema Khandu Bharatiya Janata Party 4 Dirang ST Phurpa Tsering Bharatiya Janata Party 6 Thrizino-Buragaon ST Kumsi Sidisow Bharatiya Janata Party 
59668170 2 88 Alex Bowman Hendrick Motorsports Chevrolet 46.408 46.355 3 48 Jimmie Johnson Hendrick Motorsports Chevrolet 46.649 46.438 4 9 Chase Elliott Hendrick Motorsports Chevrolet 46.469 46.444 6 22 Joey Logano Team Penske Ford 46.782 46.766 8 14 Clint Bowyer Stewart-Haas Racing Ford 46.857 46.804 
59668879  1958 Jean Royer DVD  1962 Jean Royer DVD  1967 Jean Royer DVD  1968 Jean Royer DVD  1973 Jean Royer DVD 
5970339 Buenos Aires File:Samanta María Celeste Acerenza.png {{Sortname|Samanta María Celeste|'''Acerenza'''|Samanta María Celeste Acerenza}}  Unión PRO 2015 2019 Buenos Aires File:Gilberto Oscar Alegre.png {{Sortname|Gilberto Oscar|'''Alegre'''|Gilberto Oscar Alegre}}  Federal Unidos por una Nueva Argentina 2013 2017 Buenos Aires File:Ricardo Luis Alfonsín.png {{Sortname|Ricardo Luis|'''Alfonsín'''|Ricardo Alfonsín}}  Unión Cívica Radical 2013 2017 Buenos Aires File:Horacio Fernando Alonso.png {{Sortname|Horacio Fernando|'''Alonso'''|Horacio Fernando Alonso}}  Federal Unidos por una Nueva Argentina 2016{{efn|Since 1 March 2016. Replaced [[José Adrián Pérez]] after he resigned on 10 December 2015.}} 2017 Buenos Aires File:María Cristina Alvárez Rodríguez.png {{Sortname|María Cristina|'''Álvarez Rodríguez'''|Cristina Álvarez Rodríguez}}  Frente para la Victoria-PJ 2015 2019 
59755563 Alessandria 1-3 Lazio Catanzaro 2-0 Messina Vicenza 2-0 Padova Livorno 2-0 (aet) Roma Lecco 0-1 Varese 
59755972 Bari 1-4 (aet) Foggia Lecco 2-0 Padova Livorno 3-4 Cagliari Modena 2-1 Vicenza Parma 1-3 Sampdoria 
59758224 18&nbsp;February Thank U, Next Ariana Grande  4&nbsp;March The Great Expanse Hilltop Hoods  11&nbsp;March The Great Expanse Hilltop Hoods  25&nbsp;March The Great Expanse Hilltop Hoods  1&nbsp;April A Place We Knew Dean Lewis  
59816450 2017 Istanbul Marathon Istanbul, Turkey 1st Marathon 2:22:36 2018 Paris Marathon Paris, France 2nd Marathon 2:22:59 2018 Istanbul Marathon Istanbul, Turkey 1st Marathon 2:18:35 CR 2019 Standard Chartered Dubai Marathon Dubai, United Arab Emirates 1st Marathon 2:17:08 2017 Adana Half Marathon Adana, Turkey 1st Half Marathon 1:09:06 
59825500 Pag-ibig Na Tunay 2010 Pilyang Kerubin GMA Network Dahil Sayo Natutong Magmahal 2010 The Last Prince GMA Network Tangi Kong Hiling 2011 Dwarfina GMA Network Bakit Ba Ganyan 2012 Just One Summer GMA Films Nothing's Gonna Stop Us Now 2012 Tween Academy: Class of 2012 GMA Films 
59829279 Treviso 3-2 Marzotto Valdagno Fiumana 4-0 Ponziana Parma 1-0 (aet) Cremonese Monza 2-1 Como Entella 4-0 Carrarese 
59859746 00 Landon Cassill StarCom Racing Chevrolet 1 Kurt Busch Chip Ganassi Racing Chevrolet 2 Brad Keselowski Team Penske Ford 3 Austin Dillon Richard Childress Racing Chevrolet 4 Kevin Harvick Stewart-Haas Racing Ford 
5986196 1 46 Valentino Rossi Camel Yamaha Team Yamaha 30 41:59.248 10 25 2 33 Marco Melandri Fortuna Honda Honda 30 +0.145 6 20 3 69 Nicky Hayden Repsol Honda Team Honda 30 +0.266 3 16 4 26 Dani Pedrosa Repsol Honda Team Honda 30 +0.307 1 13 5 65 Loris Capirossi Ducati Marlboro Team Ducati 30 +8.764 5 11 
59918042 00 Landon Cassill StarCom Racing Chevrolet 1 Kurt Busch Chip Ganassi Racing Chevrolet 2 Brad Keselowski Team Penske Ford 3 Austin Dillon Richard Childress Racing Chevrolet 4 Kevin Harvick Stewart-Haas Racing Ford 
59918502 2000 Devullu "Sirulanosagu Sukhashanthulu" Vandemataram Srinivas Swarnalatha 2001 Narasimha Naidu "Abba Abba Andham" Mani Sharma Shankar Mahadevan 2001 Narasimha Naidu "Ko Ko Komali" Mani Sharma Udit Narayan 2001 Devi Putrudu "Tella Tellani Cheera" Mani Sharma Udit Narayan 2001 Prematho Raa "Punnamila" Mani Sharma Udit Narayan 
59921356 1 11 {{sortname|Geoff|Bodine}} Brett Bodine Racing Ford 2 48 {{sortname|Jimmie|Johnson}} Hendrick Motorsports Chevrolet 3 97 {{sortname|Kurt|Busch}} Roush Racing Ford 4 21 {{sortname|Ricky|Rudd}} Wood Brothers Racing Ford 5 17 {{sortname|Matt|Kenseth}} Roush Racing Ford 
59940680 2010 Chepe Fortuna Javier Jattin, Taliana Vargas, Pedro Palacio, Kristina Lilley and Susana Rojas  2011 La Traicionera Marianela González, Juan Manuel Mendoza, Víctor Mallarino, Vicky Hernández, Ricardo Vélez, Kristina Lilley and Ana Lucía Domínguez  2011 Tres Milagros Angélica Blandon, Johanna Bahamón, Farina and Andrés Sandoval  2012 Pobres rico Paola Rey, Juan Pablo Raba, Antonio Sanint, Alina Lozano and Alejandra Azcárate  2013 Chica vampiro Greeicy Rendón, Santiago Talledo, Eduardo Pérez and Lorena García  
59946227 1 77 Dave Blaney Jasper Motorsports Ford 23.669 154.683 3 6 Mark Martin Roush Racing Ford 23.708 154.429 4 40 Sterling Marlin Chip Ganassi Racing Dodge 23.709 154.422 5 9 Bill Elliott Evernham Motorsports Dodge 23.710 154.416 6 32 Ricky Craven PPI Motorsports Pontiac 23.716 154.377 
5994663 1976–77 Roseau High School HS-MN &nbsp;      &nbsp;    1977–78 Roseau High School HS-MN &nbsp;    79  &nbsp;    1982–83 Hershey Bears AHL &nbsp; 1 0 1 1 0 &nbsp; 3 3 0 1983–84 Hershey Bears AHL &nbsp; 31 16 12 28 11 &nbsp; — — — 1983–84 Washington Capitals NHL &nbsp; 45 12 17 29 16 &nbsp; 8 2 3 
59952053 2015 USA Junior Championships 3rd (semi&nbsp;2) 110&nbsp;m hurdles 13.75 +1.7 Eugene, Oregon {{AthAbbr|Q}}{{refn|group=note|Did not run in the final.}}, {{AthAbbr|PB}} 2015 USA Junior Championships 3rd Long jump 7.54 {{AthAbbr|w}} +2.8 Eugene, Oregon Wind-assisted 2016 USA Junior Championships 3rd 110&nbsp;m hurdles 13.37 +1.6 Clovis, California {{AthAbbr|PB}} 2016 USA Junior Championships 6th Long jump 7.59 +1.9 Clovis, California {{AthAbbr|SB}} 2017 NCAA Division&nbsp;I Indoor Championships 11th Long jump 7.57 n/a College Station, Texas  
5997484   1713 Edward Cressett  Thomas Jones    February 1715 Thomas Jones  Corbet Kynaston    1768 Noel Hill  Robert Clive Tory   1774 Charlton Leighton Tory Robert Clive Tory   1780 William Pulteney Whig Sir Charlton Leighton Tory 
59975904 2000 Christian Schellewald (production designer) The Road to El Dorado 2000 William Cone, Jim Pearson (production designers) Toy Story 2 2001 Guillaume Aretos (production designer) Shrek 2001 David Goetz (art director) Atlantis: The Lost Empire 2001 Steve Pilcher (production designer: animation) Osmosis Jones 
59985489 0 Garrett Smithley JD Motorsports Chevrolet 01 Stephen Leicht JD Motorsports Chevrolet 1 Michael Annett JR Motorsports Chevrolet 2 Tyler Reddick Richard Childress Racing Chevrolet 7 Justin Allgaier JR Motorsports Chevrolet 
59990632 00 Landon Cassill StarCom Racing Chevrolet 1 Kurt Busch Chip Ganassi Racing Chevrolet 2 Brad Keselowski Team Penske Ford 3 Austin Dillon Richard Childress Racing Chevrolet 4 Kevin Harvick Stewart-Haas Racing Ford 
5999228 1982–83 Matignon High School HS-MA  23 17 21 38   — — — 1983–84 Matignon High School HS-MA  21 27 22 49 49  — — — 1985–86 Washington Capitals NHL  11 1 1 2 2  6 0 1 1986–87 Binghamton Whalers AHL  54 18 21 39 39  13 3 1 1986–87 Washington Capitals NHL  15 1 0 1 6  — — — 
59994693 1998 Geneseo 63–61 Oswego Utica, NY 2002 Brockport 92–78 Oswego Utica, NY 2004 Potsdam 84–76 Brockport Utica, NY 2005 Potsdam 74–61 Oswego Utica, NY 2006 Plattsburgh 94–73 SUNYIT Utica, NY 
59995592 1991 Blackburn 68–48 Westminster 1992 Blackburn 73–62 MacMurray 1993 MacMurray 81–76 Westminster 1994 Fontbonne 94–80 Blackburn 1995 Westminster 82–72 MacMurray 
59998788 04 Cory Roper Roper Racing Ford 4 Todd Gilliland Kyle Busch Motorsports Toyota 6 Norm Benning Norm Benning Racing Chevrolet 7 Korbin Forrister All Out Motorsports Toyota 8 Joe Nemechek NEMCO Motorsports Chevrolet 
59999043 0 Garrett Smithley JD Motorsports Chevrolet 01 Stephen Leicht JD Motorsports Chevrolet 1 Michael Annett JR Motorsports Chevrolet 2 Tyler Reddick Richard Childress Racing Chevrolet 4 Ross Chastain JD Motorsports Chevrolet 
60031279 2005 Keystone 79–70 Villa Julie Philadelphia, PA 2006 Keystone 84–77 Villa Julie La Plume, PA 2008 Baptist Bible 84–73 Cazenovia Cazenovia, NY 2009 SUNY Poly 78–49 Wells Utica, NY 2010 SUNY Poly 99–71 Wells Utica, NY 
60058393 00 Landon Cassill StarCom Racing Chevrolet 1 Kurt Busch Chip Ganassi Racing Chevrolet 2 Brad Keselowski Team Penske Ford 3 Austin Dillon Richard Childress Racing Chevrolet 4 Kevin Harvick Stewart-Haas Racing Ford 
60061615 1 Stefan Parsons Beaver Motorsports Chevrolet 04 Cory Roper Roper Racing Ford 4 Todd Gilliland Kyle Busch Motorsports Toyota 6 Norm Benning Norm Benning Racing Chevrolet 7 Korbin Forrister All Out Motorsports Toyota 
60072240 Penn State–Behrend 23–4 (14–4) Allegheny Mountain  Nebraska Wesleyan 26–1 (15–1) American Rivers Texas–Dallas 24–4 (12–3) American Southwest  Christopher Newport 25–3 (12–2) Capital Athletic Swarthmore 24–3 (15–3) Centennial  Baruch 22–5 (13–2) CUNYAC North Central (IL) 22–5 (12–4) CCIW  Rosemont 15–12 (8–4) Colonial States Nichols 25–2 (15–1) Commonwealth Coast  Alfred 23–4 (14–2) Empire 8 
60083750 0 Garrett Smithley JD Motorsports Chevrolet 01 Stephen Leicht JD Motorsports Chevrolet 1 Michael Annett JR Motorsports Chevrolet 2 Tyler Reddick Richard Childress Racing Chevrolet 4 Ross Chastain JD Motorsports Chevrolet 
60084910 1985 Ohio Wesleyan 65–59 Allegheny Delaware, OH 1986 Ohio Wesleyan 69–64 Kenyon Meadville, PA 1987 Allegheny 96–94 Ohio Wesleyan Delaware, OH 1988 Ohio Wesleyan 91–77 Allegheny Wooster, OH 1989 Allegheny 56–54 Wooster Gambier, OH 
60115801 1970 Hunter 70–54 Queens 1974 Lehman 60–58 Medgar Evers 1990 Hunter 103–80 Medgar Evers 1991 Medgar Evers 101–92 Hunter 1993 Hunter 104–73 Medgar Evers 
60115912 2004 St. John Fisher 62–59 Utica 2005 St. John Fisher 92–51 RIT 2006 St. John Fisher 74–61 Utica 2007 St. John Fisher 78–73 (OT) Utica 2008 Nazareth 64–63 St. John Fisher 
60120558 00 Landon Cassill StarCom Racing Chevrolet 1 Kurt Busch Chip Ganassi Racing Chevrolet 2 Brad Keselowski Team Penske Ford 3 Austin Dillon Richard Childress Racing Chevrolet 4 Kevin Harvick Stewart-Haas Racing Ford 
60125478 1996 Albertus Magnus 103–81 Emerson 1997 Emerson 68–66 Albertus Magnus 1998 Emerson 79–59 Rivier 1999 Endicott 83–70 Emerson 2000 Western New England 84–74 Emerson 
60127442 0 Garrett Smithley JD Motorsports Chevrolet 01 Stephen Leicht JD Motorsports Chevrolet 1 Michael Annett JR Motorsports Chevrolet 2 Tyler Reddick Richard Childress Racing Chevrolet 4 Ross Chastain JD Motorsports Chevrolet 
60149650 2004 Old Westbury 68–66 Mount Saint Mary Old Westbury, NY 2005 Mount Saint Mary 87–79 Farmingdale State East Farmingdale, NY 2006 Farmingdale State 87–79 Manhattanville East Farmingdale, NY 2007 Manhattanville 87—68 Old Westbury Purchase, NY 2010 Purchase 92–79 Old Westbury Old Westbury, NY 
60168304 2003 Grove City 60–59 Thiel Greenville, PA 2007 Grove City 60–58 Washington & Jefferson Washington, PA 2009 Thomas More 91–65 Bethany Crestview Hills, KY 2011 Bethany 74–67 Thiel Greenville, PA 2013 Saint Vincent 81–67 Thomas More Latrobe, PA 
60168537 2004 Lasell 88–74 Castleton State Newton, MA 2005 Elms 70–66 Lasell Newton, MA 2007 Elms 81–69 Husson Bangor, ME 2008 Elms 72–65 Lesley Chicopee, MA 2009 Husson 73–60 Thomas Waterville, ME 
60169100 1 Travis Kvapil Beaver Motorsports Chevrolet 04 Cory Roper Roper Racing Ford 4 Todd Gilliland Kyle Busch Motorsports Toyota 6 Norm Benning Norm Benning Racing Chevrolet 7 Korbin Forrister All Out Motorsports Toyota 
60178953 00 Landon Cassill StarCom Racing Chevrolet 1 Kurt Busch Chip Ganassi Racing Chevrolet 2 Brad Keselowski Team Penske Ford 3 Austin Dillon Richard Childress Racing Chevrolet 4 Kevin Harvick Stewart-Haas Racing Ford 
60186069 2003 Williams 74–70 Amherst Amherst, MA 2004 Williams 79–67 Amherst Williamstown, MA 2005 Amherst 65–57 Bates Amherst, MA 2006 Amherst 94–86 (OT) Tufts Amherst, MA 2007 Williams 70–69 Amherst Amherst, MA 
60186212 2009 Elms 105–76 Becker Chicopee, MA 2010 Elms 79–68 Becker Leicester, MA 2011 Elms 79–65 Becker Leicester, MA 2012 Becker 66–45 Elms Leicester, MA 2013 Elms 91–78 Regis Chicopee, MA 
60193667 0 Garrett Smithley JD Motorsports Chevrolet 01 Stephen Leicht JD Motorsports Chevrolet 1 Michael Annett JR Motorsports Chevrolet 2 Tyler Reddick Richard Childress Racing Chevrolet 4 Ross Chastain JD Motorsports Chevrolet 
60193753 1992 Mara Clara Susan Davis ABS-CBN 1999 Saan Ka Man Naroroon Gloria ABS-CBN 1999 Tabing Ilog Esperanza "Esper" Magtibay ABS-CBN 2001 Sa Dulo Ng Walang Hanggan Christina Tiongson ABS-CBN 2004 Krystala Aleta ABS-CBN 
60209176 00 Landon Cassill StarCom Racing Chevrolet 1 Kurt Busch Chip Ganassi Racing Chevrolet 2 Brad Keselowski Team Penske Ford 3 Austin Dillon Richard Childress Racing Chevrolet 4 Kevin Harvick Stewart-Haas Racing Ford 
60211255 2008 Outstanding Lead Actor in a Drama Series Mad Men {{nom}} 2009 Outstanding Guest Actor in a Comedy Series 30 Rock {{nom}} 2009 Outstanding Lead Actor in a Drama Series Mad Men {{nom}} 2010 Outstanding Guest Actor in a Comedy Series 30 Rock {{nom}} 2010 Outstanding Lead Actor in a Drama Series Mad Men {{nom}} 
60246058 2004 Hamilton 104–93 RPI Clinton, NY 2005 Union 88–84 Hamilton Geneva, NY 2006 Hamilton 107–72 Union Clinton, NY 2007 St. Lawrence 65–64 Hamilton Clinton, NY 2008 Clarkson 58–53 Hamilton Canton, NY 
60251337 Andhra Pradesh 1 Araku (ST) Goddeti Madhavi YSR Congress Party 5,62,190 Kishore Chandra Deo Telugu Desam Party 3,38,101 2,24,089 Andhra Pradesh 3 Vizianagaram GEN Bellani Chandrasekhar YSR Congress Party 5,78,418 Pusapati Ashok Gajapathi Raju Telugu Desam Party 5,30,382 48,036 Andhra Pradesh 9 Narasapuram GEN Kanumuru Raghu Rama Krishna Raju YSR Congress Party 4,47,594 Vetukuri Venkata Siva Rama Raju Telugu Desam Party 4,15,685 31,909 Andhra Pradesh 10 Eluru GEN Kotagiri Sridhar YSR Congress Party 6,76,809 Maganti Venkateswara Rao Telugu Desam Party 5,10,884 1,65,925 Andhra Pradesh 11 Machilipatnam GEN Balashowry Vallabhaneni YSR Congress Party 5,71,436 Konakalla Narayana Rao Telugu Desam Party 5,11,295 60,141 
60257133 0 Garrett Smithley JD Motorsports Chevrolet 01 Stephen Leicht JD Motorsports Chevrolet 1 Michael Annett JR Motorsports Chevrolet 2 Tyler Reddick Richard Childress Racing Chevrolet 4 Ross Chastain JD Motorsports Chevrolet 
6030236 1993–94 Toronto Maple Leafs NHL  — — — — —  2 0 0 1994–95 Toronto Maple Leafs NHL  8 0 1 1 4  — — — 1995–96 Toronto Maple Leafs NHL  46 6 6 12 47  — — — 1995–96 New York Islanders NHL  16 1 4 5 33  — — — 1996–97 Toronto Maple Leafs NHL  64 11 6 17 47  — — — 
60322320 1 Kurt Busch Chip Ganassi Racing Chevrolet 2 Brad Keselowski Team Penske Ford 3 Austin Dillon Richard Childress Racing Chevrolet 4 Kevin Harvick Stewart-Haas Racing Ford 9 Chase Elliott Hendrick Motorsports Chevrolet 
60338279 1 Conor McGovern Meath 0-18 18 Down 2 Darragh Melville Kildare 4-04 16 Meath 3 A. J. Redmond Wexford 1-11 14 Kilkenny 4 Cathal O'Neill Limerick 1-10 13 Tipperary 4 Shane Williams Westmeath 1-10 13 Kildare 
60346645 3 Gideon Baah {{flagicon|GHA}} DF {{birth date and age|df=yes|1991|10|1}} FC Gomel 4 Robert Ivanov {{flagicon|FIN}} DF {{birth date and age|df=yes|1994|9|19}} FC Viikingit 5 Henri Aalto {{flagicon|FIN}} DF {{birth date and age|df=yes|1989|4|20}} VfB Oldenburg 16 Konsta Rasimus {{flagicon|FIN}} DF {{birth date and age|df=yes|1990|12|15}} PK-35 Vantaa 23 Mikko Sumusalo {{flagicon|FIN}} DF {{birth date and age|df=yes|1990|3|12}} HJK 
60382292 0 Garrett Smithley JD Motorsports Chevrolet 01 Stephen Leicht JD Motorsports Chevrolet 1 Michael Annett JR Motorsports Chevrolet 2 Tyler Reddick Richard Childress Racing Chevrolet 4 Ross Chastain JD Motorsports Chevrolet 
60384087 Copenhagen Municipality Frank Jensen    Favrskov Municipality Nils Borring    Jammerbugt Municipality Mogens Gade    Nyborg Municipality Kenneth Muhs    Odder Municipality Uffe Jensen    
60386185 Crapaud 1st Queens Crapaud-Hazel Grove Kellys Cross-Cumberland Borden-Kinkora Kellys Cross 1st Queens Crapaud-Hazel Grove Kellys Cross-Cumberland Borden-Kinkora New Haven 2nd Queens Crapaud-Hazel Grove Kellys Cross-Cumberland New Haven-Rocky Point Cumberland 2nd Queens North River-Rice Point Kellys Cross-Cumberland New Haven-Rocky Point Rocky Point 2nd Queens North River-Rice Point Kellys Cross-Cumberland New Haven-Rocky Point 
60422785 1 Kurt Busch Chip Ganassi Racing Chevrolet 2 Brad Keselowski Team Penske Ford 3 Austin Dillon Richard Childress Racing Chevrolet 4 Kevin Harvick Stewart-Haas Racing Ford 9 Chase Elliott Hendrick Motorsports Chevrolet 
60424263 6 Aaron Clausen Rep Douglas Converse 7 Sue Wilson Rep Cheyenne Laramie 8 Bob Nicholas Rep Cheyenne Laramie 9 Landon Brown Rep Cheyenne Laramie 11 Jared Olsen Rep Cheyenne Laramie 
60438887 0 Garrett Smithley JD Motorsports Chevrolet 01 Stephen Leicht JD Motorsports Chevrolet 1 Michael Annett JR Motorsports Chevrolet 2 Tyler Reddick Richard Childress Racing Chevrolet 4 Ross Chastain JD Motorsports Chevrolet 
60483587 {{sortname|Mario|Hezonja}} July 3 Portland Trail Blazers New York Knicks  {{sortname|Anthony|Tolliver}} July 3 Portland Trail Blazers Minnesota Timberwolves  {{sortname|Al-Farouq|Aminu}} July 6 Orlando Magic Portland Trail Blazers  {{sortname|Quinn|Cook}} July 6 Los Angeles Lakers Golden State Warriors  {{sortname|DeMarcus|Cousins}} July 6 Los Angeles Lakers Golden State Warriors  
60496769 4 7 Andre Heimgartner Kelly Racing Nissan Altima L33 1:30.1429 +0.9137 4 6 15 Rick Kelly Kelly Racing Nissan Altima L33 1:30.3020 +1.0728 6 8 200 Scott Pye Walkinshaw Andretti United Holden Commodore ZB 1:30.4899 +1.2607 8 9 97 Shane van Gisbergen Triple Eight Race Engineering Holden Commodore ZB 1:30.6059 +1.3768 9 13 99 Anton de Pasquale Erebus Motorsport Holden Commodore ZB 1:30.7866 +1.5574 13 
60497504 0 Garrett Smithley JD Motorsports Chevrolet 01 Stephen Leicht JD Motorsports Chevrolet 1 Michael Annett JR Motorsports Chevrolet 2 Tyler Reddick Richard Childress Racing Chevrolet 4 Landon Cassill JD Motorsports Chevrolet 
60507687 2001 Quarter-Final {{fb|URU}} 1-2 Armenia 2004 Group Stage {{fb|PAR}} 0-1 Arequipa 2004 Group Stage {{fb|BRA}} 1-4 Arequipa 2004 Group Stage {{fb|CHL}} 2-1 Tacna 2004 Quarter-Final {{fb|COL}} 0-2 Trujillo 
60512689 Truthful Tulliver January 7, 1917 William S. Hart  The Little Yank January 14, 1917 George Siegmann  The Iced Bullet January 21, 1917 Reginald Barker  Nina, the Flower Girl January 21, 1917 Lloyd Ingraham  Chicken Casey January 28, 1917 Raymond B. West  
60522399 1 Kurt Busch Chip Ganassi Racing Chevrolet 2 Brad Keselowski Team Penske Ford 3 Austin Dillon Richard Childress Racing Chevrolet 4 Kevin Harvick Stewart-Haas Racing Ford 9 Chase Elliott Hendrick Motorsports Chevrolet 
60552459 Banco di Sardegna Sassari Sassari PalaSerradimigni {{Nts|5,000}} Carpegna Prosciutto Basket Pesaro Pesaro Adriatic Arena {{Nts|10,323}} De' Longhi Treviso Treviso PalaVerde {{Nts|5,134}} Dolomiti Energia Trento Trento BLM Group Arena {{Nts|4,360}} Fortitudo Pompea Bologna Bologna PalaDozza {{Nts|5,570}} 
60567 1st Federal Convention 12 September 1949 Bonn 2 Theodor Heuss
(FDP, CDU, CSU) 416 (51.7%) Kurt Schumacher
(SPD) 312 (38.8%) 2nd Federal Convention 17 July 1954 West Berlin 1 Theodor Heuss
(FDP, CDU, CSU, SPD) 871 (85.6%) Alfred Weber
(KPD) 12 (1.2%) 3rd Federal Convention 1 July 1959 West Berlin 2 Heinrich Lübke
(CDU, CSU) 526 (50.7%) Carlo Schmid
(SPD) 386 (37.2%) 4th Federal Convention 1 July 1964 West Berlin 1 Heinrich Lübke
(CDU, CSU, SPD) 710 (68.1%) Ewald Bucher
(FDP) 123 (11.8%) 5th Federal Convention 5 March 1969 West Berlin 3 Gustav Heinemann
(SPD, FDP) 512 (49.4%) Gerhard Schröder
(CDU, CSU, NPD) 506 (48.8%) 
60573887 1971 THX 1138 WorldFest-Houston Grand Remi Award for Best of Show - Feature Film {{won}} 1979 Apocalypse Now FIPRESCI Prize {{won}} 1979 Apocalypse Now David di Donatello for Best Foreign Film {{won}} 1979 Apocalypse Now London Film Critics Circle Award for Best Film {{won}} 1979 Apocalypse Now Grammy Award for Best Album of Original Score Written for a Motion Picture or Television Special {{nom}} 
60603412 1994
(2nd) NYPD Blue "Simone Says" Joe Kenworthy (production mixer); Robert Appere, Kenneth R. Burton (re-recording mixers) ABC 1994
(2nd) Lois & Clark: The New Adventures of Superman "Wall of Sound" ‡ Kenn Fuller (production mixer); Dan Hiland, Joseph D. Citarella (re-recording mixers) ABC 1994
(2nd) Northern Exposure "Fish Story" ‡ Robert Marts, Glenn Micallef (production mixers); R. Russell Smith, Greg Orloff, Anthony D'Amico (re-recording mixers) CBS 1994
(2nd) Star Trek: The Next Generation "Genesis" † Alan Bernard (production mixer); Chris Haire, Doug Davey, Richard L. Morrison (re-recording mixers) Syndicated 1995
(3rd) NYPD Blue "Heavin' Can Wait" ‡ Joe Kenworthy (production mixer); Robert Appere, Kenneth R. Burton (re-recording mixers) ABC 
60606413 2 Darnell Fisher RB {{flagicon|ENG}} Reading {{age|1994|4|4}} 76 0 Rotherham United 27 July 2017 Undisclosed 2020 14 Jordan Storey CB {{flagicon|ENG}} Yeovil {{age|1997|9|22}} 34 1 Exeter City 1 July 2018 Undisclosed 2022 23 Paul Huntington CB {{flagicon|ENG}} Carlisle {{Age|1987|9|17}} 272 18 Yeovil Town 22 May 2012 Free 2021 7 Tom Bayliss CM {{flagicon|ENG}} Leicester {{age|1999|4|6}} 2 0 Coventry City 2 August 2019 £2,000,000 2023 44 Brad Potts CM {{flagicon|ENG}} Hexham {{age|1994|7|3}} 15 2 Barnsley 3 January 2019 Undisclosed 2020 
60612837 0 Garrett Smithley JD Motorsports Chevrolet 01 Stephen Leicht JD Motorsports Chevrolet 1 Michael Annett JR Motorsports Chevrolet 2 Tyler Reddick Richard Childress Racing Chevrolet 4 Ross Chastain JD Motorsports Chevrolet 
606721 1973–74 New York Islanders NHL &nbsp; 77 17 37 54 175 &nbsp; — — — 1974–75 New York Islanders NHL &nbsp; 79 21 55 76 105 &nbsp; 17 5 9 1975–76 New York Islanders NHL &nbsp; 78 31 67 98 100 &nbsp; 13 5 14 1976–77 New York Islanders NHL &nbsp; 80 25 55 80 103 &nbsp; 12 6 4 1977–78 New York Islanders NHL &nbsp; 80 30 64 94 81 &nbsp; 7 2 2 
60708596 4 Jimmy McNulty CB {{flagicon|ENG}} Runcorn {{age|1985|2|13}} 181 4 Bury 1 July 2015 Free 2019 7 Stephen Dooley RM {{flagicon|NIR}} Ballymoney {{age|1991|10|19}} 35 1 Coleraine 1 July 2018 Free 2020 8 Michael J. Williams DM {{flagicon|WAL}} Bangor {{age|1995|11|6}} 52 0 Liverpool 1 July 2018 Free 2020 10 Callum Camps CM {{flagicon|NIR}}{{flagicon|ENG}} Tameside {{age|1995|11|30}} 210 26 Academy 1 July 2013 Trainee 2020 13 Jimmy Keohane AM {{flagicon|IRL}}{{flagicon|ENG}} Aylesbury {{age|1991|1|22}} 13 0 Cork City 1 February 2019 Undisclosed 2021 
60746083 Human Hominidae 0 NP_848594.2 550 100% Philippine tarsier Tarsiidae 67 XP_008067500.1 559 77.29% Gray mouse lemur Lemuriformes 73 XP_012612137.1 548 77.60% Yellow-bellied marmot Rodentia 90 XP_027779037.1 559 76.32% Sea otter Carnivora 96 XP_022373045.1 548 84.90% 
6077898 5. Wes George (LW) Edmonton Oilers Detroit Red Wings 8. George Lyle (LW) Hartford Whalers Detroit Red Wings 9. Steve Carlson (RW) Edmonton Oilers Los Angeles Kings 10. Cal Sandbeck (D) Edmonton Oilers Minnesota North Stars 11. Dave Semenko (LW) Edmonton Oilers Minnesota North Stars 
60810073 04 Cory Roper Roper Racing Ford 4 Todd Gilliland Kyle Busch Motorsports Toyota 6 Norm Benning Norm Benning Racing Chevrolet 8 Tony Mrakovich NEMCO Motorsports Chevrolet 9 Codie Rohrbaugh Grant County Mulch Racing Chevrolet 
60842534 16 Charlie Mulgrew CB {{flagicon|SCO}} Glasgow {{age|1986|3|6}} 2 0 Blackburn Rovers 9 August 2019 Loan 2020 22 Chey Dunkley CB {{flagicon|ENG}} Wolverhampton {{age|1992|2|13}} 91 7 Oxford United 5 June 2017 Free 2022 5 Sam Morsy CM {{flagicon|EGY}} Wolverhampton {{age|1991|12|10}} 121 6 Chesterfield 28 January 2016 Undisclosed 2021 10 Josh Windass AM {{flagicon|ENG}} Kingston upon Hull {{age|1994|1|9}} 41 6 Rangers 9 August 2018 £2,000,000 2021 33 Kal Naismith RM {{flagicon|SCO}} Glasgow {{age|1992|2|18}} 35 1 Portsmouth 1 July 2018 Undisclosed 2021 
60908558 27 August 1988 Bournemouth Roker Park 1-1 17,998 Bennett (39') 3 September 1988 Ipswich Town Portman Road 0-2 12,835  10 September 1988 Bradford City Roker Park 0-0 16,286  24 September 1988 Shrewsbury Town Gay Meadow 0-0 4,195  1 October 1988 Oldham Athletic Roker Park 3-2 12,529 Gabbiadini (10'), MacPhail (34' pen.), Pascoe (72') 
60908991 1 Bart Hester Rep Cave Springs 2012 2020 2028 2 Jim Hendren Rep Gravette 2012 2020 2028 3 Cecile Bledsoe Rep Rogers 2008 2018 2020 4 Uvalde Lindsey Dem Fayetteville 2012 2018 2026 6 Gary Stubblefield Rep Branch 2012 2018 2028 
60950970 Matthew Selt 6–1 Lee Walker Ali Carter 6–4 Mitchell Mann Alan McManus 6–5 Andy Hicks Xiao Guodong 6–4 Eden Sharav Ding Junhui 6–5 Simon Lichtenberg 
6096805 2005 AFC Cup Group stage East Bengal 5–0 1–0 2005 AFC Cup Quarter-final Tampines Rovers 1–0 1–0 2–0 2006 AFC Cup Quarter-final Sun Hei 1–1 1–1 2–2 (5–4 Pen.) 2006 AFC Cup Final Al-Muharraq 3–0 2–4 5–4 2007 AFC Cup Quarter-final Tampines Rovers 5–2 2–1 7–3 
6098364 Espanyol 1996–97 La Liga 10 2 — — — — — — 10 Espanyol 1997–98 La Liga 4 0 1 0 — — — — 5 Espanyol 1998–99 La Liga 19 8 3 0 6{{efn|Appearances in [[UEFA Intertoto Cup]]|name=UI}} 2 — — 28 Espanyol 1999–00 La Liga 34 10 6 1 — — — — 40 Espanyol 2000–01 La Liga 30 11 5 1 3{{efn|Appearances in [[UEFA Europa League|UEFA Cup]]|name=UEL}} 1 2{{efn|Appearances in [[Supercopa de España]]|name=SSC}} 0 40 
60996117 1950{{small|[[Writers Guild of America Awards 1950|(3rd)]]}} All About Eve Joseph L. Mankiewicz 1951{{small|[[Writers Guild of America Awards 1951|(4th)]]}} Fourteen Hours John Paxton 1952{{small|[[Writers Guild of America Awards 1952|(5th)]]}} High Noon Carl Foreman 1952{{small|[[Writers Guild of America Awards 1952|(5th)]]}} The Bad and the Beautiful Charles Schnee 1953{{small|[[Writers Guild of America Awards 1953|(6th)]]}} From Here to Eternity Daniel Taradash 
60996521 1950{{small|[[Writers Guild of America Awards 1950|(3rd)]]}} All About Eve Joseph L. Mankiewicz 1951{{small|[[Writers Guild of America Awards 1951|(4th)]]}} People Will Talk Joseph L. Mankiewicz 1952{{small|[[Writers Guild of America Awards 1952|(5th)]]}} The Quiet Man Frank Nugent 1952{{small|[[Writers Guild of America Awards 1952|(5th)]]}} The Happy Time Earl Felton 1953{{small|[[Writers Guild of America Awards 1953|(6th)]]}} How to Marry a Millionaire Nunnally Johnson 
61010528 0 Jennifer Jo Cobb Jennifer Jo Cobb Racing Chevrolet 4 Todd Gilliland Kyle Busch Motorsports Toyota 6 Norm Benning Norm Benning Racing Chevrolet 8 Trey Hutchens NEMCO Motorsports Chevrolet 13 Johnny Sauter ThorSport Racing Ford 
61051459 1995 {{GUI}} AS Kaloum Star 0–0 ES Sahel {{TUN}} Stade du 28 Septembre, Conakry  1995 {{TUN}} ES Sahel 2–0 AS Kaloum Star {{GUI}} Stade Olympique de Sousse, Sousse  1996 {{TUN}} ES Sahel 3–2 Kawkab Marrakech {{MAR}} Stade Olympique de Sousse, Sousse 20,000 1996 {{MAR}} Kawkab Marrakech 2–0 ES Sahel {{TUN}} Stade El Harti, Marrakech 15,000 1999 {{TUN}} ES Sahel 1–0 Wydad Casablanca {{MAR}} Stade Olympique de Sousse, Sousse  
61075545 30 October 1978 London England Wembley Arena 31 October 1978 London England Wembley Arena 1 November 1978 London England Wembley Arena 3 November 1978 Stafford England Bingley Hall 4 November 1978 Manchester England Manchester Apollo 
61085202 0 Greg Rayl Jennifer Jo Cobb Racing Chevrolet 1 Cody McMahan Beaver Motorsports Chevrolet 4 Todd Gilliland Kyle Busch Motorsports Toyota 6 Norm Benning Norm Benning Racing Chevrolet 8 Camden Murphy NEMCO Motorsports Chevrolet 
61086459 4 Todd Gilliland Kyle Busch Motorsports Toyota 5 Dylan Lupton DGR-Crosley Toyota 6 Norm Benning Norm Benning Racing Chevrolet 8 Camden Murphy NEMCO Motorsports Chevrolet 10 Jennifer Jo Cobb Jennifer Jo Cobb Racing Chevrolet 
61086952 {{ih|JPN}} 1936 1957 13 {{ih|CAN}}{{efn|name=Canada|Canada withdrew from IIHF tournaments from 1970–1976, and was later suspended after a dispute over allowing professional players at the tournament. Canada returned to the IIHF tournament in 1977.}} 1969 1977 7 {{ih|GER}}{{efn|name=Germany}} 1939 1952 5 {{ih|FRA}} 1937 1950 5 {{ih|NOR}} 1938 1949 3 
61164085 13. Basta Gen Chintamani Jena Indian National Congress 18. Bhandaripokhari SC Bairagi Jena Utkal Congress 24. Korai Gen Ashok Kumar Das Utkal Congress 30. Aul Gen Sarat Kumar Deb Swatantra Party 32. Rajanagar Gen Biju Patnaik Utkal Congress 
61181662 1 Walmart Retail 514,405 {{profit}} {{ntsh|3.0}} 2.8% 2,200,000 Bentonville, AR  2 ExxonMobil Oil and gas 290,212 {{profit}} {{ntsh|3.0}} 18.8% 71,000 Irving, TX  6 UnitedHealth Group Healthcare 226,247 {{profit}} {{ntsh|3.0}} 12.5% 300,000 Minnetonka, MN  7 McKesson Healthcare 208,357 {{profit}} {{ntsh|3.0}} 4.9% 68,000 Irving, TX  8 CVS Health Healthcare 194,579 {{profit}} {{ntsh|3.0}} 5.3% 295,000 Woonsocket, RI  
61193320 4 Todd Gilliland Kyle Busch Motorsports Toyota 6 Norm Benning Norm Benning Racing Chevrolet 8 Camden Murphy NEMCO Motorsports Chevrolet 9 Codie Rohrbaugh CR7 Motorsports Chevrolet 10 Jennifer Jo Cobb Jennifer Jo Cobb Racing Chevrolet 
6120475 1969–70 Laval Saints QMJHL &nbsp; 56 37 43 80 67 &nbsp; — — — 1970–71 Rosemont National QMJHL &nbsp; 69 49 69 118 67 &nbsp; — — — 1971–72 New Haven Blades EHL &nbsp; 42 32 44 76 31 &nbsp; 7 2 5 1971–72 Providence Bruins AHL &nbsp; 2 1 2 3 0 &nbsp; — — — 1972–73 Providence Bruins AHL &nbsp; 62 16 23 39 24 &nbsp; 3 2 1 
6122010 1990 World Enduro Championship 250 cc Suzuki 14 6 1st 1991 World Enduro Championship 250 cc Husqvarna 16 8 1st 1992 World Enduro Championship 500 cc Husqvarna 12 5 1st 1993 World Enduro Championship 500 cc Husqvarna 14 7 2nd 1994 World Enduro Championship 500 cc Husqvarna 12 5 1st 
61245388 95 Pierluigi Gollini {{flagicon|ITA}} GK {{Birth date and age|df=yes|1995|3|18}} Aston Villa 2017 2023 41 0 5 Andrea Masiello {{flagicon|ITA}} CB / RB {{Birth date and age|df=yes|1986|2|5}} Bari 2011 2020 152 8 8 Robin Gosens {{flagicon|GER}} LB / LWB / LM {{Birth date and age|df=yes|1994|7|5}} Heracles Almelo 2017 2020 51 5 13 Guilherme Arana {{flagicon|BRA}} LB {{Birth date and age|df=yes|1997|4|14}} Sevilla 2019 2020 1 0 21 Timothy Castagne {{flagicon|BEL}} RB {{Birth date and age|df=yes|1995|12|5}} Genk 2017 2020 48 4 
61266717 1 Mandrem Laxmikant Parsekar  Bharatiya Janata Party 908  3 Dargalim Manohar Ajgaonkar  Bharatiya Janata Party 5,762  4 Tivim Anant Shet  Bharatiya Janata Party 521  6 Siolim Dayanand Mandrekar  Bharatiya Janata Party 1,907  8 Saligao Wilfred de Souza  Nationalist Congress Party 726  
612741 Dr. Slump Dr. Slump and Arale-chan: Hello! Wonder Island 1981 Dr. Slump Dr. Slump and Arale-chan: Hoyoyo, Great Round-the-World Race 1983 Dr. Slump Dr. Slump and Arale-chan: Hoyoyo! The Treasure of Nanaba Castle 1984 Dr. Slump Dr. Slump and Arale-chan: Hoyoyo! Dream Capital Mecha Police 1985 Dr. Slump Dr. Slump and Arale-chan: N-cha! Clear Skies Over Penguin Village 1993 
61274312 4 Stefano Denswil {{flagicon|NED}} CB / LB {{birth date and age|df=yes|1993|5|7}} Club Brugge 2019 2022 2 0  14 Takehiro Tomiyasu {{flagicon|JPN}} CB / DM {{birth date and age|df=yes|1998|11|5}} Sint-Truiden 2019 2024 2 0  15 Ibrahima Mbaye {{flagicon|SEN}} RB / LB {{birth date and age|df=yes|1994|10|14}} Internazionale 2015 2023 87 4  23 Danilo {{flagicon|BRA}} CB {{birth date and age|df=yes|1984|5|10}} Udinese 2018 2020 37 1  16 Andrea Poli {{flagicon|ITA}} CM {{birth date and age|df=yes|1989|9|29}} Milan 2017 2021 64 6  
61280234 {{dts|2019-08-01|format=dmy}} {{flagicon|POR}} {{sortname|Rafael|Leão}} Lille Milan Undisclosed {{dts|2019-08-01|format=dmy}} {{sortname|Tiago|Djaló}} Milan Lille Undisclosed {{dts|2019-08-01|format=dmy}} {{sortname|Alessandro|Plizzari}} Milan Livorno Loan {{dts|2019-08-01|format=dmy}} {{sortname|Elio|Capradossi}} Roma Spezia Undisclosed {{dts|2019-08-01|format=dmy}} {{sortname|Pol|Lirola}} Sassuolo Fiorentina Loan 
61297360 0 Garrett Smithley JD Motorsports Chevrolet 01 B. J. McLeod JD Motorsports Chevrolet 1 Michael Annett JR Motorsports Chevrolet 2 Tyler Reddick Richard Childress Racing Chevrolet 4 Stephen Leicht JD Motorsports Chevrolet 
61317050 5 7 Justin Allgaier JR Motorsports Chevrolet 23.859 8 22 Austin Cindric Team Penske Ford 23.891 9 1 Michael Annett JR Motorsports Chevrolet 23.915 10 39 Ryan Sieg RSS Racing Chevrolet 23.941 11 2 Tyler Reddick Richard Childress Racing Chevrolet 23.945 
61323268 1 Emil Audero {{flagicon|ITA}} GK {{birth date and age|df=yes|1997|1|18}} Juventus 2018  38 0  5 Julian Chabot {{flagicon|GER}} CB / DM {{birth date and age|df=yes|1998|2|12}} Groningen 2019 2024 0 0  7 Jacopo Sala {{flagicon|ITA}} RB / CM {{birth date and age|df=yes|1991|12|5}} Hellas Verona 2016 2020 59 0  15 Omar Colley {{flagicon|GAM}} CB {{birth date and age|df=yes|1992|10|24}} Genk 2018 2022 23 0  19 Vasco Regini {{flagicon|ITA}} CB / LB / LM {{birth date and age|df=yes|1990|9|9}} Empoli 2013 2021 119 0  
61402586 25 Antonio Rosati {{flagicon|ITA}} GK {{Birth date and age|df=yes|1983|6|26}} Perugia 2018 2019 0 0 39 Salvatore Sirigu {{flagicon|ITA}} GK {{Birth date and age|df=yes|1987|1|12}} Paris Saint-Germain 2017 2022 75 0 5 Armando Izzo {{flagicon|ITA}} CB / RB {{Birth date and age|df=yes|1992|3|2}} Genoa 2018 2022 39 5 15 Cristian Ansaldi {{flagicon|ARG}} LB / RB {{Birth date and age|df=yes|1986|9|20}} Internazionale 2017 2021 50 4 29 Lorenzo De Silvestri {{flagicon|ITA}} RB {{Birth date and age|df=yes|1988|5|23}} Sampdoria 2016 2020 85 8 
61416913 25 Karlo Letica {{flagicon|CRO}} GK {{birth date and age|df=yes|1997|2|11}} Club Brugge 2019 2020 0 0 Loan 99 Etrit Berisha {{flagicon|ALB}} GK {{birth date and age|df=yes|1989|3|10}} Atalanta 2019 2020 2 0 Loan 4 Thiago Cionek {{flagicon|POL}} CB {{birth date and age|df=yes|1986|4|21}} Palermo 2018 2020 48 1  13 Arkadiusz Reca {{flagicon|POL}} LB {{Birth date and age|df=yes|1995|6|17}} Atalanta 2019 2020 0 0 Loan 23 Francesco Vicari {{flagicon|ITA}} CB {{birth date and age|df=yes|1994|8|3}} Novara 2016 2022 98 3  
61441469 Homo sapiens Human Mammalia NP_001287712.1 100% 100% Pan paniscus Bonobo Mammalia XP_003826752.1 99% 100% Mus musculus House mouse Mammalia NP_001074693.1 93% 95% Ochotona princeps American pika Mammalia XP_004586413.1 91% 94% Vombatus ursinus Common wombat Mammalia XP_027730777.1 87% 81% 
61441851 0 Garrett Smithley JD Motorsports Chevrolet 01 Stephen Leicht JD Motorsports Chevrolet 1 Michael Annett JR Motorsports Chevrolet 2 Tyler Reddick Richard Childress Racing Chevrolet 4 Lawson Aschenbach JD Motorsports Chevrolet 
61503029 0 Garrett Smithley JD Motorsports Chevrolet 01 Stephen Leicht JD Motorsports Chevrolet 1 Michael Annett JR Motorsports Chevrolet 2 Tyler Reddick Richard Childress Racing Chevrolet 4 Ryan Vargas JD Motorsports Chevrolet 
61506005 47 Andrea Consigli {{flagicon|ITA}} GK {{birth date and age|df=yes|1987|1|27}} Atalanta 2014 2022 184 0  56 Gianluca Pegolo {{flagicon|ITA}} GK {{birth date and age|df=yes|1981|3|25}} Siena 2013 2020 41 0  2 Marlon {{flagicon|BRA}} CB {{birth date and age|df=yes|1995|9|7}} Barcelona 2018 2023 20 1  3 Edoardo Goldaniga {{flagicon|ITA}} CB {{birth date and age|df=yes|1993|11|2}} Palermo 2017 2022 13 1  5 Andrew Gravillon {{flagicon|FRA}} CB / RB {{birth date and age|df=yes|1998|2|8}} Internazionale 2019 2020 0 0 Loan 
6154905 1969 Denis Pittard {{Rlp|FE}} {{leagueicon|South Sydney|23}} South Sydney 1970 Kevin Junee {{Rlp|HB}} Image:Eastern Suburbs colours.svg Eastern Suburbs 1971 Denis Pittard {{Rlp|FE}} {{leagueicon|South Sydney|23}} South Sydney 1972 Tommy Raudonikis {{Rlp|HB}} {{leagueicon|Western Suburbs Magpies|23}} Western Suburbs 1973 Ken Maddison {{Rlp|SR}} Image:Cronulla colours.svg Cronulla 
61583185 1 Marco Silvestri {{flagicon|ITA}} GK {{Birth date and age|df=yes|1991|3|2}} Leeds United 2017 2021 43 0  22 Alessandro Berardi {{flagicon|ITA}} GK {{Birth date and age|df=yes|1991|1|16}} Bari 2018 2021 0 0  3 Luigi Vitale {{flagicon|ITA}} LB / LM / LW {{Birth date and age|df=yes|1987|10|5}} Salernitana 2019 2021 10 0  5 Davide Faraoni {{flagicon|ITA}} RB / RM / LB {{Birth date and age|df=yes|1991|10|25}} Crotone 2019 2022 18 3  13 Amir Rrahmani {{flagicon|KOS}} CB / RB / LB {{Birth date and age|df=yes|1994|2|24}} Dinamo Zagreb 2019 2022 1 0  
61583514 1 Jackie Frank GK {{cvt|5|ft|10.5|in|m|2}}  Hermosa Beach, California May 1, 1980 {{ayd|May 1, 1980|Aug 16, 2004}} Stanford  2 Heather Petri A {{cvt|5|ft|10.5|in|m|2}}  Oakland, California Jun 13, 1978 {{ayd|Jun 13, 1978|Aug 16, 2004}} UC Berkeley  3 Ericka Lorenz  {{cvt|5|ft|10.5|in|m|2}}  San Diego, California Feb 18, 1981 {{ayd|Feb 18, 1981|Aug 16, 2004}} UC Berkeley  4 Brenda Villa A {{cvt|5|ft|4|in|m|2}}  Los Angeles, California Apr 18, 1980 {{ayd|Apr 18, 1980|Aug 16, 2004}} Stanford  5 Ellen Estes FP {{cvt|5|ft|11.5|in|m|2}}  Portland, Oregon Oct 13, 1978 {{ayd|Oct 13, 1978|Aug 16, 2004}} Stanford  
61651529 1 March 2 Melbourne Track Classic Melbourne Australia II 3 May 13 Japan Grand Prix Osaka Japan I 4 May 14 Grand Prix Brasil de Atletismo Rio de Janeiro Brazil I 5 May 28 Adriaan Paulen Memorial Hengelo Netherlands II 7 June 15 Ericsson GP Helsinki Finland II 
61652188 1 March 1 Melbourne Track Classic Melbourne Australia II 3 May 6 Grand Prix Brasil de Atletismo Rio de Janeiro Brazil I 4 May 12 Japan Grand Prix Osaka Japan I 5 May 18 Qatar Athletic Grand Prix 1 Doha Qatar I 6 May 27 Prefontaine Classic Eugene United States I 
61652380 1 March 7 Melbourne Track Classic Melbourne Australia II 3 May 5 Grand Prix Brasil de Atletismo Rio de Janeiro Brazil I 4 May 11 Japan Grand Prix Osaka Japan I 5 May 15 Qatar Athletic Grand Prix 1 Doha Qatar I 7 May 26 Prefontaine Classic Eugene United States I 
61660433 0 Garrett Smithley JD Motorsports Chevrolet 01 Stephen Leicht JD Motorsports Chevrolet 1 Michael Annett JR Motorsports Chevrolet 2 Tyler Reddick Richard Childress Racing Chevrolet 7 Justin Allgaier JR Motorsports Chevrolet 
61661200 0 Garrett Smithley JD Motorsports Chevrolet 01 Stephen Leicht JD Motorsports Chevrolet 1 Michael Annett JR Motorsports Chevrolet 2 Tyler Reddick Richard Childress Racing Chevrolet 7 Justin Allgaier JR Motorsports Chevrolet 
6176845 1992–93 HC Kladno TCH  2 0 0 0 0  — — — 1993–94 Brandon Wheat Kings WHL  2 0 0 0 0  — — — 1993–94 Swift Current Broncos WHL  69 33 35 68 68  7 5 4 1994–95 Swift Current Broncos WHL  65 32 60 92 122  6 2 6 1994–95 Saint John Flames AHL  1 0 0 0 0  — — — 
62049 Ashburton District Ashburton {{Nts|6208}} {{Nts|{{formatnum:{{NZ population data|Ashburton District|y}}|R}}}} {{Nts|{{Rnd|{{formatnum:{{NZ population data|Ashburton District|y}}|R}}/6208|2}}}} Canterbury Buller District Westport {{Nts|7950}} {{Nts|{{formatnum:{{NZ population data|Buller District|y}}|R}}}} {{Nts|{{Rnd|{{formatnum:{{NZ population data|Buller District|y}}|R}}/7950|2}}}} West Coast Central Otago District Alexandra {{Nts|9966}} {{Nts|{{formatnum:{{NZ population data|Central Otago District|y}}|R}}}} {{Nts|{{Rnd|{{formatnum:{{NZ population data|Central Otago District|y}}|R}}/9966|2}}}} Otago Christchurch City Christchurch {{Nts|1610}}{{ref|banks}} {{Nts|{{formatnum:{{NZ population data|Christchurch City|y}}|R}}}} {{Nts|{{Rnd|{{formatnum:{{NZ population data|Christchurch City|y}}|R}}/1610|2}}}} Canterbury Clutha District Balclutha {{Nts|6406}} {{Nts|{{formatnum:{{NZ population data|Clutha District|y}}|R}}}} {{Nts|{{Rnd|{{formatnum:{{NZ population data|Clutha District|y}}|R}}/6406|2}}}} Otago 
623323 156 Super Sprinter File:Class 156.jpg DMU 75 120 48 2 Glasgow South Western Line, Shotts Line,Maryhill Line, Cumbernauld Line 1987-89 158 Express Sprinter File:158871Musselburgh.jpg DMU 90 145 48 2 Maryhill Line, Cumbernauld Line, Shotts Line 1989-92 Class 314 File:314212 at Patterton.jpg EMU 75 121 16 3 Cathcart Circle Lines, Inverclyde Line, Paisley Canal Line. 1979 Class 318 File:Hyndland - Abellio 318262 Cumbernauld service.JPG EMU 90 145 21 3 North Clyde Line, Argyle Line, Whifflet Line, Cumbernauld Line, Cathcart Circle Lines 1986-87 Class 320/3 File:320 Saltire.JPG EMU 90 145 22 3 North Clyde Line, Argyle Line, Whifflet Line, Cathcart Circle Lines 1990 
6246266 1993 DEN 16 40 425 0 11 54 12 188 0 0 26 1994 DEN 16 41 379 0 4 44 37 793 0 0 40 1995 DEN 16 31 354 0 17 44 47 1,269 0 0 86 1996 DET 16 34 284 0 19 33 64 1,627 0 0 65 1997 DET 16 47 433 0 26 40 55 1,315 0 0 69 
6248923 2003 Beijing Elena Liashenko Yoshie Onda Fumie Suguri  2004 Beijing Irina Slutskaya Viktoria Volchkova Joannie Rochette  2005 Beijing Irina Slutskaya Mao Asada Shizuka Arakawa  2007 Harbin Yuna Kim Caroline Zhang Carolina Kostner  2009 Beijing Akiko Suzuki Kiira Korpi Joannie Rochette  
6262289 2000–01 Plymouth Whalers OHL  53 6 23 29 72  19 3 10 2001–02 Plymouth Whalers OHL  62 11 25 36 100  6 1 2 2002–03 Plymouth Whalers OHL  52 18 34 52 60  18 2 10 2003–04 Plymouth Whalers OHL  50 17 53 70 63  9 3 7 2005–06 Chicago Blackhawks NHL  19 2 5 7 36  — — — 
629998 1986–87 Calgary Flames NHL  9 5 1 6 0  6 2 2 1987–88 Calgary Flames NHL  75 51 41 92 23  8 3 4 1988–89 Calgary Flames NHL  77 51 31 82 40  22 10 4 1989–90 Calgary Flames NHL  79 45 50 95 40  6 4 6 1990–91 Calgary Flames NHL  79 45 40 85 36  7 4 1 
6308840 April 1640  Peter Sainthill Royalist  Peter Ball  November 1640  Peter Sainthill Royalist  George Hartnall Royalist January 1659  Francis Warner   Sir Coplestone Bampfylde  1727  Arthur Arscott   Sir William Yonge, Bt Whig 1754  Sir William Yonge, Bt Whig  Henry Pelham  
63285 ACDSee {{yes}} {{yes}} ? ? Proprietary Adobe Lightroom {{no}} {{no}} {{no}} {{no}} Proprietary Chasys Draw IES {{yes}} {{yes}} {{yes}} {{yes}} Freeware CineAsset {{yes}} {{yes}} {{yes}} {{yes}} Proprietary CompuPic Pro {{yes}} {{yes}} {{dunno}} {{dunno}} Proprietary 
6331256  1885 Lawrence James Baker Liberal  1886 Thomas Thynne, Viscount Weymouth Conservative  1892 John Barlow Liberal  1895 Thomas Thynne, Viscount Weymouth Conservative  1896 Sir John Barlow Liberal 
6334359 Ballyhea 1995 2 0-01 Ballyhea 1996 1 0-02 Ballyhea 1997 1 1-07 Ballyhea 1998 1 1-07 Ballyhea 1999 2 1-06 
6345256 Wolverhampton Wanderers 2006–07 Championship 2 0 0 0 0 0 0 0 2 0 Wolverhampton Wanderers 2007–08 Championship 0 0 0 0 0 0 0 0 0 0 Wolverhampton Wanderers 2008–09 Championship 12 0 0 0 1 0 0 0 13 0 Wolverhampton Wanderers 2009–10 Premier League 0 0 0 0 0 0 0 0 0 0 Wolverhampton Wanderers 2010–11 Premier League 0 0 0 0 0 0 0 0 0 0 
6370446 Alicante CF 0–1 UE Lleida Badalona 2–0 Villajoyosa CF Benidorm CD 1–0 UDA Gramenet Girona FC 0–4 Orihuela CF Granada CF 1–2 Racing Club Portuense 
639611 1990–91 Montreal Canadiens NHL  10 2 5 7 2  3 0 0 1991–92 Montreal Canadiens NHL  59 8 11 19 14  8 1 1 1991–92 Fredericton Canadiens AHL  8 7 7 14 10  2 0 0 1992–93 Montreal Canadiens NHL  72 19 25 44 33  20 4 6 1993–94 Montreal Canadiens NHL  74 19 24 43 32  7 2 1 
642357 1994–95 TPS SM-l  4 3 1 0 — 240 12 0 3.00 .897  2 2 0 120 7 0 1995–96 TPS SM-l  12 5 3 1 — 550 38 0 4.14 .881  3 0 1 113 4 0 1996–97 AIK SEL  42    — 2440 93 3 2.29 .907  7   420 22 0 1997–98 AIK SEL  43    — 2517 111 1 2.65 .908  — — — — — — 1998–99 TPS SM-l  39 26 6 6 — 2259 70 4 1.86 .936  10 9 1 580 15 3 
642484 {{sort|1971–72 John Player Cup (1)|[[1971–72 John Player Cup|1971–72]]}} Gloucester 17–6 Moseley Twickenham 10,500  {{sort|1977–78 John Player Cup (1)|[[1977–78 John Player Cup|1977–78]]}} Gloucester 6–3 Leicester Twickenham 24,000  {{sort|1978–79 John Player Cup (1)|[[1978–79 John Player Cup|1978–79]]}} Leicester 15–12 Moseley Twickenham 18,000  {{sort|1979–80 John Player Cup (1)|[[1979–80 John Player Cup|1979–80]]}} Leicester 21–9 London Irish Twickenham 27,000  {{sort|1980–81 John Player Cup (1)|[[1980–81 John Player Cup|1980–81]]}} Leicester 22–15 Gosforth Twickenham 24,000  
6426781 Runner-up 1. April 1, 1985 Seabrook Island Clay Elise Burgin {{flagicon|URS}} Svetlana Parkhomenko
{{flagicon|URS}} Larisa Savchenko 1–6, 3–6 Winner 2. October 21, 1985 Brighton Carpet (I) Catherine Suire {{flagicon|USA}} Barbara Potter
{{flagicon|TCH}} Helena Suková 4–6, 7–6(3), 6–4 Runner-up 2. February 24, 1986 Oklahoma City Carpet (I) Catherine Suire {{flagicon|NED}} Marcella Mesker
{{flagicon|FRA}} Pascale Paradis 6–2, 6–7(1), 1–6 Runner-up 3. October 6, 1986 Zürich Carpet (I) Alycia Moulton {{flagicon|FRG}} Steffi Graf
{{flagicon|ARG}} Gabriela Sabatini 6–1, 4–6, 4–6 Winner 3. October 27, 1986 Indianapolis Hard (I) Zina Garrison {{flagicon|USA}} Candy Reynolds
{{flagicon|USA}} Anne Smith 4–5 ret. 
642763 Lake Dennison Recreation Area Worcester {{convert|121|acre|ha|disp=table|sortable=on|abbr=on}}  Lake Dennison  The park is an extension of Otter River State Forest  Lake Wyola State Park Franklin {{convert|42|acre|ha|disp=table|sortable=on|abbr=on}}  Lake Wyola File:Lake Wyola, Shutesbury MA.jpg   Lowell Heritage State Park Middlesex {{convert|60|acre|ha|disp=table|sortable=on|abbr=on}} 1975 Merrimack River File:Vandenberg Esplanade, Lowell Heritage State Park, Lowell MA.jpg Precursor to Lowell National Historical Park; preserves the city's seminal role in the American Industrial Revolution  Maudslay State Park Essex {{convert|483|acre|ha|disp=table|sortable=on|abbr=on}}  Merrimack River File:Rose Garden 1.JPG   Nahant Beach Reservation Essex {{convert|67|acre|ha|disp=table|sortable=on|abbr=on}}  Atlantic Ocean File:Nahant Beach Reservation, Nahant MA.jpg   
644198 1990–91 Portland Winter Hawks WHL  72 43 49 92 78  — — — 1991–92 Portland Winter Hawks WHL  64 51 53 104 95  6 3 6 1991–92 Washington Capitals NHL  1 0 0 0 0  — — — 1991–92 Baltimore Skipjacks AHL  3 1 1 2 0  — — — 1992–93 Washington Capitals NHL  36 4 7 11 16  2 0 1 
6443423 1983–84 Cushing Academy HS-Prep  21 22 33 55 20  — — — 1987–88 New York Islanders NHL  15 1 6 7 14  3 0 2 1988–89 New York Islanders NHL  69 1 30 31 74  — — — 1989–90 New York Islanders NHL  60 4 49 53 65  4 1 3 1990–91 New York Islanders NHL  44 3 25 28 16  — — — 
6449246 1981–82 AIK SEL &nbsp; 23 2 2 4 2 &nbsp; — — — 1982–83 AIK SEL &nbsp; 34 13 17 30 14 &nbsp; 3 1 4 1983–84 AIK SEL &nbsp; 35 9 18 27 24 &nbsp; 6 6 7 1984–85 AIK SEL &nbsp; 35 16 33 49 10 &nbsp; — — — 1985–86 Philadelphia Flyers NHL &nbsp; 70 15 51 66 12 &nbsp; 5 0 2 
6477031 SpVgg Bayreuth 0–2 Kickers Offenbach Tennis Borussia Berlin 1–3 Karlsruher SC 1. FC Magdeburg 1–1 Paderborn 07 (AET) (Paderborn 07 won 7–6 on penalties) Westfalia Herne 1–2 Erzgebirge Aue Dynamo Dresden 2–3 Hannover 96 
6512248 1 Avengers: Endgame 2019 $357,115,007 United States and Canada 2 Avengers: Infinity War 2018 $257,698,183 United States and Canada 3 Star Wars: The Force Awakens 2015 $247,966,675 United States and Canada 4 Star Wars: The Last Jedi 2017 $220,009,584 United States and Canada 5 Jurassic World 2015 $208,806,270 United States and Canada 
653850 215 Bury {{Convert|{{English district area|GSS=E08000002}}|km2|disp = table|sortable = on}} Metropolitan borough Greater Manchester 225 Barnet {{Convert|{{English district area|GSS=E09000003}}|km2|disp = table|sortable = on}} London borough Greater London 226 Croydon {{Convert|{{English district area|GSS=E09000008}}|km2|disp = table|sortable = on}} London borough Greater London 227 Knowsley {{Convert|{{English district area|GSS=E08000011}}|km2|disp = table|sortable = on}} Metropolitan borough Merseyside 230 North Tyneside {{Convert|{{English district area|GSS=E08000022}}|km2|disp = table|sortable = on}} Metropolitan borough Tyne and Wear 
6540026 2001 Twickenham {{ru7-big|NZL}} 19–12 {{ru7-big|AUS}} {{ru7-big|RSA}} {{ru7-big|WAL}} – 2007 Twickenham {{ru7-big|NZL}} 29–7 {{ru7-big|FIJ}} {{ru7-big|RSA}} {{ru7-big|ENG}} {{ru7-big|KEN}} 2008 Twickenham {{ru7-big|SAM}} 19–14 {{ru7-big|FIJ}} {{ru7-big|NZL}} {{ru7-big|AUS}} {{ru7-big|ESP}} 2009 Twickenham {{ru7-big|ENG}} 26–7 {{ru7-big|NZL}} {{ru7-big|FIJ}} {{ru7-big|KEN}} {{ru7-big|CAN}} 2010 Twickenham {{ru7-big|AUS}} 19–14 {{ru7-big|RSA}} {{ru7-big|NZL}} {{ru7-big|CAN}} {{ru7-big|KEN}} 
655137 1993 Australian Film Institute award, Best Lead Actor The Custodian {{Nominated}} 2000 Primetime Emmy award, Outstanding Guest Actor in a Comedy Series Frasier {{Nominated}} 2002 Primetime Emmy award, Outstanding Guest Actor in a Comedy Series Frasier {{WON}} 2004 Gold Derby award, Best Drama Lead Actor Without a Trace {{Nominated}} 2004 Newport Beach Film Festival award, Outstanding Achievement in Acting Happy Hour {{WON}} 
661411 1996–97 Kamloops Blazers WHL  64 4 19 23 96  5 0 1 1997–98 Kamloops Blazers WHL  65 4 10 14 120  5 0 3 1998–99 Kamloops Blazers WHL  54 12 20 32 130  12 1 4 1999–00 Saint John Flames AHL  5 0 0 0 0  — — — 1999–00 Calgary Flames NHL  57 5 7 12 46  — — — 
662047 1982–83 Stratford Cullitons MWJHL  42 50 92 142 54  — — — 1984–85 Chicago Black Hawks NHL  70 20 30 50 67  15 6 5 1985–86 Chicago Black Hawks NHL  79 29 50 79 47  3 0 0 1987–88 Toronto Maple Leafs NHL  80 42 33 75 55  6 5 4 1988–89 Toronto Maple Leafs NHL  80 38 52 90 75  — — — 
6627550 1981–82 Brantford Alexanders OHL  19 4 11 0 970 68 0 4.21 1982–83 Brantford Alexanders OHL  56 29 21 3 3210 188 0 3.51 1983–84 Toronto Maple Leafs NHL  32 11 16 4 1848 134 0 4.35 1983–84 Brantford Alexanders OHL  23 12 9 1 1271 71 1 3.35 1984–85 Toronto Maple Leafs NHL  15 3 9 1 767 54 1 4.22 
663886 20 February 2014 United Kingdom Liverpool Philharmonic Hall 21 February 2014 United Kingdom Birmingham Symphony Hall 22 February 2014 United Kingdom Reading Hexagon Theatre 24 February 2014 United Kingdom Manchester Bridgewater Hall 26 February 2014 United Kingdom Newcastle Newcastle City Hall 
665350 1929 Hollywood Stars 4–2 Mission Reds 1941 Seattle Rainiers 4–3 Sacramento Solons 1951 Seattle Rainiers 3–2 Hollywood Stars 1963 Oklahoma City 89ers 4–3 Spokane Indians 1965 Oklahoma City 89ers 4–1 Portland Beavers 
665679 1909 Chattanooga Lookouts 4–3 Augusta Tourists 1911 Columbus Foxes 4–2 Columbia Commies 1912 Jacksonville Tarpons 4–1 Columbus Foxes 1914 Savannah Colts 4–2 Albany Babies 1915 Columbia Comers 4–1–2 Macon Peaches 
6668214 G Steve Francis Houston Rockets 2nd 966,669 G Kobe Bryant Los Angeles Lakers 5th 1,474,386 F Kevin Garnett Minnesota Timberwolves 6th 1,086,780 F Tim Duncan San Antonio Spurs 5th 1,179,955 C Yao Ming Houston Rockets 1st 1,286,324 
6672698 1 3000 Town Center File:Southfield Town Center 3000.jpg Southfield 402 / 122 32 1975 The 15th tallest skyscraper in Metro Detroit. 2 1000 Town Center File:Southfield Town Center 1000.jpg Southfield 395 / 120 28 1989  3 2000 Town Center File:Southfield Town Center 2000.jpg Southfield 370 / 113 28 1986  4 Top of Troy Building File:Topoftroy2007.JPG Troy 346 / 106 25 1974  5 American Center File:AmericanCenter2.jpg Southfield 331 / 101 26 1975  
6693163 10th Indiana Infantry Regiment 62nd Indiana Infantry Regiment 116th Indiana Infantry Regiment 13th Indiana Infantry Regiment 66th Indiana Infantry Regiment 120th Indiana Infantry Regiment 15th Indiana Infantry Regiment 68th Indiana Infantry Regiment 122nd Indiana Infantry Regiment 16th Indiana Infantry Regiment 69th Indiana Infantry Regiment 123rd Indiana Infantry Regiment 17th Indiana Infantry Regiment 70th Indiana Infantry Regiment 124th Indiana Infantry Regiment 
6727622 2000
(52nd) Eddie Izzard Eddie Izzard: Dress to Kill HBO 2000
(52nd) Billy Crystal The 72nd Annual Academy Awards ABC 2000
(52nd) Chris Rock Chris Rock: Bigger and Blacker HBO 2000
(52nd) Molly Shannon Saturday Night Live NBC 2001
(53rd) Barbra Streisand Barbra Streisand: Timeless Fox 
6740850 1993 Kizhakku Cheemayile {{n}} {{n}} {{n}} {{y}}  Tamil Uncredited role 1995 Aasai {{n}} {{n}} {{n}} {{y}}  Tamil Auto Driver 1996 Purushan Pondatti {{n}} {{y}} {{n}} {{n}}  Tamil Lyrics for song Lottery Enakku 2004 Naani {{y}} {{y}} {{n}} {{y}} Math Professor Telugu Cameo appearance 2004 Maha Nadigan {{n}} {{n}} {{n}} {{y}} Himself Tamil Cameo appearance 
6755569 1990 MIA 16 29 388 13.4 45 2 0 0 0 1991 MIA 16 27 434 16.1 54 2 16 0 0 1992 MIA 16 33 553 16.8 55 2 26 1 0 1993 MIA 12 20 347 17.4 80 3 14 1 1 1994 SD 16 50 885 17.7 99 7 39 0 0 
6767670 January 1, 1952 Bill Schutte Pineapple Bowl Hawaii W 34–13 December 6, 1969 Don Coryell Pasadena Bowl Boston University W 28–7 December 19, 1998 Ted Tollner Las Vegas Bowl North Carolina L 13–20 December 23, 2010 Brady Hoke Poinsettia Bowl Navy W 35–14 December 20, 2012 Rocky Long Poinsettia Bowl BYU L 6–23 
680321 1994 NAACP Image Awards Won Outstanding Comedy Series  1995 NAACP Image Awards Won Outstanding Lead Actor in a Comedy Series Martin Lawrence 1995 NAACP Image Awards Won Outstanding Comedy Series  1996 NAACP Image Awards Nominated Outstanding Supporting Actress in a Comedy Series Marla Gibbs 1996 NAACP Image Awards Nominated Outstanding Supporting Actor in a Comedy Series Carl Anthony Payne II 
6823048 Wenchuan Aba 100,776 Li(xian) Aba 46,556 Mao(xian) Aba 104,829 Songpan Aba 72,309 Jiuzhaigou Aba 81,394 
682473 1993 GB 0 0 0 0 0 0 0 0 0 0 0 0 0 0 0 0 0 0 1994 GB 2 0 27 12 44.4 95 3.5 0 0 53.8 6 7 1.2 1 2 16 1 1 1995 JAX 13 10 346 201 58.1 2168 6.3 15 7 82.6 67 480 7.2 4 39 238 5 2 1996 JAX 16 16 557 353 63.4 4367 7.8 19 20 84.0 80 396 5.0 3 50 257 14 3 1997 JAX 14 14 435 264 60.7 3281 7.5 18 7 91.2 48 257 5.4 2 33 189 4 2 
6825127 2009 Rachel Alexandra Steve Asmussen Stonestreet Stables 2008 Proud Spell J. Larry Jones Brereton C. Jones 2003 Bird Town Nick Zito Marylou Whitney Stables 1999 Silverbulletday Bob Baffert Michael E. Pegram 1997 Ajina William I. Mott Allen E. Paulson 
6827032 1975–76 University of Alberta CWUAA &nbsp; 31 3 20 23 49 &nbsp; — — — 1976–77 University of Alberta CWUAA &nbsp; 34 10 23 33 45 &nbsp; — — — 1977–78 University of Alberta CWUAA &nbsp; 30 8 26 34 43 &nbsp; — — — 1978–79 University of Alberta CWUAA &nbsp; 41 11 26 37 67 &nbsp; — — — 1980–81 Kokudo Keikaku JPN &nbsp; 35 12 18 30 30 &nbsp; — — — 
6878060 1997–98 Munich Tara Lipinski Tanja Szewczenko Maria Butyrskaya  1998–99 Saint Petersburg Tatiana Malinina Maria Butyrskaya Irina Slutskaya  1999–00 Lyon Irina Slutskaya Michelle Kwan Maria Butyrskaya  2000–01 Tokyo Irina Slutskaya Michelle Kwan Sarah Hughes  2002–03 Saint Petersburg Sasha Cohen Irina Slutskaya Viktoria Volchkova  
6883488 Pieter Bruegel the Elder Parable of the blind -1568  Polidoro da Caravaggio Walk to Calvary -1533  Annibale Carracci Hercules at a Crossroads -1596  Ludovico Carracci Rinaldo and Armida -1593  Annibale Carracci Rinaldo and Armida c. 1601  
68980 TT pistol {{flag|United States}} Semi-automatic pistol   MAT-49 {{flag|France}} Submachine gun   AKM {{flag|Russia}} Assault rifle   AK-47 {{flag|Russia}} Assault rifle AK-103, AK-12, RPK-74  Type 56 {{flag|China}} Assault rifle   
6903024 Eintracht Braunschweig Braunschweig Eintracht-Stadion 23,325 MSV Duisburg Duisburg MSV-Arena 31,500 Hallescher FC Halle Erdgas Sportpark 15,057 FC Ingolstadt Ingolstadt Audi Sportpark 15,000 Carl Zeiss Jena Jena Ernst-Abbe-Sportfeld 12,990 
691306 1949 Reims 4–3 Racing Paris {{flagicon|FRA}} Stade Olympique Yves-du-Manoir, Colombes   1955 Reims 7–1 Lille {{flagicon|FRA}} Stade Vélodrome, Marseille   1956 Sedan 1–0 Nice {{flagicon|FRA}} Parc des Princes, Paris   1959 Le Havre 2–0 Nice {{flagicon|FRA}} Parc des Princes, Paris   1960 Reims 6–2 Monaco {{flagicon|FRA}} Stade Marcel Saupin, Nantes   
693192 1986–87 St. Albert Saints AJHL  53 41 34 75 103  19 7 15 1987–88 New Westminster Bruins WHL  71 37 64 101 88  5 2 3 1988–89 Tri-City Americans WHL  70 59 82 141 117  7 6 5 1989–90 Tri-City Americans WHL  63 52 92 144 165  7 1 5 1991–92 Moncton Hawks AHL  30 13 20 33 10  11 3 9 
6967012 2002 Teen Choice Awards TV - Choice Actor, Comedy Greg the Bunny {{nom}} 2008 Annie Awards Best Animated Television Production Robot Chicken: Star Wars {{nom}} 2009 Primetime Emmy Awards Outstanding Voice-Over Performance Robot Chicken: Star Wars Episode II {{nom}} 2010 Primetime Emmy Awards Outstanding Short-format Animated Program Robot Chicken, episode: "Full-Assed Christmas Special" ("Dear Consumer") {{won}} 2010 Primetime Emmy Awards Outstanding Voice-Over Performance Robot Chicken {{nom}} 
6981176 2 Ricky Hendrick GMAC Alltel 200 North Carolina Speedway DNQ DNQ  5 Ricky Hendrick GMAC SunCom 200 Darlington Raceway DNQ DNQ  7 Jeff Gordon Pepsi Albertsons 300 Texas Motor Speedway 31 42  8 Ricky Hendrick GMAC BellSouth Mobility 320 Nashville Speedway USA 34 5  16 Ricky Hendrick GMAC Myrtle Beach 250 Myrtle Beach Speedway 9 13  
6999658 2005 Nginiig Herself/Host   ABS-CBN 2006 Sa Piling Mo Marisa   ABS-CBN 2006 Love Spell Presents: Home Switch Home Shine   ABS-CBN 2006 Star Magic Presents: Sabihin Mo Lang Celine   ABS-CBN 2007 Love Spell Presents: Shoes Ko Po, Shoes Ko 'Day! Dianne   ABS-CBN 
7013883 1 Vijaypal Singh Tomar Bharatiya Janata Party 03-Apr-2018 02-Apr-2024 4 Sakal Deep Rajbhar Bharatiya Janata Party 03-Apr-2018 02-Apr-2024 5 Harnath Singh Yadav Bharatiya Janata Party 03-Apr-2018 02-Apr-2024 6 Kanta Kardam Bharatiya Janata Party 03-Apr-2018 02-Apr-2024 7 G. V. L. Narasimha Rao Bharatiya Janata Party 03-Apr-2018 02-Apr-2024 
7032787 2006 SF 7 1 2 30 15.0 29 0 0 0 0.0 0 0 0 0 2007 SF 16 10 21 174 8.3 26 1 0 0 0.0 0 0 0 0 2008 SF 15 2 10 155 15.5 53 1 2 -13 -6.5 -3 0 2 0 2009 SF 16 8 21 233 11.1 39 0 3 34 11.3 16 0 2 2 2010 SF 14 8 29 331 11.4 38 0 3 18 6.0 10 0 1 1 
7046317 1 33 Marco Melandri Fortuna Honda Honda 28 44:57.369 5 25 2 65 Loris Capirossi Ducati Marlboro Team Ducati 28 +1.929 6 20 3 26 Dani Pedrosa Repsol Honda Team Honda 28 +2.269 1 16 4 27 Casey Stoner Honda LCR Honda 28 +5.494 11 13 5 69 Nicky Hayden Repsol Honda Team Honda 28 +5.709 10 11 
7051230 2016 Mickey J Meyer A Aa 2015 M. M. Keeravani Baahubali: The Beginning 2014 Anup Rubens Manam 2013 Devi Sri Prasad Attarintiki Daredi 2011 Ilaiyaraaja Sri Rama Rajyam 
7051594 2016 Vandemataram Srinivas Dandakaranyam "Kammanaina Amma Paata" 2015 M. M. Keeravani Baahubali: The Beginning "Shivuni Aana" 2012 Shankar Mahadevan Shirdi Sai "Okkade Devudu" 2010 M. M. Keeravani Maryada Ramanna "Telugammayi" 2003 S. P. Balasubrahmanyam Seetayya "Idigo Rayalaseema Gadda" 
7085218 1998 St. Joseph's Doora-Barefield Kilmaley 1997 Clarecastle St. Joseph's Doora-Barefield 1994 Clarecastle St. Joseph's Doora-Barefield 1991 Clarecastle Scariff 1988 Feakle Ruan 
7085232 1999 Doonbeg Kilmurry-Ibrickane 1997 Cooraclare Doonbeg 1993 Kilmurry-Ibrickane Doonbeg 1991 Doonbeg St. Joseph's, Milltown 1987 Kilrush Shamrocks Doonbeg 
7085904 1981 Newtown Blues Cooley Kickhams 1977 Cooley Kickhams Newtown Blues 1976 Cooley Kickhams Mattock Rangers 1974 Newtown Blues Cooley Kickhams 1973 Cooley Kickhams Mattock Rangers 
7096962 SC Freiburg 2005–06 2. Bundesliga 14 1 0 0 – – 0 0 – – 14 1 SC Freiburg 2006–07 2. Bundesliga 33 8 0 0 – – 0 0 – – 33 8 SC Freiburg 2007–08 2. Bundesliga 24 7 0 0 – – 0 0 – – 24 7 Hamburger SV 2008–09 Bundesliga 28 1 0 0 – – 11 0 – – 39 1 Hamburger SV 2009–10 Bundesliga 20 3 2 0 – – 12 0 – – 34 3 
71071 Bingham High School Jordan South Jordan Copper Hills High School Jordan West Jordan Corner Canyon High School Canyons Draper Cyprus High School Granite Magna Herriman High School Jordan Herriman 
7131256 Sagle 1 Bonner County 83860 &nbsp; Saint Anthony 1 Fremont County 83445 &nbsp; Saint Charles 1 Bear Lake County 83272 &nbsp; Saint Joe 1 Benewah County 83861 &nbsp; Saint Maries 1 Benewah County 83861 &nbsp; 
714302 1998–99 Tappara SM-l  51 6 8 14 119  — — — 1999–00 Tappara SM-l  50 8 24 32 160  4 1 2 2000–01 Albany River Rats AHL  79 8 29 37 117  — — — 2001–02 Albany River Rats AHL  9 0 3 3 10  — — — 2001–02 New Jersey Devils NHL  1 1 0 1 2  — — — 
7176229 1980 Labour Labour 1984 Labour Labour 1988 Labour Labour 1992 Labour Labour 1995 Labour Labour 
7177672 1967 Fearless Frank  Philip Kaufman 1969 The Rain People  Francis Ford Coppola 1971 Drive, He Said  Jack Nicholson 1972 Deliverance 2nd Unit Photography (uncredited) with Vilmos Zsigmond John Boorman 1972 Hickey & Boggs  Robert Culp 
7185876 2005–06 Omaha Lancers USHL  19 4 15 19 30  5 1 0 2006–07 Red Deer Rebels WHL  60 26 59 85 94  6 2 7 2007–08 Phoenix Coyotes NHL  72 8 27 35 28  — — — 2008–09 Phoenix Coyotes NHL  74 11 20 31 40  — — — 2009–10 Phoenix Coyotes NHL  81 11 22 33 104  7 0 3 
718787 {{F1|2018}} Lewis Hamilton Mercedes Interlagos Report {{F1|2017}} Sebastian Vettel Ferrari Interlagos Report {{F1|2016}} Lewis Hamilton Mercedes Interlagos Report {{F1|2015}} Nico Rosberg Mercedes Interlagos Report {{F1|2014}} Nico Rosberg Mercedes Interlagos Report 
7188443  ACT Rodney Hide 1996– 2 5  Labour Party Helen Clark 1919– 50 43  National Party John Key 1938– 48 58  New Zealand First Winston Peters 1993– 7 0  Progressive Party Jim Anderton 2002– 1 1 
7202026 Aguanish Aguanish Water Aerodrome ||CTQ3||||{{coord|50|13|50|N|062|06|45|W|type:airport_region:CA-QC|name=Aguanish Water Aerodrome}}  Chambly Chambly Airport ||CTT2||||{{coord|45|24|04|N|073|17|43|W|type:airport_region:CA-QC|name=Chambly Airport (abandoned)}}  Gatineau Ottawa/Gatineau Water Aerodrome ||CTI3||||{{coord|45|27|52|N|075|40|48|W|type:airport_region:CA-QC|name=Ottawa/Gatineau Water Aerodrom (abandoned)}}  Maniwaki Maniwaki/Blue Sea Lake Water Aerodrome ||CSM6||||{{coord|46|14|32|N|076|02|54|W|type:airport_region:CA-QC|name=Maniwaki/Blue Sea Lake Water Aerodrome}}  Matagami Matagami Water Aerodrome ||CSW8||||{{coord|49|44|04|N|077|37|11|W|type:airport_region:CA-QC|name=Matagami Water Aerodrome}}  
7221084 3 France Nicolas Lapierre 1'28.866 1'28.804 1'27.931 1'27.757 2'55.688 0.157 6 → 5 Great Britain Darren Manning 1'30.314 1'28.975 1'27.770 1'28.310 2'56.080 0.549 7 → 6 USA Philip Giebler 1'30.129 1'27.884 1'29.017 1'28.404 2'56.288 0.757 8 → 7 Canada James Hinchcliffe 1'29.079 1'28.641 1'28.333 1'27.974 2'56.307 0.776 9 → 8 Netherlands Jeroen Bleekemolen 1'29.186 1'28.411 1'28.207 1'30.033 2'56.618 1.087 
722324 1 Utah National Parks Council Orem, UT  72,915 2 Michigan Crossroads Council Lansing, MI  67,431 3 Great Salt Lake Council Salt Lake City, UT  56,633 4 Trapper Trails Council Ogden, UT  43,553 5 National Capital Area Council Bethesda, MD  37,901 
7235405 Wenfeng Anyang 442,854 Beiguan Anyang 245,608 Yindu Anyang 243,858 Tangyin Anyang 430,773 Hua(xian) Anyang 1,263,203 
7249494 1 Marc Lieb Freisinger Motorsport Ret 2 Ret 1 1 1 1 1 2 5 4 2 73 3 Andrea Bertolini JMB Racing 1 6 2 2 Ret Ret Ret Ret 10 1 1 1 59 5 Tim Sugden EMKA Racing Ret 13 1 4 9 2 3 Ret 1 4 3 Ret 43 8 Emmanuel Collard EMKA Racing     9 2 3 Ret 1 4 3 Ret 28 11 Romain Dumas Freisinger Motorsport      1 1 1     20 
7249608 1 Magny-Cours {{flagicon|GBR}} No. 14 Lister Storm Racing {{flagicon|FRA}} No. 50 JMB Racing Report 1 Magny-Cours {{flagicon|GBR}} Jamie Campbell-Walter
{{flagicon|DEU}} Nicolaus Springer {{flagicon|ITA}} Christian Pescatori
{{flagicon|ITA}} Andrea Montermini Report 2 Silverstone {{flagicon|FRA}} No. 12 Paul Belmondo Racing {{flagicon|FRA}} No. 50 JMB Racing Report 2 Silverstone {{flagicon|ITA}} Fabio Babini
{{flagicon|BEL}} Marc Duez {{flagicon|ITA}} Christian Pescatori
{{flagicon|ITA}} Andrea Montermini Report 3 Brno {{flagicon|GBR}} No. 14 Lister Storm Racing {{flagicon|DEU}} No. 54 Freisinger Motorsport Report 
7252540 1969 1 Uganda National First Division 2nd 18 12 2 4 64 24 26  1970 1 Uganda National First Division 4th 10 6 1 3 22 13 13  1971 1 Uganda National First Division 4th 14 7 2 5 20 20 16  1974 1 Uganda National League 1st 14 9 4 1 29 12 22 Champions 1975 1 Uganda National League 1st 18 11 5 2 35 15 27 Champions 
7271 1937 Joseph Stalin 89,844,271 99.3% {{Composition bar|461|569|hex={{Communist Party of the Soviet Union/meta/color}}}}  1946 Joseph Stalin 100,621,225 99.2% {{Composition bar|576|682|hex={{Communist Party of the Soviet Union/meta/color}}}} {{increase}} 115 1950 Joseph Stalin 110,788,377 99.7% {{Composition bar|580|678|hex={{Communist Party of the Soviet Union/meta/color}}}} {{increase}} 4 1954 Nikita Khrushchev 120,479,249 99.8% {{Composition bar|565|708|hex={{Communist Party of the Soviet Union/meta/color}}}} {{decrease}} 15 1958 Nikita Khrushchev 133,214,652 99.6% {{Composition bar|563|738|hex={{Communist Party of the Soviet Union/meta/color}}}} {{decrease}} 2 
7276042 1806 (Located in Large Magellanic Cloud) Globular cluster Dorado {{RA|05|02|11.4}} {{DEC|-67|59|02}}  1818 (Located in Large Magellanic Cloud) Globular cluster Dorado {{RA|05|04|14.8}} {{DEC|-66|26|04}} 9.7 1820 (Located in Large Magellanic Cloud) Open cluster Dorado {{RA|05|04|06.0}} {{DEC|-67|16|42}} 9.0 1846 (Located in Large Magellanic Cloud) Open cluster Dorado {{RA|05|07|34.7}} {{DEC|-67|27|31}} 11.3 1847 (Located in Large Magellanic Cloud) Open cluster Dorado {{RA|05|07|08.2}} {{DEC|-68|58|17}} 11.1 
7282970 2018 Nicolene Pichapa Limsnukan {{flag|Bangkok}} The Berkeley Pratunam Bangkok {{flag|Phetchaburi}}, {{flag|Prachuap Khiri Khan}} 30 2014 Nonthawan Thongleng {{flag|Surat Thani}} Centara Grand and Bangkok Convention Centre {{flag|Phang Nga}} 28 2013 Natalie Kanyapak Phoksomboon {{flag|Udon Thani}} Centara Grand and Bangkok Convention Centre {{flag|Phuket}} 20 2012 Vanessa Herrmann {{flag|Phuket}} Centara Grand and Bangkok Convention Centre {{flag|Chiang Mai}} 30 2009 Pongchanok Kanklab {{flag|Bangkok}} Centara Grand at Central Plaza Ladprao Bangkok {{flag|Chiang Mai}} 25 
7376558 Nikolay Anikin 15 km 50:58 7 Viktor Baranov 50 km 3:03:55 7 Minnevali Galiyev 15 km 52:49 18 Pavel Kolchin 15 km 50:17 {{bronze3}} Pavel Kolchin 30 km 1:45:45 {{bronze3}} 
7377620 {{Gold medal}} Charles Paddock Athletics Men's 100 m {{Silver medal}} Morris Kirksey Athletics Men's 100 m {{Gold medal}} Allen Woodring Athletics Men's 200 m {{Silver medal}} Charles Paddock Athletics Men's 200 m {{Silver medal}} Earl Eby Athletics Men's 800 m 
7379515 Week 1 Sacha Kljestan Chivas USA Week 2 Herculez Gomez Colorado Rapids Week 3 Jozy Altidore New York Red Bulls Week 4 Taylor Twellman New England Revolution Week 5 Chris Brown Real Salt Lake 
739388 2 Timewyrm: Exodus Terrance Dicks Ace, The War Chief, War Lords August 1991 3 Timewyrm: Apocalypse Nigel Robinson Ace October 1991 4 Timewyrm: Revelation Paul Cornell Ace December 1991 16 Shadowmind Christopher Bulis Ace, Bernice July 1993 19 Blood Heat Jim Mortimore Ace, Bernice, Silurians, Brigadier Lethbridge-Stewart, Liz Shaw, John Benton, Jo Grant October 1993 
7397233 500&nbsp;mm {{Track gauge|500mm|disp=1|lk=on|first=imp}} Austria Geriatriezentrum Am Wienerwald Feldbahn 533&nbsp;mm {{Track gauge|21in|first=imp|disp=1|lk=on}} England Pleasure Beach Express 711&nbsp;mm {{Track gauge|2ft4in|first=imp|disp=1|lk=on}} England Snailbeach District Railways 950&nbsp;mm {{Track gauge|950mm|first=imp|disp=1|lk=on}} Eritrea Eritrean Railway 950&nbsp;mm {{Track gauge|950mm|first=imp|disp=1|lk=on}} Libya Italian Libya Railways 
7415957 2001–02 Green Bay Gamblers USHL &nbsp; 61 24 33 57 122 &nbsp; 1 0 0 2006–07 Chicago Blackhawks NHL &nbsp; 9 0 0 0 2 &nbsp; — — — 2007–08 Chicago Blackhawks NHL &nbsp; 81 4 4 8 214 &nbsp; — — — 2008–09 Chicago Blackhawks NHL &nbsp; 66 6 3 9 93 &nbsp; 17 3 2 2009–10 Chicago Blackhawks NHL &nbsp; 13 1 3 4 14 &nbsp; 15 0 0 
7455909 2005 Logie Award Most Outstanding Actress {{nom}} Love My Way 2005 ASTRA Award Most Outstanding Performance by an Actor – Female {{nom}} Love My Way 2006 Australian Film Institute Awards Best Lead Actress in Television Drama {{nom}} Love My Way 2006 Logie Award Most Outstanding Actress {{nom}} Love My Way 2006 ASTRA Award Most Outstanding Performance by an Actor – Female {{nom}} Love My Way 
747973 1983–84 Winnipeg Warriors WHL  1 0 0 0 0  — — — 1984–85 Moose Jaw Warriors WHL  65 17 26 43 141  — — — 1985–86 Moose Jaw Warriors WHL  67 34 49 83 162  13 6 8 1986–87 Moose Jaw Warriors WHL  53 25 45 70 107  9 3 9 1986–87 Sherbrooke Canadiens AHL  — — — — —  9 2 2 
751354 MIN 1961 3 11 0 {{winpct|3|11|0}} 7th in NFL Western – – – – MIN 1962 2 11 1 {{winpct|2|11|1}} 6th in NFL Western – – – – MIN 1963 5 8 1 {{winpct|5|8|1}} 4th in NFL Western – – – – MIN 1964 8 5 1 {{winpct|8|5|1}} 2nd in NFL Western – – – – MIN 1965 7 7 0 {{winpct|7|7|0}} 5th in NFL Western – – – – 
7535019 1952–53 St. Catharines Teepees OHA-Jr.  56 21 22 43 34  3 0 1 1953–54 Springfield Indians QHL  39 3 14 17 6  — — — 1953–54 Syracuse Warriors AHL  28 7 14 21 4  — — — 1955–56 Springfield Indians AHL  57 18 16 34 42  — — — 1956–57 Springfield Indians AHL  64 22 36 58 2  — — — 
7552251 2018 Onanay Vincent "Vince" Delgado GMA Network 2018 Ika-5 Utos Richard Dela Fuenta GMA Network 2018 Hindi Ko Kayang Iwan Ka Anthony GMA Network 2017 Daig Kayo ng Lola Ko Mario GMA Network 2017 Trops Bastie GMA Network 
7555228 1963 8 SS Saint-Louisienne 36 JS Saint-Pierroise 34 1964 8 SS Saint-Louisienne 35 JS Saint-Pierroise 34 1965 10 SS Saint-Louisienne 49 SS Tamponnaise 44 1966 10 SS Saint-Louisienne 49 SS Tamponnaise 42 1971 10 JS Saint-Pierroise 41 SS Saint-Louisienne 36 
7555901 2019 Nang Ngumiti ang Langit Grace Andrada ABS-CBN 2018 Asintado Samantha Del Mundo / Katrina Ramirez ABS-CBN 2011 100 Days to Heaven teenage Madam Anna ABS-CBN 2009-2010 May Bukas Pa Lea ABS-CBN 2008-2009 Komiks Presents: Dragonna Rona / Olive ABS-CBN 
7580037 STS-1A
OFT-1 June 1979 Columbia Edwards Originally scheduled as the first orbital test. The crew was to consist of a commander and pilot, and the test flight was to last 2 days and 5 hours. No crew was named at the initial announcement of the mission, but John Young and Robert Crippen were officially announced as the STS-1 crew in March 1978, when the shuttle was still originally scheduled for a 1979 launch. STS-2A
OFT-2 July 1979
6 March 1980 Columbia Edwards Originally scheduled as the second orbital flight test. The 5-day mission was to see the crew of Fred Haise and Jack Lousma take the Teleoperator Retrieval System to the Skylab space station in order to boost it into a higher orbit. Vance D. Brand and C. Gordon Fullerton were their backups. By April 1979, when it was understood that the Shuttle could not be launched in time to rendezvous with Skylab, STS-2 was rescheduled for a 6 March 1980 launch, carrying the OSTA-1 payload and the RMS for the first time. This re-manifested STS-2 finally launched on 12 November 1981, with Joe Engle and Richard Truly in place of Haise and Lousma, respectively. STS-3
OFT-3 September 1979 Columbia Edwards Originally scheduled as the third orbital flight test. The 7-day mission was to see the two-man crew (commander and pilot) test shuttle maneuvering and remote manipulator systems. STS-4
OFT-4 December 1979 Columbia Edwards Originally scheduled as the fourth orbital flight test. The crew was to consist of a commander and pilot, and the mission was to last seven days. STS-5
OFT-5 February 1980 Columbia Kennedy Originally scheduled as the fifth orbital flight test. The crew was to consist of commander Ken Mattingly, pilot Henry Hartsfield and one or two mission specialists. The mission was to last 7 days. First landing at Kennedy Space Center. 
759285 1 1977 Uniroyal International Championship {{Nowrap|{{flagicon|ESP}} [[Seve Ballesteros]]}} Lost to birdie on first extra hole 2 1977 Skol Lager Individual {{Cslist | {{Nowrap|{{flagicon|WAL}} [[Craig Defoy]]}} | {{Nowrap|{{flagicon|ENG}} [[Chris Witcher]]}} }} Won with birdie on first extra hole 3 1983 Paco Rabanne Open de France {{Cslist | {{Nowrap|{{flagicon|ESP}} [[José María Cañizares]]}} | {{Nowrap|{{flagicon|ENG}} [[David J Russell]]}} }} Won with par on third extra hole
Russell eliminated by birdie on first hole 4 1983 Martini International {{Nowrap|{{flagicon|ESP}} [[José María Cañizares]]}} Won with par on third extra hole 5 1983 Ebel Swiss Open-European Masters {{Nowrap|{{flagicon|SCO}} [[Sandy Lyle]]}} Won with par on second extra hole 
75933 Academy Awards Best Actress Glenn Close {{nom}} Academy Awards Best Supporting Actress Michelle Pfeiffer {{nom}} Academy Awards Best Adapted Screenplay Christopher Hampton {{won}} Academy Awards Best Original Score George Fenton {{nom}} Academy Awards Best Costume Design James Acheson {{won}} 
7607469 1992 Sanfrecce Hiroshima J1 League – – 0 0 1 0 1 0 1993 Sanfrecce Hiroshima J1 League 15 0 0 0 0 0 15 0 1994 Sanfrecce Hiroshima J1 League 27 0 0 0 0 0 27 0 1995 Sanfrecce Hiroshima J1 League 37 0 0 0 – – 37 0 1996 Sanfrecce Hiroshima J1 League 25 0 5 0 14 0 44 0 
7612751 1987–88 HV71 SEL &nbsp; 13 1 2 3 0 &nbsp; 2 0 0 1988–89 HV71 SEL &nbsp; 19 1 6 7 2 &nbsp; 3 0 0 1989–90 HV71 SEL &nbsp; 39 12 15 27 8 &nbsp; — — — 1990–91 HV71 SEL &nbsp; 39 15 9 24 10 &nbsp; 2 1 1 1991–92 HV71 SEL &nbsp; 40 12 15 27 10 &nbsp; 3 1 0 
7630927 1 Madras North GEN C. Kuppusami File:Flag DMK.svg Dravida Munnetra Kazhagam 2 Madras Central GEN Murasoli Maran File:Flag DMK.svg Dravida Munnetra Kazhagam 3 Madras South GEN T. R. Baalu File:Flag DMK.svg Dravida Munnetra Kazhagam 8 Tiruppattur GEN D. Venugopal File:Flag DMK.svg Dravida Munnetra Kazhagam 10 Tindivanam GEN Gingee N. Ramachandran File:MDMK.svg Marumalarchi Dravida Munnetra Kazhagam 
7657074 1994 Frank Ordenewitz 30 JEF United Ichihara {{flagu|Germany}} 1995 Masahiro Fukuda 32 Urawa Red Diamonds {{flagu|Japan}} 1996 Kazuyoshi Miura 23 Verdy Kawasaki {{flagu|Japan}} 1997 Patrick Mboma 25 Gamba Osaka {{CMR}} 1999 Hwang Sun-Hong 24 Cerezo Osaka {{KOR}} 
7675480 1992 Shimizu S-Pulse J1 League - - 3 0 10 1 - - 13 1 1993 Shimizu S-Pulse J1 League 35 7 4 2 1 0 - - 40 9 1994 Shimizu S-Pulse J1 League 41 7 1 0 1 0 - - 43 7 1995 Shimizu S-Pulse J1 League 40 13 1 0 - - - - 41 13 1996 Shimizu S-Pulse J1 League 29 9 3 0 16 3 - - 48 12 
7680292 2006 CIN 11 5 31 21 10 1.0 0 2 0 0 0 0 0 0 0 2007 CIN 2 2 6 5 1 1.0 0 0 0 0 0 0 0 1 0 2009 SF 14 0 21 20 1 6.0 0 2 0 0 0 0 0 5 0 2008 SF 15 1 31 29 2 5.0 0 2 1 32 32.0 32 0 0 0 2011 SF 16 16 50 35 15 7.0 0 3 0 0 0 0 0 1 0 
771048 1990–91 Madison Capitols USHL &nbsp; 47 12 11 23 — 28 &nbsp; — — — — 1996–97 HPK SM-l &nbsp; 49 11 24 35 24 26 &nbsp; 10 6 5 11 1999–2000 New Jersey Devils NHL &nbsp; 75 5 27 32 21 28 &nbsp; 23 2 6 8 2000–01 New Jersey Devils NHL &nbsp; 78 9 43 52 36 26 &nbsp; 25 7 11 18 2001–02 New Jersey Devils NHL &nbsp; 76 7 40 47 15 18 &nbsp; 6 3 2 5 
7716791 Boston Massachusetts Logan International Airport December 14, 1956 1980  Gulfport Mississippi Gulfport-Biloxi Airport 1938 1959-60  Las Vegas Nevada McCarran International Airport June 11, 1961 1980  Newark New Jersey Newark Airport February 12, 1946 1980  Fayetteville North Carolina Fayetteville Municipal Airport 1956-57 1962  
7723430 1992 Sanfrecce Hiroshima J1 League - - 0 0 5 0 5 0 1993 Sanfrecce Hiroshima J1 League 0 0 0 0 0 0 0 0 1994 Sanfrecce Hiroshima J1 League 12 0 0 0 0 0 12 0 1995 Sanfrecce Hiroshima J1 League 44 5 3 0 - - 47 5 1996 Sanfrecce Hiroshima J1 League 17 2 5 0 8 1 30 3 
7754900 1955–56 Eastern 2–1 Kitchee Government Stadium 24,500 1973–74 Seiko 3–1 South China Government Stadium  1975–76 Seiko 2–0 Rangers Government Stadium 28,258 1976–77 Seiko 2–1 South China Government Stadium 28,137 1990–91 South China 1–0 Lai Sun Government Stadium 21,915 
7777948 1998 {{Sort|Canada 02|{{ihw|CAN}}}} {{small|(2)}} {{Sort|United States 02|{{ihw|USA}}}} {{small|(2)}} {{Sort|Finland 03|{{ihw|FIN}}}} {{small|(3)}} — Kuortane {{Country|Finland}} 2000 {{Sort|Canada 04|{{ihw|CAN}}}} {{small|(4)}} {{Sort|United States 04|{{ihw|USA}}}} {{small|(4)}} {{Sort|Finland 05|{{ihw|FIN}}}} {{small|(5)}} {{Sort|Sweden 01|{{ihw|SWE}}}} {{small|(1)}} Provo {{Country|United States}} 2004 {{Sort|Canada 07|{{ihw|CAN}}}} {{small|(7)}} {{Sort|United States 06|{{ihw|USA}}}} {{small|(6)}} {{Sort|Sweden 02|{{ihw|SWE}}}} {{small|(2)}} {{Sort|Finland 01|{{ihw|FIN}}}} {{small|(1)}} Lake Placid {{Country|United States}} 2006 {{Sort|Canada 09|{{ihw|CAN}}}} {{small|(9)}} {{Sort|United States 08|{{ihw|USA}}}} {{small|(8)}} {{Sort|Sweden 03|{{ihw|SWE}}}} {{small|(3)}} {{Sort|Finland 02|{{ihw|FIN}}}} {{small|(2)}} Kitchener {{Country|Canada}} 2007 {{Sort|Canada 10|{{ihw|CAN}}}} {{small|(10)}} {{Sort|United States 09|{{ihw|USA}}}} {{small|(9)}} {{Sort|Finland 09|{{ihw|FIN}}}} {{small|(9)}} {{Sort|Sweden 05|{{ihw|SWE}}}} {{small|(5)}} Leksand {{Country|Sweden}} 
7803903 1966 Jesenice Yugoslavia 3rd place in Group C (19th) 2007 Dundalk Ireland 4th place in Division III (44th) 2008 Luxembourg City Luxembourg Silver in Division III (42nd) 2009 Sofia Bulgaria 6th in Division II Group B (40th) 2010 Yerevan Armenia Bronze in Division III Group B (44th) 
7832537 Arizona Diamondbacks Buck Showalter 3rd season Atlanta Braves Bobby Cox 11th season Chicago Cubs Don Baylor 1st season Cincinnati Reds Jack McKeon 4th season Colorado Rockies Buddy Bell 1st season 
7837276 2006 Formula 3 Euro Series Manor Motorsport 20 0 1 36 7th 2006 Macau Grand Prix Manor Motorsport 1 0 0 N/A NC 2006 Masters of Formula 3 Manor Motorsport 1 0 0 N/A 26th 2007 GP2 Series DAMS 21 1 0 44 5th 2012 FIA World Endurance Championship Toyota Racing 3 1 1 44 13th 
7869873 1 Netherlands Jeroen Bleekemolen 16 1:00.093 -- 3 Italy Enrico Toccacelo 14 1:00.942 + 0.849 4 Canada James Hinchcliffe 11 1:01.103 + 1.010 6 Brazil Raphael Matos 18 1:01.306 + 1.213 8 Great Britain Oliver Jarvis 19 1:01.404 + 1.311 
7880722 1992 Kashima Antlers J1 League - - 3 0 10 0 - - 13 0 1993 Kashima Antlers J1 League 35 0 5 0 6 0 - - 46 0 1994 Kashima Antlers J1 League 43 0 1 0 1 0 - - 45 0 1995 Kashima Antlers J1 League 49 3 4 0 - - - - 53 3 1996 Kashima Antlers J1 League 29 0 3 0 13 0 - - 45 0 
7881617 Beallsville Blue Devils Beallsville, Ohio Royal Blue, White
{{color box|blue}} {{color box|white}} 1960 A Beaver Local Beavers East Liverpool, Ohio Red, White
{{color box|red}} {{color box|white}} 1991 AAAA Brooke Bruins Wellsburg, West Virginia Green, Gold
{{color box|#228B22}} {{color box|gold}} 1969 AAAAA Buckeye Trail Warriors Lore City, Ohio Royal Blue, White
{{color box|blue}} {{color box|red}} 1977 AAA Clay-Battelle Cee-Bees Blacksville, West Virginia Navy, Grey
{{color box|navy}} {{color box|grey}} 2011 AA 
7887004 1991–92 New York Islanders NHL &nbsp; 15 3 5 8 0 &nbsp; — — — 1992–93 Capital District Islanders AHL &nbsp; 10 4 12 16 2 &nbsp; — — — 1992–93 New York Islanders NHL &nbsp; 56 10 20 30 24 &nbsp; 3 0 1 1993–94 New York Islanders NHL &nbsp; 81 25 31 56 24 &nbsp; 4 0 0 1994–95 New York Islanders NHL &nbsp; 41 9 7 16 8 &nbsp; — — — 
789371 Abruzzo 2014 {{N/A}} {{N/A}} {{Composition bar|0|31|hex={{Pensioners' Party (Italy)/meta/color}}}} Apulia 2015 {{N/A}} {{N/A}} {{Composition bar|0|51|hex={{Pensioners' Party (Italy)/meta/color}}}} Calabria 2014 {{N/A}} {{N/A}} {{Composition bar|0|30|hex={{Pensioners' Party (Italy)/meta/color}}}} Campania 2015 {{N/A}} {{N/A}} {{Composition bar|0|51|hex={{Pensioners' Party (Italy)/meta/color}}}} Emilia-Romagna 2014 {{N/A}} {{N/A}} {{Composition bar|0|50|hex={{Pensioners' Party (Italy)/meta/color}}}} 
7898583 1999 Levadia 4–1 Flora Kadriorg Stadium 2000 Levadia 2–1 (a.e.t.) Tulevik Kuressaare linnastaadion 2001 Levadia 2–0 Narva Trans Narva Kreenholm Stadium 2001 Levadia 3–0{{Cref2|A|1}} (5–0 agg.) Narva Trans Lilleküla artificial turf 2002 Flora 1–1 (4–2 p) Levadia II Lilleküla artificial turf 
7899868 4 Netherlands Jeroen Bleekemolen 15 + 6.356 3 5 Switzerland Neel Jani 15 + 10.697 2 9 Great Britain Robbie Kerr 15 + 19.916  10 Indonesia Ananda Mikola 15 + 20.871  12 Italy Enrico Toccacelo 15 + 23.917  
7901251 1 Malaysia Alex Yoong 12 17'44.563 6 2 Great Britain Oliver Jarvis 12 + 2.138 5 3 Australia Ian Dyk 12 + 6.346 4 5 USA Jonathan Summerton 12 + 9.440 2 6 China Ho-Pin Tung 12 + 12.033 1 
7901468 1 Great Britain Robbie Kerr 15 18'51.354 6 3 Italy Enrico Toccacelo 15 + 13.523 4 5 Malaysia Alex Yoong 15 + 21.735 2 6 Netherlands Jeroen Bleekemolen 15 + 22.191 1 7 India Narain Karthikeyan 15 + 22.558  
7963395 2004–05 St. Thomas Stars WOHL &nbsp; 48 24 22 46 — &nbsp; — — — 2008–09 Worcester Sharks AHL &nbsp; 4 0 0 0 7 &nbsp; 12 2 1 2009–10 Worcester Sharks AHL &nbsp; 42 20 33 53 12 &nbsp; — — — 2009–10 San Jose Sharks NHL &nbsp; 25 5 4 9 6 &nbsp; 15 4 0 2010–11 San Jose Sharks NHL &nbsp; 79 32 24 56 41 &nbsp; 18 7 7 
8000999 1975 Niki Lauda Ferrari Report 1967 Mike Parkes Ferrari Report 1965 Jackie Stewart BRM Report 1962 Graham Hill BRM Report 1957 Jean Behra BRM Report 
8025028 2005 UzL 8th R16 Umid Isoqov: 6 2006 UzL 8th R16 Bahodir Nasimov: 9 2007 UzL 5th {{Frac|1|4}} Farhod Tadjiyev: 20 2008 UzL 6th {{Frac|1|4}} Ilyos Qurbonov: 11 2009 UzL 9th R16  
8025259 1992 1st 8 R32  1993 1st 11 R32  1994 1st 7 R16 Ravshan Shukurov&nbsp;– 18 1998 UzL 13 R32  1999 UzL 8   
8026087 2003–04 Avangard Omsk RSL  5 1 0 1 0  &nbsp;— &nbsp;— &nbsp;— 2004–05 Avangard Omsk RSL  1 0 0 0 0  &nbsp;— &nbsp;— &nbsp;— 2004–05 Calgary Hitmen WHL  69 22 30 52 50  12 2 5 2005–06 Los Angeles Kings NHL  1 0 1 1 0  &nbsp;— &nbsp;— &nbsp;— 2006–07 Los Angeles Kings NHL  16 2 2 4 8  &nbsp;— &nbsp;— &nbsp;— 
8033424 Jul 21, 2011 World Cup of Softball Oklahoma City, OK {{sbw|USA}} 7-2 {{sbw|CZE}} 1-0 Jul 22, 2011 World Cup of Softball Oklahoma City, OK {{sbw|USA}} 5-2 {{sbw|AUS}} 2-0 Jul 23, 2011 World Cup of Softball Oklahoma City, OK {{sbw|CAN}} 4-3 {{sbw|USA}} 2-1 Jul 23, 2011 World Cup of Softball Oklahoma City, OK {{sbw|USA}} 8-4 {{sbw|JPN}} 3-1 Jul 24, 2011 World Cup of Softball Oklahoma City, OK {{sbw|USA}} 10-0 (4) {{sbw|GBR}} 4-1 
8103091 2005 Patrick Horgan 1-14 17 2007 Patrick Horgan 4-21 33 2008 Patrick Horgan 1-43 46 2009 Patrick Horgan 0-25 25 2010 Patrick Horgan 6-62 80 
810967 2004 Scooby-Doo! and the Loch Ness Monster Velma Dinkley Direct-to-video film 2008 Scooby-Doo! and the Goblin King Velma Dinkley Direct-to-video film 2009 Scooby-Doo! and the Samurai Sword Velma Dinkley Direct-to-video film 2010 Scooby-Doo! Abracadabra-Doo Velma Dinkley Direct-to-video film 2010–13 Scooby-Doo! Mystery Incorporated Velma Dinkley TV series (52 episodes) 
8117189 Damascus University DU Damascus 1923 damascusuniversity.edu.sy University of Aleppo AU Aleppo 1958 alepuniv.edu.sy Tishreen University TU Latakia 1971 tishreen.edu.sy Higher Institute for Dramatic Arts HIDA Damascus 1977  Al-Baath University BU Homs 1979 albaath-univ.edu.sy 
8152873 1 Thiago Medeiros {{BRA}} Sam Schmidt Motorsports 513 42 52 52 52 52 30 42 28 35 52 24 52 2 Paul Dana {{USA}} Hemelgarn Racing 379 24 30 20 40 40 50 32 40 42 24 18 19 4 P. J. Chesson {{USA}} Mo Nunn Racing 317 - - - 24 28 40 50 50 50 30 40 5 14 James Chesson {{USA}} Mo Nunn Racing 95 - - - - - - - - - 28 50 17 15 Travis Gregg {{USA}} Sam Schmidt Motorsports 89 - - - - - - - 32 - 17 - 40 
8209986 {{jct|country=GBR|A|305|name1= }} East Sheen Twickenham  {{jct|country=GBR|A|306|name1= }} Hammersmith Roehampton  {{jct|country=GBR|A|307|name1= }} Kew Cobham  {{jct|country=GBR|A|308|name1= }} Brompton Maidenhead Exists in three sections, one from Brompton to Chelsea, the second from Chelsea to north of Putney Bridge, and the third from the Robin Hood junction at Kingston Vale to Maidenhead. {{jct|country=GBR|A|309|name1= }} Twickenham Hook, London Runs in two sections, one in Twickenham and Teddington as a non primary road and a longer primary section from Hampton Court to Hook. 
8246804 {{jct|country=GBR|A|600|name1= }} Hitchin Bedford Runs through Shortstown and Cotton End. Originally started in Welwyn, but the section south of Hitchin is now B656, Codicote Road, High Street, and London Road. {{jct|country=GBR|A|602|name1= }} Hitchin Ware  {{jct|country=GBR|A|603|name1= }} Bedford Cambridge Section from Sandy to New Wimpole (on the A1198) downgraded to B1042. {{jct|country=GBR|A|606|name1= }} Stamford West Bridgford  {{jct|country=GBR|A|607|name1= }} Leicester Grantham  
8248653 Andhra Pradesh Hyderabad Hyderabad  Kurnool Nandyal  Medak Sangareddy  Mahbubnagar Nagarkurnool Karnataka Gulbarga Gulbarga, Bagalkot 
8252650 1973 Tom LaGarde Michigan  1983 Joe Wolf Wisconsin  1987 Henrik Rodl North Carolina  1987 King Rice New York  1990 Clifford Rozier Florida Transferred to Louisville 
8280565 2018 Dr. Crokes 1-21 Kerry St Josephs, Milltown Malbay 2-09 Clare 2017 Nemo Rangers 0-16 Cork Dr. Crokes 0-11 Kerry 2016 Dr. Crokes 3-15 Kerry The Nire 0-6 Waterford 2015 Clonmel Commercials 1-7 Tipperary Nemo Rangers 0-9 Cork 2014 Austin Stacks 3-5 Kerry The Nire 2-4 Waterford 
8330373 1992 Sanfrecce Hiroshima J1 League - - 0 0 0 0 0 0 1993 Sanfrecce Hiroshima J1 League 19 0 2 0 0 0 21 0 1994 Sanfrecce Hiroshima J1 League 40 4 3 1 1 0 44 5 1995 Sanfrecce Hiroshima J1 League 50 0 5 0 - - 55 0 1996 Sanfrecce Hiroshima J1 League 29 0 5 1 14 0 48 1 
8349534 1938–39 Brandon Elks MJHL  15 — — — 900 44 1 1941–42 New York Rangers NHL  48 29 17 2 2960 143 1 1942–43 Ottawa Commandos QSHL  23 — — — 1380 84 1 1945–46 New York Rangers NHL  11 1 7 2 623 42 1 1945–46 New Haven Ramblers AHL  25 8 15 2 1500 96 1 
8352972 2007–08 University of Michigan CCHA  39 30 26 56 24  — — — 2007–08 San Antonio Rampage AHL  — — — — —  7 4 2 2008–09 San Antonio Rampage AHL  76 20 30 50 47  — — — 2009–10 San Antonio Rampage AHL  59 17 18 35 41  — — — 2009–10 Syracuse Crunch AHL  17 9 6 15 14  — — — 
841963 Hanshan Handan 385,626 Congtai Handan 363,778 Fuxing Handan 192,023 Fengfeng Handan 503,911 Feixiang Handan 351,690 
842144 221-222 Battle of Xiaoting Liu Bei Lu Xun 40,000 50,000 Lu Xun 227-228 Xincheng Rebellion Meng Da Sima Yi   Sima Yi 228 Tianshui revolts Zhuge Liang Cao Zhen 60,000 50,000 Inconclusive 228 Battle of Jieting Zhang He Ma Su   Zhang He 228 Battle of Shiting Lu Xun Cao Xiu   Lu Xun 
842343 1994–95 Gloucester Rangers CJHL  20 10 6 0 — 1034 70 0 4.06   — — — — — — 1995–96 Detroit Whalers OHL  23 13 6 0 — 1139 71 1 3.74 .876  3 0 2 105 4 0 1996–97 Detroit Whalers OHL  58 24 28 2 — 3241 206 2 3.81 .878  5 1 4 317 19 0 1997–98 Plymouth Whalers OHL  48 29 13 4 — 2810 135 3 2.88 .896  15 8 7 868 45 0 1998–99 Springfield Falcons AHL  55 24 20 6 — 2957 138 1 2.80 .905  1 0 1 59 4 0 
8435323 Candie Kung Int'l 1 up Paula Creamer Meena Lee Halved Angela Stanford Jee Young Lee Asia 5&4 Morgan Pressel Shi Hyun Ahn Int'l 4&3 Stacy Prammanasudh Young Kim Asia 3&2 Carin Koch 
8437750 2000–01 Tappara SM-l  56 10 11 21 72  10 0 2 2001–02 Tappara SM-l  56 11 18 29 76  10 1 2 2002–03 Tappara SM-l  55 4 13 17 52  14 2 1 2003–04 Edmonton Oilers NHL  3 0 1 1 0  — — — 2003–04 Toronto Roadrunners AHL  65 4 22 26 54  3 1 0 
8439409 1941 Juan Sumulong Rizal Manuel L. Quezon {{No}} 1957 Jose Yulo Negros Occidental Carlos P. Garcia {{No}} 1957 Manuel Manahan La Union Jose Yulo {{No}} 1981 Alejo Santos Bulacan Ferdinand Marcos {{No}} 1992 Jovito Salonga Rizal Miriam Defensor-Santiago {{No}} 
844462 Youhao Yichun 53,409 Yimei Yichun {{small|''not established''}} Wucui Yichun {{small|''not established''}} Jinlin Yichun {{small|''not established''}} Jiayin Yichun 68,566 
8461329 1. Berry Powel De Graafschap 29 2. Harrie Gommans MVV 22 3. Jhonny van Beukering De Graafschap 21 3. Cecilio Lopes FC Dordrecht 20 5. Dirk Jan Derksen VVV-Venlo 19 
8462139 28 2007 D-War Shim Hyung-rae 29 2008 The Good, the Bad, the Weird Kim Jee-woon 32 2011 War of the Arrows Kim Han-min 33 2012 The Thieves Choi Dong-hoon 34 2013 Miracle in Cell No. 7 Lee Hwan-kyung 
8509571 2004–05 Partizan SuperLiga 2 0 0 0 0 0 2 0 2005–06 Partizan SuperLiga 15 1 1 0 0 0 16 1 2006–07 Partizan SuperLiga 31 0 3 1 8 0 42 1 2007–08 Espanyol La Liga 30 0 4 0 –– –– 34 0 2008–09 Espanyol La Liga 17 0 5 0 –– –– 22 0 
851903 1984 Blood Simple Joel Coen
Ethan Coen 1st collaboration with Coen brothers 1985 A Hero of Our Time Michael Almereyda Short film 1986 Psycho III Anthony Perkins Psycho themes by Bernard Herrmann 1987 Raising Arizona Joel Coen
Ethan Coen 2nd collaboration with Coen brothers 1988 Pass the Ammo David Beaird {{N/A}} 
859606 Aosta Valley 2018 {{N/A}} {{N/A}} {{Composition bar|0|35|hex={{Italy of Values/meta/color}}}} – Piedmont 2014 13,658 (13th) 0.7 {{Composition bar|0|50|hex={{Italy of Values/meta/color}}}} {{decrease}} 3 Lombardy 2018 into CP – {{Composition bar|0|80|hex={{Italy of Values/meta/color}}}} – South Tyrol 2018 {{N/A}} {{N/A}} {{Composition bar|0|35|hex={{Italy of Values/meta/color}}}} – Trentino 2018 {{N/A}} {{N/A}} {{Composition bar|0|35|hex={{Italy of Values/meta/color}}}} – 
860924 Bear Mountain Wind Park 120 Dawson Creek British Columbia Centennial Wind Power Facility 150 Swift Current Saskatchewan Enbridge Ontario Wind Farm 181 Kincardine Ontario Erie Shores Wind Farm 99 Port Burwell Ontario Kent Hills Wind Farm 96 Riverside-Albert New Brunswick 
861832 1969 {{Composition bar|8|144|hex=#FF0000}} 178,971 7.5% {{decrease}}1 seat; Opposition Lim Chong Eu 1974 {{Composition bar|5|144|hex=#FF0000}}   {{decrease}}3 seats; Governing coalition {{small|([[Barisan Nasional]])}} Lim Chong Eu 1978 {{Composition bar|4|154|hex=#FF0000}}   {{decrease}}1 seat; Governing coalition {{small|([[Barisan Nasional]])}} Lim Chong Eu 1982 {{Composition bar|5|154|hex=#FF0000}}   {{increase}}1 seat; Governing coalition {{small|([[Barisan Nasional]])}} Lim Keng Yaik 1986 {{Composition bar|5|177|hex=#FF0000}}   {{steady}}; Governing coalition {{small|([[Barisan Nasional]])}} Lim Keng Yaik 
8621385 Crnogorska Enciklopedija Montenegrin General interest (hopes to encourage a Montenegrin language Wikipedia) Defunct Croatian Encyclopedia Croatian General and national encyclopedia Free Doosan Encyclopedia Korean General interest Free Encyklopedia Internautica Polish General interest Free Encyclopedia Sindhiana Sindhi General interest Limited free access and features 
869753 SP 3005 Nat Adderley You, Baby SP 3006 Wes Montgomery Down Here on the Ground SP 3012 Wes Montgomery Road Song SP 3017 Nat Adderley Calling Out Loud SP 3018 Walter Wanderley When It Was Done 
8700405 2008 Gary Thorne Dave Campbell Marc Kestecher 2009 Gary Thorne Dave Campbell Marc Kestecher 2010 Jon Sciambi Dave Campbell Marc Kestecher 2011 Jon Sciambi Chris Singleton Marc Kestecher 2012 Jon Sciambi Chris Singleton Marc Kestecher 
870962 – 1985 Paris France 18–19 January 1985 Palais Omnisports de Paris-Bercy 24 69 319 {{flag|East Germany}} 1 1987 Indianapolis United States 6–8 March 1987 Hoosier Dome 24 85 419 {{flag|Soviet Union}} 2 1989 Budapest Hungary 3–5 March 1989 Budapest Sportcsarnok 24 62 373 {{flag|Soviet Union}} 3 1991 Seville Spain 8–10 March 1991 Palacio Municipal de Deportes San Pablo 26{{efn|+1 non-championship event}} 80 518 {{flag|Soviet Union}} 4 1993 Toronto Canada 12–14 March 1993 SkyDome 27{{efn|+4 non-championship events}} 93 537 {{flag|Russia}} 
8711122 1956-09-21 Whims of Chambers Paul Chambers Blue Note 1956-12-00 1956-11-30 Mating Call Tadd Dameron Prestige 1957 1957-04-19, 1957-09-20 The Dealers Mal Waldron Prestige 1964 1957-11-15 Soul Junction Red Garland Prestige 1960 1957-12-20 The Ray Draper Quintet featuring John Coltrane Ray Draper New Jazz 1958 
876551 1982 Real Sociedad 1981–82 La Liga 0–1 Real Madrid 1981–82 Copa del Rey 1982 Real Sociedad 1981–82 La Liga 4–0 Real Madrid 1981–82 Copa del Rey 1983 Barcelona 1982–83 Copa del Rey 3–1 Athletic Bilbao 1982–83 La Liga 1983 Barcelona 1982–83 Copa del Rey 0–1 Athletic Bilbao 1982–83 La Liga 1988 Real Madrid 1987–88 La Liga 2–0 Barcelona 1987–88 Copa del Rey 
8779679 1914 Alberto Ohaco Racing Club 20  1931 LAF {{efn|The [[Liga Argentina de Football]] (LAF) was a dissident league that organised the first professional championships from 1931 to 1934. In 1935 it merged with the official AFA league (that remained amateur). As a result, all the AFA teams were relegated to the second division.}} Alberto Zozaya Estudiantes 33 34 1936 (CH) {{efn|Copa de Honor}} Alberto Zozaya Estudiantes (LP) 16  1955 Oscar Massei Rosario Central 21 30 1974 Nac Mario Kempes Rosario Central 25 25 
8830646 2002–03 Salmon Arm Silverbacks BCHL  52 13 39 52 34  8 0 8 2003–04 Bowling Green Falcons CCHA  37 3 12 15 26  2 0 0 2004–05 Bowling Green Falcons CCHA  35 3 13 16 36  2 0 1 2005–06 Providence Bruins AHL  75 9 27 36 59  6 2 1 2006–07 Providence Bruins AHL  50 9 13 22 37  — — — 
8854158 8 Allan Caidic Presto Tivoli 4 Hector Calma San Miguel Beermen 15 Rey Cuenco Añejo Rum 65 12 Yves Dignadice San Miguel Beermen 10 Ramon Fernandez San Miguel Beermen 
8886239 London BBC London News 950 954 East Midlands BBC East Midlands Today 952 960 North West BBC North West Today/BBC North West Tonight 955 958 Northern Ireland BBC Newsline 957 953 South East BBC South East Today 959 963 
8886653 Nathan Bracken RHB, LFM New South Wales Matthew Hayden LHB, RM Queensland Brad Hodge RHB, OB Victoria Brad Hogg LHB, SLC Western Australia Phil Jaques LHB, LM New South Wales 
8887452 1999-00 CS Constantine Division 2 - - - - - - - - 2000–01 CS Constantine Division 1 - - - - — — - - 2001–02 JS Kabylie Division 1 25 4 - - - - - - 2002–03 Ajaccio Ligue 1 7 2 - - 0 0 7 2 2003–04 Ajaccio Ligue 1 5 0 0 0 0 0 5 0 
8889455 2006 Gotham Awards Breakthrough Director The King {{nom}}  2008 Alliance of Women Film Journalists Best Documentary Man on Wire {{won}}  2008 European Film Awards Best Documentary Man on Wire {{nom}}  2008 Gotham Independent Film Awards 2008 Best Documentary Man on Wire {{nom}}  2009 Academy Awards Best Documentary Man on Wire {{won}}  
8914181 2000–01 Slavia Sofia A Group 5 0 ? ? — — 5 0 2001–02 Slavia Sofia A Group 24 3 ? ? — — 24 3 2002–03 Slavia Sofia A Group 24 4 ? ? — — 24 4 2003–04 Slavia Sofia A Group 21 10 ? ? — — 21 10 2004–05 Slavia Sofia A Group 27 8 ? ? — — 27 8 
8920561 2000 23 Jan 2000 {{flagicon|AUT}} Kitzbühel, Austria Slalom 2000 9 Mar 2000 {{flagicon|AUT}} Schladming, Austria Slalom 2001 19 Dec 2000 {{flagicon|ITA}} Madonna di Campiglio, Italy Slalom 2002 26 Nov 2001 {{flagicon|USA}} Aspen, USA Slalom 2005 13 Mar 2005 {{flagicon|SUI}} Lenzerheide, Switzerland Slalom 
8928526 Eddie Jordan Racing Reynard Mugen Honda 1 Emanuele Naspetti 1-3, 5-10 Eddie Jordan Racing Reynard Mugen Honda 1 Vincenzo Sospiri 4, 11 Eddie Jordan Racing Reynard Mugen Honda 2 Eddie Irvine All Eddie Jordan Racing Reynard Mugen Honda 3 Heinz-Harald Frentzen All First Racing Reynard Mugen Honda 4 Fabrizio Giovanardi All 
893143 1991–92 Torpedo Ust-Kamenogorsk CIS  1    — 20 1 0 3.00   — — — — — — 1996–97 Dynamo Moscow RSL  27    — 1588 56 2 2.12   4   255 12 0 1997–98 Kentucky Thoroughblades AHL  33 10 21 2 — 1866 122 0 3.92 .872  1 0 0 23 1 2.59 1998–99 Kentucky Thoroughblades AHL  43 26 14 1 — 2429 106 5 2.62 .909  11 6 5 599 30 2 1999–2000 San Jose Sharks NHL  11 2 2 1 — 415 15 1 2.17 .910  1 0 0 20 0 0 
9021087 7th Regiment New London, Connecticut Modern 2003&ndash;present {{Official website | http://www.7thregiment.org}} 27th Lancers Revere, Massachusetts Classic/Modern 1967&ndash;1986 {{Official website | http://www.27thlancers.net}} 84th Bucktail Regiment Emporium, Pennsylvania Modern 1974&ndash;1976 {{Official website | https://web.archive.org/web/20020824120152/http://www.geocities.com/bucktailregiment/index.html}} The Academy Tempe, Arizona Modern 2001&ndash;present {{Official website | http://www.arizonaacademy.org}} Anaheim Kingsmen Anaheim, California Classic/Modern 1963&ndash;1986  
9022176 1989 Tony Award Best Actor Philip Bosco {{win}} 1989 Tony Award Best Actor Victor Garber {{nom}} 1989 Tony Award Best Featured Actress Tovah Feldshuh {{nom}} 1989 Tony Award Best Scenic Design Tony Walton {{nom}} 1989 Tony Award Best Costume Design William Ivey Long {{nom}} 
9034070 1948 1,858,116 (3rd) 7.7 {{Composition bar|33|574|hex={{Italian Democratic Socialist Party/meta/color}}}} – Giuseppe Saragat 1953 1,222,957 (6th) 4.5 {{Composition bar|14|590|hex={{Italian Democratic Socialist Party/meta/color}}}} {{decrease}} 19 Giuseppe Saragat 1958 1,345,447 (5th) 4.6 {{Composition bar|22|596|hex={{Italian Democratic Socialist Party/meta/color}}}} {{increase}} 8 Giuseppe Saragat 1963 1,876,271 (5th) 6.1 {{Composition bar|33|630|hex={{Italian Democratic Socialist Party/meta/color}}}} {{increase}} 11 Giuseppe Saragat 1968 Into PSU – {{Composition bar|91|630|hex={{Italian Democratic Socialist Party/meta/color}}}} {{increase}} 58 Giuseppe Saragat 
9067264 2003 3rd overall Andre Johnson WR Miami (FL) 2004 10th overall Dunta Robinson CB South Carolina 2005 16th overall (from New Orleans) Travis Johnson DT Florida State 2006 1st overall Mario Williams DE North Carolina State 2007 10th overall (from Atlanta) Amobi Okoye DT Louisville 
9132428 Petar Naumoski 29.4 EuroBasket 1997 qualification Petar Naumoski 30.5 EuroBasket 1999 qualification Petar Naumoski 15.0 EuroBasket 1999 Vrbica Stefanov 21.2 EuroBasket 2001 qualification Petar Naumoski 19.3 EuroBasket 2003 qualification 
914488 1994 GB 14 5 15 3.0 5 0 1 0 0 1995 GB 15 36 120 3.3 22 3 18 0 0 1996 GB 16 121 566 4.7 24 5 31 2 0 1997 GB 16 329 1,435 4.4 52 7 68 5 3 1998 GB 7 115 378 3.3 50 1 20 0 0 
9185254 1 Charles Kingston &nbsp; Protectionist Barton Minister for Trade and Customs {{start date|1901|1|1|df=y}} {{end date|1903|7|24|df=y}} {{age in years and days|1901|1|1|1903|7|24}} 2 William Lyne &nbsp; Protectionist Barton Minister for Trade and Customs {{start date|1903|8|11|df=y}} {{end date|1903|9|24|df=y}} {{age in days|1903|8|11|1904|4|27}} days 2 William Lyne &nbsp; Protectionist Deakin Minister for Trade and Customs {{start date|1903|9|24|df=y}} {{end date|1904|4|27|df=y}} {{age in days|1903|8|11|1904|4|27}} days 3 Andrew Fisher &nbsp; Labor Watson Minister for Trade and Customs {{start date|1904|4|27|df=y}} {{end date|1904|8|17|df=y}} {{age in days|1904|4|27|1904|8|17}} days 5 William Lyne &nbsp; Protectionist Deakin Minister for Trade and Customs {{start date|1905|7|5|df=y}} {{end date|1907|7|30|df=y}} {{age in years and days|1905|7|5|1907|7|30}} 
9242450 1995 Oberstdorf Andrejs Vlascenko Ronny Winkler Mirko Eichhorn  1996 Berlin Andrejs Vlascenko Ronny Winkler Michael Hopfes  1997 Oberstdorf Andrejs Vlascenko Michael Hopfes Jens ter Laak  1999 Oberstdorf Andrejs Vlascenko Stefan Lindemann Michael Hopfes  2000 Berlin Stefan Lindemann Michael Hopfes Silvio Smalun  
9247454 Orange County Blue Star 2004 PDL 6 4 0 0 – – – – 6 Orange County Blue Star 2005 PDL 1 1 0 0 0 0 – – 1 Orange County Blue Star 2006 PDL 8 2 1 1 – – – – 9 Columbus Crew 2007 MLS 4 0 – – 0 0 – – 4 Columbus Crew 2008 MLS 26 5 4 1 0 0 – – 30 
9251271 Adelaide Lleyton Hewitt Thomas Enqvist 3–6, 6–3, 6–2 Auckland Magnus Norman Michael Chang 3–6, 6–3, 7–5 Sydney Lleyton Hewitt Jason Stoltenberg 6–4, 6–0 Dubai Nicolas Kiefer Juan Carlos Ferrero 7–5, 4–6, 6–3 Marseille Marc Rosset Roger Federer 2–6, 6–3, 7–6(7–5) 
925740 4 Feb 1948 Wed 12 Jan
&nbsp;
18 Feb 13th 1,211 5th GI John A. Costello  Fine Gael 4 Feb 1948 Wed 12 Jan
&nbsp;
18 Feb 13th 1,211 5th GI John A. Costello  Clann na Poblachta 4 Feb 1948 Wed 12 Jan
&nbsp;
18 Feb 13th 1,211 5th GI John A. Costello  Clann na Talmhan 4 Feb 1948 Wed 12 Jan
&nbsp;
18 Feb 13th 1,211 5th GI John A. Costello  Independent 18 May 1954 Tue 24 Apr
4 May
2 Jun 15th 1,022 7th GI John A. Costello  Fine Gael 
931074 2004 Hungarian International Sergey Ivlev {{flagicon|WAL}} Matthew Hughes
{{flagicon|WAL}} Martyn Lewis 15–3, 15–2 {{gold1}} Winner 2004 Slovak International Sergey Ivlev {{flagicon|SWE}} Imanuel Hirschfeldt
{{flagicon|SWE}} Jörgen Olsson 15–13, 6–15, 15–7 {{gold1}} Winner 2003 Austrian International Stanislav Pukhov {{flagicon|POL}} Robert Mateusiak
{{flagicon|POL}} Michał Łogosz 6–15, 17–16, 11–15 {{silver2}} Runner-up 2002 Welsh International Stanislav Pukhov {{flagicon|ENG}} Peter Jeffrey
{{flagicon|ENG}} Julian Robertson 15–3, 15–11 {{gold1}} Winner 2002 Hungarian International Stanislav Pukhov {{flagicon|RUS}} Evgenij Isakov
{{flagicon|RUS}} Andrej Zholobov 15–17, 15–3, 15–5 {{gold1}} Winner 
9325146 2007 SK Wyverns {{small|(2, 1–1)}} Kim Sung-keun 4–2 Doosan Bears {{small|(6, 3–3)}} Kim Kyung-moon Kim Jae-hyun (SK-OF)  2008 SK Wyverns {{small|(3, 2–1)}} Kim Sung-keun 4–1 Doosan Bears {{small|(7, 3–4)}} Kim Kyung-moon Choi Jeong (SK-3B)  2009 Kia Tigers {{small|(10, 10–0)}} Cho Beom-hyeon 4–3 SK Wyverns {{small|(4, 2–2)}} Kim Sung-keun Na Ji-wan (Kia-LF)  2010 SK Wyverns {{small|(5, 3–2)}} Kim Sung-keun 4–0 Samsung Lions {{small|(12, 4–9)}} Sun Dong-yol Park Jung-kwon (SK-1B/RF)  2011 Samsung Lions {{small|(13, 5–9)}} Ryu Joong-il 4–1 SK Wyverns {{small|(6, 3–3)}} Lee Man-soo Oh Seung-hwan (Samsung-P)  
933484 1959 Arie van Houwelingen cycling Sjoukje Dijkstra figure skating 1960 Eef Kamerbeek athletics Sjoukje Dijkstra figure skating 1962 Henk Nijdam cycling Sjoukje Dijkstra figure skating 1963 Peter Post cycling Sjoukje Dijkstra figure skating 1964 Anton Geesink judo Sjoukje Dijkstra figure skating 
9346921 1 John Forrest &nbsp; Protectionist Barton Postmaster-General {{start date|1901|1|1|df=y}} {{end date|1901|1|17|df=y}} {{age in days|1901|1|1|1901|1|17}} days 2 James Drake  Protectionist Barton Postmaster-General {{start date|1901|2|5|df=y}} {{end date|1903|8|10|df=y}} {{age in years and days|1901|2|5|1903|8|10}} 3 Philip Fysh  Protectionist Barton Postmaster-General {{start date|1903|8|10|df=y}} {{end date|1903|9|24|df=y}} {{age in days|1903|8|10|1904|4|27}} days 3 Philip Fysh  Protectionist Deakin Postmaster-General {{start date|1903|9|24|df=y}} {{end date|1904|4|27|df=y}} {{age in days|1903|8|10|1904|4|27}} days 4 Hugh Mahon  Labor Watson Postmaster-General {{start date|1904|4|27|df=y}} {{end date|1904|8|17|df=y}} {{age in days|1904|4|27|1904|8|17}} days 
9357163 Loggerhead sea turtle
File:Loggerhead sea turtle.jpg Caretta caretta Turtle Cheloniidae Coastal waters of Southeastern Mass; one recorded in Essex County in 2008; endangered federally and in the Commonwealth 7File:EN IUCN 3 1.svg Green sea turtle
File:Green turtle swimming over coral reefs in Kona.jpg Chelonia mydas Turtle Cheloniidae Reported from Dukes, Nantucket, and Cape Cod; very rare; listed as threatened in the Commonwealth and endangered federally 7File:EN IUCN 3 1.svg Common snapping turtle
File:Common Snapping Turtle.jpg Chelydra serpentina Turtle Chelydridae Common; statewide 7Image:Fl mammals lc.svg Painted turtle
File:Painted-Turtle-1 Young.jpg Chrysemys picta Turtle Emydidae Common; statewide 7Image:Fl mammals lc.svg Spotted turtle
File:Spotted Turtle - Clemmys guttata.jpg Clemmys guttata Turtle Emydidae Locally common to uncommon; statewide except Northern Berkshire County and Suffolk County 7File:VU IUCN 3 1.svg 
9382506 Belasitsa Petrich 2005–06 A Group 13 5 0 0 – – 13 5 Belasitsa Petrich 2006–07 A Group 28 12 1 0 – – 29 12 CSKA Sofia 2007–08 A Group 25 1 1 0 3 0 29 1 CSKA Sofia 2008–09 A Group 25 2 3 3 – – 28 5 CSKA Sofia 2009–10 A Group 13 4 0 0 7 1 20 5 
9405 AK-103 Assault rifle {{RUS}}
{{flag|Ethiopia}} The Gafat Armament Engineering Complex produces the AK-103 rifle in Ethiopia. Supplements the AKM and AK-47 in the Ethiopian Armed Forces. AK-47 Assault rifle {{RUS}}
{{flag|Ethiopia}}  AKM Assault rifle {{USSR}} 100,000+ BM59 Assault rifle {{ITA}}  G3 Assault rifle {{GER}}  
9499078  Theo Heemskerk Theo Heemskerk
(1852–1932) Minister of Justice 9 September 1918 –
4 August 1925 Anti-Revolutionary Party Charles Ruijs de
Beerenbrouck
(Ruijs de Beerenbrouck I • II)  Dirk Jan de Geer Jonkheer
Dirk Jan de Geer
(1870–1960) Minister of Finance 4 August 1925 –
8 March 1926 Christian Historical Union Hendrikus Colijn
(Colijn I)  Dirk Jan de Geer Jonkheer
Dirk Jan de Geer
(1870–1960) Minister of Finance 10 August 1929 –
26 May 1933 Christian Historical Union Charles Ruijs de
Beerenbrouck
(Ruijs de Beerenbrouck III)  Josef van Schaik Josef van Schaik
(1882–1962) Minister of Justice 26 May 1933 –
24 June 1937 Roman Catholic
State Party Hendrikus Colijn
(Colijn II • III)  Carel Goseling Carel Goseling
(1891–1941) Minister of Justice 24 June 1937 –
25 July 1939 Roman Catholic
State Party Hendrikus Colijn
(Colijn IV) 
950914 1996–97 Toronto Maple Leafs NHL &nbsp; 76 6 7 13 24 &nbsp; — — — 1997–98 Toronto Maple Leafs NHL &nbsp; 74 16 16 32 32 &nbsp; — — — 1998–99 Toronto Maple Leafs NHL &nbsp; 67 16 15 31 35 &nbsp; 8 0 0 1999–2000 Tampa Bay Lightning NHL &nbsp; 80 22 26 48 18 &nbsp; — — — 2000–01 Tampa Bay Lightning NHL &nbsp; 76 32 24 56 48 &nbsp; — — — 
9513507 Image:Hans Burgkmair d. Ä. 006.jpg Eleanor of Portugal Edward of Portugal
(Aviz) 18 September 1434 16 March 1452 16 March 1452 19 March 1452
husband's coronation 3 September 1467 3 September 1467 Frederick III, Holy Roman Emperor Image:Ambrogio de Predis 002.jpg Bianca Maria of Milan Galeazzo Maria, Duke of Milan
(Sforza) 5 April 1472 16 March 1494 16 March 1494 4 February 1508
husband declared "emperor-elect" 31 December 1510 31 December 1510 Maximilian I, Holy Roman Emperor Image:Tizian 057.jpg Isabella of Portugal Manuel I of Portugal
(Aviz) 23 October 1503 10 March 1526 10 March 1526 24 February 1530
husband's coronation 1 May 1539 1 May 1539 Charles V, Holy Roman Emperor Image:Maria of Spain 1557.jpg Maria of Spain Emperor Charles V
(Habsburg) 21 June 1528 13 September 1548 November 1562
husband's election 25 July 1564
husband's ascension 12 October 1576
husband's death 26 February 1603 Maximilian II, Holy Roman Emperor Image:Frans Pourbus d. J. 002.jpg Anna of Austria Ferdinand II, Archduke of Austria
(Habsburg) 4 October 1585 4 December 1611 1612
husband's election 1612
husband's election 14 December 1618 14 December 1618 Matthias, Holy Roman Emperor 
9537707 JEF United Ichihara 2002 0 0 0 0 0 0 - - - - 0 JEF United Ichihara 2003 20 2 0 0 3 0 - - - - 23 JEF United Ichihara 2004 12 4 0 0 3 0 - - - - 15 JEF United Chiba 2005 30 2 1 0 7 0 - - - - 38 JEF United Chiba 2006 34 6 1 0 10 5 - - - - 45 
9560047 1981–82 Phillips Andover HS-MA           1986–87 Springfield Indians AHL  75 23 24 47 57  — — — 1986–87 New York Islanders NHL  6 1 0 1 4  13 1 3 1987–88 Springfield Indians AHL  1 0 1 1 0  — — — 1987–88 New York Islanders NHL  75 22 16 38 80  5 1 0 
9570822 1969 Bill Yeoman Astro-Bluebonnet Bowl Auburn W 37–7 1973 Bill Yeoman Astro-Bluebonnet Bowl Tulane W 47–7 1976 Bill Yeoman Cotton Bowl Classic Maryland W 30–21 1978 Bill Yeoman Cotton Bowl Classic Notre Dame L 34–35 1979 Bill Yeoman Cotton Bowl Classic Nebraska W 17–14 
9583904 1974–75 Atlanta Flames NHL  18 1 4 5 13  — — — 1974–75 Omaha Knights CHL  11 3 5 8 10  — — — 1974–75 Minnesota North Stars NHL  43 8 17 25 6  — — — 1975–76 Minnesota North Stars NHL  79 18 30 48 18  — — — 1976–77 Minnesota North Stars NHL  80 22 27 49 10  2 0 0 
9594440 1830 J. H. Bayford Trinity Hall, Cambridge NTT Battersea to Hammersmith 1832 A. A. Julius Leander Club NTT Westminster to Putney 1834 A. A. Julius Leander Club NTT Westminster to Putney 1835 A. A. Julius Leander Club NTT Westminster to Putney 1840 T.L.Jenkins Leander Club Row Over Westminster to Putney 
9602317 1999 Ljubljana Jan Čejvan Gregor Urbas Janez Špoljar 2000 Ljubljana Jan Čejvan Gregor Urbas Janez Špoljar 2001 Celje Gregor Urbas Jan Čejvan Aleš Žunko 2002 Ljubljana Gregor Urbas Jan Čejvan Damjan Ostojič 2003 Celje Gregor Urbas Jan Čejvan Damjan Ostojič 
9637318 SV Werder Bremen II 1–2 MSV Duisburg FC St. Pauli 1–3 FC Energie Cottbus Kickers Offenbach 1–2 LR Ahlen Jahn Regensburg II 1–3 SpVgg Unterhaching Eintracht Braunschweig 1–0 Wacker Burghausen (AET) 
9672897 Abukuma Uraga Dock Company Nagara-class light cruiser 5,832 26 May 1925 26 October 1944; Sunk by USAAF aircraft off Negros Island Agano Sasebo Navy Yard Agano-class light cruiser 6,650 31 October 1942 15 February 1944; Sunk by USS Skate north of Truk Ioshima Harima Shipyards Ioshima-class light cruiser 2,526 28 June 1944 19 September 1944; Sunk by USS Shad south of Cape Omaezaki Isuzu Uraga Dock Company Nagara-class light cruiser 5,832 15 August 1923 7 April 1945; Sunk by USN submarines off Sumbawa Kitakami Sasebo Navy Yard Kuma-class light cruiser 5,100 15 April 1921 30 November 1945; Scrapped 
969664 Jeremy Clarkson Doncaster  presenter and former host of BBC TV's Top Gear  Angela Crow Wharfedale 1938– actress {{fact|date=August 2019}} Rodney Bewes Bingley, Bradford 1937–2017 comedian, actor {{fact|date=August 2019}} Roy Castle Scholes 1932–1994 comedian, singer, actor, television presenter  Paul Daniels South Bank, Middlesbrough 1938–2016 illusionist, quiz show host {{fact|date=August 2019}} 
970070  Andrew Lansley File:official portrait of Lord Lansley crop 2.jpg 15 June 1999 18 September 2001 Conservative Hague  Francis Maude File:Francis Maude, Minister for the Cabinet Office.jpg 2 July 2007 11 May 2010 Conservative Cameron  Tessa Jowell File:Tessa Jowell Jan 2007.jpg 11 May 2010 8 October 2010 Labour Harman  Liam Byrne File:official portrait of Liam Byrne crop 2.jpg 8 October 2010 20 January 2011 Labour Miliband  Tessa Jowell File:Tessa Jowell Jan 2007.jpg 20 January 2011 7 October 2011 Labour Miliband 
970686 1 Mike Cuffe Rep Eureka 2018 2 Dee L. Brown Rep Hungry Horse 2012 3 Keith Regier Rep Kalispell 2016 4 Mark Blasdel Rep Somers 2014 5 Bob Keenan Rep Kalispell 2014 
971312 1 Takaido IC Met. Route 14 (Shinjuku Kunitachi Route) (Tōhachi Road) 0.0  Tokyo-bound exit only 60&nbsp;km/h Suginami Tokyo <2> Chūō JCT {{jct|country=JPN|C3_TG}}   Planned 60&nbsp;km/h Mitaka Tokyo BS Mitaka Bus Stop  4.0 ○  60&nbsp;km/h Mitaka Tokyo TB Mitaka Toll Gate  4.0  Komaki-bound only 60&nbsp;km/h Mitaka Tokyo TB Mitaka Toll Gate  4.0  Komaki-bound only 80&nbsp;km/h Mitaka Tokyo 
9721251 1 ACS Ksar Nouakchott 5 1979, 1993, 1994, 2014, 2015 2 AS Garde Nationale Nouakchott 4 1981, 1986, 1989, 2001 - FC Nouadhibou Nouadhibou 4 2004, 2008, 2017, 2018 - ASC Entente Sebkha 2 2003, 2005 - ASC Police Nouakchott 2 1985, 1999 
976963 1991–92 Fairfield Prep HS-CT  25 22 27 49 —  — — — 1992–93 Fairfield Prep HS-CT  24 25 32 57 15  — — — 1993–94 Fairfield Prep HS-CT  24 37 18 55 —  — — — 1998–99 Colorado Avalanche NHL  79 20 24 44 62  19 6 2 1999–2000 Colorado Avalanche NHL  82 20 47 67 42  17 4 10 
9781360 East 1&2 Purdue University Mackey Arena West Lafayette Indiana East 1&2 University of Connecticut Harry A. Gampel Pavilion Storrs Connecticut East 1&2 Kansas State University Bramlage Coliseum Manhattan Kansas East 1&2 Old Dominion University Ted Constant Convocation Center Norfolk Virginia Mideast 1&2 University of Oklahoma Lloyd Noble Center Norman Oklahoma 
978437 English Broad Cockney{{sfnp|Wells|1982|pp=322–323}} tea {{IPA|[ˈt͡səˑi̯]}} 'tea' Possible word-initial, intervocalic and word-final allophone of {{IPA|/t/}}.{{sfnp|Wells|1982|p=323}}{{sfnp|Gimson|2014|p=172}} See English phonology English Received Pronunciation{{sfnp|Gimson|2014|p=172}} tea {{IPA|[ˈt͡sɪˑi̯]}} 'tea' Possible word-initial, intervocalic and word-final allophone of {{IPA|/t/}}.{{sfnp|Wells|1982|p=323}}{{sfnp|Gimson|2014|p=172}} See English phonology English New York{{sfnp|Wells|1982|p=515}} tea {{IPA|[ˈt͡sɪˑi̯]}} 'tea' Possible syllable-initial and sometimes also utterance-final allophone of {{IPA|/t/}}.{{sfnp|Wells|1982|p=515}} See English phonology English New Zealand{{sfnp|Bauer et al.|2007|p=100}} tea {{IPA|[ˈt͡sɪˑi̯]}} 'tea' Word-initial allophone of {{IPA|/t/}}.{{sfnp|Bauer et al.|2007|p=100}} See English phonology English North Wales{{sfnp|Penhallurick|2004|pp=108–109}} tea {{IPA|[ˈt͡siː]}} 'tea' Word-initial and word-final allophone of {{IPA|/t/}}; in free variation with a strongly aspirated stop {{IPA|[tʰ]}}.{{sfnp|Penhallurick|2004|pp=108–109}} See English phonology 
989275 2001 February 5, 2001 6 72 Davie, FL Chris Carrieri San Jose Earthquakes 2003 January 17, 2003 6 60 Kansas City, MO Alecko Eskandarian D.C. United 2004 January 16, 2004 6 60 Charlotte, NC Freddy Adu D.C. United 2007 January 12, 2007 4 52 Indianapolis, IN Maurice Edu Toronto FC 2009 January 15, 2009 4 60 St. Louis, MO Steve Zakuani Seattle Sounders FC 
9946409 Seikel Motorsport Porsche 968 Turbo RS Porsche 3.0&nbsp;L Turbo I4  36
58 Thomas Bscher 4–6 Seikel Motorsport Porsche 968 Turbo RS Porsche 3.0&nbsp;L Turbo I4  36
58 John Nielsen 4–6 Seikel Motorsport Porsche 968 Turbo RS Porsche 3.0&nbsp;L Turbo I4  36
58 Lindsay Owen-Jones 4 Seikel Motorsport Porsche 911 Carrera RSR Porsche 3.8&nbsp;L Flat-6  39
60 Giuseppe Quargentan 1, 3–6 Seikel Motorsport Porsche 911 Carrera RSR Porsche 3.8&nbsp;L Flat-6  39
60 Girolamo Capra 1, 3–4, 6 
9954156 1946 Jess Neely Orange Bowl Tennessee W 8–0 1949 Jess Neely Cotton Bowl Classic North Carolina W 27–13 1953 Jess Neely Cotton Bowl Classic Alabama W 28–6 1957 Jess Neely Cotton Bowl Classic Navy L 7–20 1960 Jess Neely Sugar Bowl Ole Miss L 6–14 
996518 63rd General Assembly of Nova Scotia 2017–Present May 30, 2017  62nd General Assembly of Nova Scotia 2013–2017 October 8, 2013 April 30, 2017 61st General Assembly of Nova Scotia 2009–2013 June 9, 2009 September 7, 2013 60th General Assembly of Nova Scotia 2006–2009 June 13, 2006 May 5, 2009 59th General Assembly of Nova Scotia 2003–2006 August 5, 2003 May 13, 2006 
